 hvh

 Timestamp is 61975f88 (Fri Nov 19 10:25:44 2021)

 Preferred load address is 10000000

 Start         Length     Name                   Class
 0001:00000000 000020f0H .text$di                CODE
 0001:000020f0 0018ac50H .text$mn                CODE
 0001:0018cd40 0000dd10H .text$x                 CODE
 0001:0019aa50 00000419H .text$yd                CODE
 0002:00000000 000004e4H .idata$5                DATA
 0002:000004e4 00000004H .00cfg                  DATA
 0002:000004e8 00000004H .CRT$XCA                DATA
 0002:000004ec 00000004H .CRT$XCL                DATA
 0002:000004f0 0000028cH .CRT$XCU                DATA
 0002:0000077c 00000004H .CRT$XCZ                DATA
 0002:00000780 00000004H .CRT$XIA                DATA
 0002:00000784 00000004H .CRT$XIC                DATA
 0002:00000788 00000004H .CRT$XIZ                DATA
 0002:0000078c 00000004H .CRT$XLA                DATA
 0002:00000790 00000004H .CRT$XLZ                DATA
 0002:00000794 00000004H .CRT$XPA                DATA
 0002:00000798 00000004H .CRT$XPZ                DATA
 0002:0000079c 00000004H .CRT$XTA                DATA
 0002:000007a0 00000020H .CRT$XTZ                DATA
 0002:000007a4 00000000H .gfids$y                DATA
 0002:000007c0 0002e8ccH .rdata                  DATA
 0002:0002f08c 00000018H .rdata$T                DATA
 0002:0002f0a4 0000133cH .rdata$r                DATA
 0002:000303e0 000008acH .rdata$sxdata           DATA
 0002:00030c8c 000003a4H .rdata$zzzdbg           DATA
 0002:00031030 00000004H .rtc$IAA                DATA
 0002:00031034 00000004H .rtc$IZZ                DATA
 0002:00031038 00000004H .rtc$TAA                DATA
 0002:0003103c 00000004H .rtc$TZZ                DATA
 0002:00031040 00000004H .tls                    DATA
 0002:00031044 00000004H .tls$                   DATA
 0002:00031048 00000008H .tls$ZZZ                DATA
 0002:00031050 0000bae0H .xdata$x                DATA
 0002:0003cb30 00000050H .edata                  DATA
 0002:0003cb80 00000168H .idata$2                DATA
 0002:0003cce8 00000014H .idata$3                DATA
 0002:0003ccfc 000004e4H .idata$4                DATA
 0002:0003d1e0 000021beH .idata$6                DATA
 0003:00000000 0002e038H .data                   DATA
 0003:0002e038 000019c8H .data$r                 DATA
 0003:0002fa00 0091fc54H .bss                    DATA
 0004:00000000 00000060H .rsrc$01                DATA
 0004:00000060 00000180H .rsrc$02                DATA

  Address         Publics by Value              Rva+Base       Lib:Object

 0000:00000000       ___hybrid_auxiliary_iat    00000000     <absolute>
 0000:00000000       ___guard_fids_table        00000000     <absolute>
 0000:00000000       ___guard_longjmp_count     00000000     <absolute>
 0000:00000000       ___dynamic_value_reloc_table 00000000     <absolute>
 0000:00000000       ___volatile_metadata       00000000     <absolute>
 0000:00000000       ___hybrid_code_map_count   00000000     <absolute>
 0000:00000000       ___guard_iat_table         00000000     <absolute>
 0000:00000000       ___guard_longjmp_table     00000000     <absolute>
 0000:00000000       ___AbsoluteZero            00000000     <absolute>
 0000:00000000       ___guard_fids_count        00000000     <absolute>
 0000:00000000       ___hybrid_code_map         00000000     <absolute>
 0000:00000000       ___guard_iat_count         00000000     <absolute>
 0000:00000000       ___enclave_config          00000000     <absolute>
 0000:0000002c       __tls_array                0000002c     <absolute>
 0000:00000100       ___guard_flags             00000100     <absolute>
 0000:0000022b       ___safe_se_handler_count   0000022b     <absolute>
 0000:00000000       ___ImageBase               10000000     <linker-defined>
 0001:000020f0       ??$?0$$V@?$_Compressed_pair@V?$allocator@D@std@@V?$_String_val@U?$_Simple_types@D@std@@@2@$00@std@@QAE@U_Zero_then_variadic_args_t@1@@Z 100030f0 f i dll.obj
 0001:00002110       ??$?0AAPAVc_renderer@@@?$_Compressed_pair@U?$default_delete@Vc_renderer@@@std@@PAVc_renderer@@$00@std@@QAE@U_Zero_then_variadic_args_t@1@AAPAVc_renderer@@@Z 10003110 f i idirect3ddevice9.obj
 0001:00002110       ??$?0AAPAV?$c_hook@I@@@?$_Compressed_pair@U?$default_delete@V?$c_hook@I@@@std@@PAV?$c_hook@I@@$00@std@@QAE@U_Zero_then_variadic_args_t@1@AAPAV?$c_hook@I@@@Z 10003110 f i c_cs_player_.obj
 0001:00002110       ??$?0M@?$_Compressed_pair@U?$equal_to@I@std@@M$00@std@@QAE@U_Zero_then_variadic_args_t@1@$$QAM@Z 10003110 f i aimbot_recode.obj
 0001:00002110       ??$?0AAPAI@?$_Compressed_pair@U?$default_delete@$$BY0A@I@std@@PAI$00@std@@QAE@U_Zero_then_variadic_args_t@1@AAPAI@Z 10003110 f i cte_effects.obj
 0001:00002110       ??$?0M@?$_Compressed_pair@U?$equal_to@PAVc_hotkey_select@@@std@@M$00@std@@QAE@U_Zero_then_variadic_args_t@1@$$QAM@Z 10003110 f i c_hotkeys.obj
 0001:00002110       ??$?0AAPAV_Facet_base@std@@@?$_Compressed_pair@U?$default_delete@V_Facet_base@std@@@std@@PAV_Facet_base@2@$00@std@@QAE@U_Zero_then_variadic_args_t@1@AAPAV_Facet_base@1@@Z 10003110 f i dll.obj
 0001:00002140       ??$?0U?$default_delete@V?$c_hook@I@@@std@@$0A@@?$unique_ptr@V?$c_hook@I@@U?$default_delete@V?$c_hook@I@@@std@@@std@@QAE@PAV?$c_hook@I@@@Z 10003140 f i c_cs_player_.obj
 0001:00002140       ??$?0U?$default_delete@Vc_renderer@@@std@@$0A@@?$unique_ptr@Vc_renderer@@U?$default_delete@Vc_renderer@@@std@@@std@@QAE@PAVc_renderer@@@Z 10003140 f i idirect3ddevice9.obj
 0001:00002140       ??$?0PAIU?$default_delete@$$BY0A@I@std@@$0A@X@?$unique_ptr@$$BY0A@IU?$default_delete@$$BY0A@I@std@@@std@@QAE@PAI@Z 10003140 f i cte_effects.obj
 0001:00002140       ??$?0U?$default_delete@V_Facet_base@std@@@std@@$0A@@?$unique_ptr@V_Facet_base@std@@U?$default_delete@V_Facet_base@std@@@2@@std@@QAE@PAV_Facet_base@1@@Z 10003140 f i dll.obj
 0001:00002170       ??$_Allocate@$07U_Default_allocate_traits@std@@$0A@@std@@YAPAXI@Z 10003170 f i dll.obj
 0001:000021b0       ??$_Allocate_manually_vector_aligned@U_Default_allocate_traits@std@@@std@@YAPAXI@Z 100031b0 f i dll.obj
 0001:00002220       ??$_Construct_in_place@PAU?$_List_node@U?$pair@$$CBIUanimation_info@c_animation_system@@@std@@PAX@std@@ABQAU12@@std@@YAXAAPAU?$_List_node@U?$pair@$$CBIUanimation_info@c_animation_system@@@std@@PAX@0@ABQAU10@@Z 10003220 f i c_animation_system.obj
 0001:00002220       ??$_Construct_in_place@PAU?$_List_node@U?$pair@$$CBIV?$unordered_map@IUnetvar@c_netvar@@U?$hash@I@std@@U?$equal_to@I@4@V?$allocator@U?$pair@$$CBIUnetvar@c_netvar@@@std@@@4@@std@@@std@@PAX@std@@ABQAU12@@std@@YAXAAPAU?$_List_node@U?$pair@$$CBIV?$unordered_map@IUnetvar@c_netvar@@U?$hash@I@std@@U?$equal_to@I@4@V?$allocator@U?$pair@$$CBIUnetvar@c_netvar@@@std@@@4@@std@@@std@@PAX@0@ABQAU10@@Z 10003220 f i aimbot_recode.obj
 0001:00002220       ??$_Construct_in_place@PAU?$_List_node@U?$pair@$$CBIVc_font@@@std@@PAX@std@@ABQAU12@@std@@YAXAAPAU?$_List_node@U?$pair@$$CBIVc_font@@@std@@PAX@0@ABQAU10@@Z 10003220 f i c_renderer.obj
 0001:00002220       ??$_Construct_in_place@PAU?$_List_node@U?$pair@$$CBIUnetvar@c_netvar@@@std@@PAX@std@@AAPAU12@@std@@YAXAAPAU?$_List_node@U?$pair@$$CBIUnetvar@c_netvar@@@std@@PAX@0@0@Z 10003220 f i aimbot_recode.obj
 0001:00002220       ??$_Construct_in_place@PAU?$_Tree_node@U?$pair@$$CBV?$basic_string@DU?$char_traits@D@std@@V?$allocator@D@2@@std@@V?$basic_json@Vmap@std@@Vvector@2@V?$basic_string@DU?$char_traits@D@std@@V?$allocator@D@2@@2@_N_J_KNVallocator@2@Uadl_serializer@nlohmann@@@nlohmann@@@std@@PAX@std@@AAPAU12@@std@@YAXAAPAU?$_Tree_node@U?$pair@$$CBV?$basic_string@DU?$char_traits@D@std@@V?$allocator@D@2@@std@@V?$basic_json@Vmap@std@@Vvector@2@V?$basic_string@DU?$char_traits@D@std@@V?$allocator@D@2@@2@_N_J_KNVallocator@2@Uadl_serializer@nlohmann@@@nlohmann@@@std@@PAX@0@0@Z 10003220 f i c_menu.obj
 0001:00002220       ??$_Construct_in_place@PAU?$_List_node@U?$pair@$$CBIVc_font@@@std@@PAX@std@@AAPAU12@@std@@YAXAAPAU?$_List_node@U?$pair@$$CBIVc_font@@@std@@PAX@0@0@Z 10003220 f i c_renderer.obj
 0001:00002220       ??$_Construct_in_place@PAU?$_Tree_node@U?$pair@$$CBHH@std@@PAX@std@@AAPAU12@@std@@YAXAAPAU?$_Tree_node@U?$pair@$$CBHH@std@@PAX@0@0@Z 10003220 f i c_prediction_.obj
 0001:00002220       ??$_Construct_in_place@PAU?$_List_node@U?$pair@QAVc_hotkey_select@@V?$function@$$A6AXI@Z@std@@@std@@PAX@std@@AAPAU12@@std@@YAXAAPAU?$_List_node@U?$pair@QAVc_hotkey_select@@V?$function@$$A6AXI@Z@std@@@std@@PAX@0@0@Z 10003220 f i c_hotkeys.obj
 0001:00002220       ??$_Construct_in_place@PAU?$_List_node@U?$pair@$$CBIV?$unordered_map@IUnetvar@c_netvar@@U?$hash@I@std@@U?$equal_to@I@4@V?$allocator@U?$pair@$$CBIUnetvar@c_netvar@@@std@@@4@@std@@@std@@PAX@std@@AAPAU12@@std@@YAXAAPAU?$_List_node@U?$pair@$$CBIV?$unordered_map@IUnetvar@c_netvar@@U?$hash@I@std@@U?$equal_to@I@4@V?$allocator@U?$pair@$$CBIUnetvar@c_netvar@@@std@@@4@@std@@@std@@PAX@0@0@Z 10003220 f i c_netvar.obj
 0001:00002220       ??$_Construct_in_place@PAU?$_Tree_node@U?$pair@$$CBV?$basic_string@DU?$char_traits@D@std@@V?$allocator@D@2@@std@@V?$basic_json@Vmap@std@@Vvector@2@V?$basic_string@DU?$char_traits@D@std@@V?$allocator@D@2@@2@_N_J_KNVallocator@2@Uadl_serializer@nlohmann@@@nlohmann@@@std@@PAX@std@@ABQAU12@@std@@YAXAAPAU?$_Tree_node@U?$pair@$$CBV?$basic_string@DU?$char_traits@D@std@@V?$allocator@D@2@@std@@V?$basic_json@Vmap@std@@Vvector@2@V?$basic_string@DU?$char_traits@D@std@@V?$allocator@D@2@@2@_N_J_KNVallocator@2@Uadl_serializer@nlohmann@@@nlohmann@@@std@@PAX@0@ABQAU10@@Z 10003220 f i c_menu.obj
 0001:00002220       ??$_Construct_in_place@PAU?$_List_node@U?$pair@$$CBIUnetvar@c_netvar@@@std@@PAX@std@@ABQAU12@@std@@YAXAAPAU?$_List_node@U?$pair@$$CBIUnetvar@c_netvar@@@std@@PAX@0@ABQAU10@@Z 10003220 f i aimbot_recode.obj
 0001:00002220       ??$_Construct_in_place@PAU?$_List_node@U?$pair@$$CBIUanimation_info@c_animation_system@@@std@@PAX@std@@AAPAU12@@std@@YAXAAPAU?$_List_node@U?$pair@$$CBIUanimation_info@c_animation_system@@@std@@PAX@0@0@Z 10003220 f i aimbot_recode.obj
 0001:00002220       ??$_Construct_in_place@PAU?$_List_node@U?$pair@$$CBIPAVCD3DFont@@@std@@PAX@std@@AAPAU12@@std@@YAXAAPAU?$_List_node@U?$pair@$$CBIPAVCD3DFont@@@std@@PAX@0@0@Z 10003220 f i c_renderer.obj
 0001:00002220       ??$_Construct_in_place@PADABQAD@std@@YAXAAPADABQAD@Z 10003220 f i dll.obj
 0001:00002220       ??$_Construct_in_place@PAU?$_Tree_node@U?$pair@$$CBHH@std@@PAX@std@@ABQAU12@@std@@YAXAAPAU?$_Tree_node@U?$pair@$$CBHH@std@@PAX@0@ABQAU10@@Z 10003220 f i c_prediction_.obj
 0001:00002260       ??$_Deallocate@$07$0A@@std@@YAXPAXI@Z 10003260 f i dll.obj
 0001:00002260       ??$_Deallocate@$03$0A@@std@@YAXPAXI@Z 10003260 f i aimbot_recode.obj
 0001:000022c0       ??$_Destroy_in_place@PAUshot@resolver@@@std@@YAXAAPAUshot@resolver@@@Z 100032c0 f i aimbot_recode.obj
 0001:000022c0       ?hook@c_net_channel_@@SAXXZ 100032c0 f i c_net_channel_.obj
 0001:000022c0       ??$destroy@Uimpact_info@@@?$_Default_allocator_traits@V?$allocator@Uimpact_info@@@std@@@std@@SAXAAV?$allocator@Uimpact_info@@@1@QAUimpact_info@@@Z 100032c0 f i c_hitmarker.obj
 0001:000022c0       ??$_Destroy_in_place@PAU?$_List_node@U?$pair@$$CBIUanimation_info@c_animation_system@@@std@@PAX@std@@@std@@YAXAAPAU?$_List_node@U?$pair@$$CBIUanimation_info@c_animation_system@@@std@@PAX@0@@Z 100032c0 f i aimbot_recode.obj
 0001:000022c0       ??$_Destroy_in_place@PAU?$_Tree_node@U?$pair@$$CBV?$basic_string@DU?$char_traits@D@std@@V?$allocator@D@2@@std@@V?$basic_json@Vmap@std@@Vvector@2@V?$basic_string@DU?$char_traits@D@std@@V?$allocator@D@2@@2@_N_J_KNVallocator@2@Uadl_serializer@nlohmann@@@nlohmann@@@std@@PAX@std@@@std@@YAXAAPAU?$_Tree_node@U?$pair@$$CBV?$basic_string@DU?$char_traits@D@std@@V?$allocator@D@2@@std@@V?$basic_json@Vmap@std@@Vvector@2@V?$basic_string@DU?$char_traits@D@std@@V?$allocator@D@2@@2@_N_J_KNVallocator@2@Uadl_serializer@nlohmann@@@nlohmann@@@std@@PAX@0@@Z 100032c0 f i c_menu.obj
 0001:000022c0       ?draw_enemy_impact@c_esp@@SAXPAVc_game_event@@@Z 100032c0 f i c_esp.obj
 0001:000022c0       ??$_Adl_verify_range@V?$_Vector_iterator@V?$_Vector_val@U?$_Simple_types@PAVLua_Hook@@@std@@@std@@@std@@V12@@std@@YAXABV?$_Vector_iterator@V?$_Vector_val@U?$_Simple_types@PAVLua_Hook@@@std@@@std@@@0@0@Z 100032c0 f i LuaAPI.obj
 0001:000022c0       ??$_Destroy_range@V?$allocator@Uplayer_info@c_esp@@@std@@@std@@YAXPAUplayer_info@c_esp@@QAU12@AAV?$allocator@Uplayer_info@c_esp@@@0@@Z 100032c0 f i aimbot_recode.obj
 0001:000022c0       ??3@YAXPAXUImNewDummy@@0@Z 100032c0 f i imgui.obj
 0001:000022c0       ??$_Adl_verify_range@PAV?$_List_unchecked_iterator@V?$_List_val@U?$_List_simple_types@U?$pair@$$CBIUanimation_info@c_animation_system@@@std@@@std@@@std@@@std@@PAV12@@std@@YAXABQAV?$_List_unchecked_iterator@V?$_List_val@U?$_List_simple_types@U?$pair@$$CBIUanimation_info@c_animation_system@@@std@@@std@@@std@@@0@0@Z 100032c0 f i aimbot_recode.obj
 0001:000022c0       ?pen_crosshair@c_esp@@CAXXZ 100032c0 f i c_esp.obj
 0001:000022c0       ??$_Destroy_range@V?$allocator@Vc_vector2d@@@std@@@std@@YAXPAVc_vector2d@@QAV1@AAV?$allocator@Vc_vector2d@@@0@@Z 100032c0 f i c_damageesp.obj
 0001:000022c0       ??$_Adl_verify_range@PBU?$pair@$$CBHH@std@@PBU12@@std@@YAXABQBU?$pair@$$CBHH@0@0@Z 100032c0 f i c_prediction_.obj
 0001:000022c0       ??$_Destroy_range@V?$allocator@Uimpact_info@@@std@@@std@@YAXPAUimpact_info@@QAU1@AAV?$allocator@Uimpact_info@@@0@@Z 100032c0 f i c_hitmarker.obj
 0001:000022c0       ??$_Destroy_range@V?$allocator@Vc_vector3d@@@std@@@std@@YAXPAVc_vector3d@@QAV1@AAV?$allocator@Vc_vector3d@@@0@@Z 100032c0 f i aimbot_recode.obj
 0001:000022c0       ??$_Adl_verify_range@PAPAUanimation@c_animation_system@@PAPAU12@@std@@YAXABQAPAUanimation@c_animation_system@@0@Z 100032c0 f i c_animation_system.obj
 0001:000022c0       ??$_Adl_verify_range@PAMPAM@std@@YAXABQAM0@Z 100032c0 f i c_renderer.obj
 0001:000022c0       ??$_Destroy_in_place@PAD@std@@YAXAAPAD@Z 100032c0 f i dll.obj
 0001:000022c0       ?draw_debug@c_esp@@CAXXZ   100032c0 f i c_esp.obj
 0001:000022c0       ??$destroy@U?$pair@$$CBHH@std@@@?$_Default_allocator_traits@V?$allocator@U?$_Tree_node@U?$pair@$$CBHH@std@@PAX@std@@@std@@@std@@SAXAAV?$allocator@U?$_Tree_node@U?$pair@$$CBHH@std@@PAX@std@@@1@QAU?$pair@$$CBHH@1@@Z 100032c0 f i c_prediction_.obj
 0001:000022c0       ??$_Pocca@V?$allocator@D@std@@@std@@YAXAAV?$allocator@D@0@ABV10@@Z 100032c0 f i c_miscellaneous.obj
 0001:000022c0       ??$_Destroy_in_place@PAUanimation@c_animation_system@@@std@@YAXAAPAUanimation@c_animation_system@@@Z 100032c0 f i aimbot_recode.obj
 0001:000022c0       ??$_Destroy_range@V?$allocator@Udamage_infos@@@std@@@std@@YAXPAUdamage_infos@@QAU1@AAV?$allocator@Udamage_infos@@@0@@Z 100032c0 f i c_esp.obj
 0001:000022c0       ??$_Adl_verify_range@V?$_String_iterator@V?$_String_val@U?$_Simple_types@D@std@@@std@@@std@@V12@@std@@YAXABV?$_String_iterator@V?$_String_val@U?$_Simple_types@D@std@@@std@@@0@0@Z 100032c0 f i aimbot_recode.obj
 0001:000022c0       ??$_Destroy_range@V?$allocator@PAUanimation@c_animation_system@@@std@@@std@@YAXPAPAUanimation@c_animation_system@@QAPAU12@AAV?$allocator@PAUanimation@c_animation_system@@@0@@Z 100032c0 f i c_aimhelper.obj
 0001:000022c0       ??$_Adl_verify_range@V?$_Array_iterator@D$0EA@@std@@V12@@std@@YAXABV?$_Array_iterator@D$0EA@@0@0@Z 100032c0 f i c_menu.obj
 0001:000022c0       ??$_Destroy_range@PAPAUCIncomingSequence@@@std@@YAXPAPAUCIncomingSequence@@QAPAU1@@Z 100032c0 f i c_net_channel_.obj
 0001:000022c0       ??$_Pocca@V?$allocator@M@std@@@std@@YAXAAV?$allocator@M@0@ABV10@@Z 100032c0 f i c_renderer.obj
 0001:000022c0       ??$_Destroy_range@V?$allocator@Uaim_info@c_aimhelper@@@std@@@std@@YAXPAUaim_info@c_aimhelper@@QAU12@AAV?$allocator@Uaim_info@c_aimhelper@@@0@@Z 100032c0 f i c_aimhelper.obj
 0001:000022c0       ??$_Adl_verify_range@PAV?$_List_unchecked_iterator@V?$_List_val@U?$_List_simple_types@U?$pair@QAVc_hotkey_select@@V?$function@$$A6AXI@Z@std@@@std@@@std@@@std@@@std@@PAV12@@std@@YAXABQAV?$_List_unchecked_iterator@V?$_List_val@U?$_List_simple_types@U?$pair@QAVc_hotkey_select@@V?$function@$$A6AXI@Z@std@@@std@@@std@@@std@@@0@0@Z 100032c0 f i c_hotkeys.obj
 0001:000022c0       ??$_Adl_verify_range@PAV?$basic_string@DU?$char_traits@D@std@@V?$allocator@D@2@@std@@PAV12@@std@@YAXABQAV?$basic_string@DU?$char_traits@D@std@@V?$allocator@D@2@@0@0@Z 100032c0 f i loki_menu.obj
 0001:000022c0       ??$_Destroy_range@V?$allocator@Unade_info@c_esp@@@std@@@std@@YAXPAUnade_info@c_esp@@QAU12@AAV?$allocator@Unade_info@c_esp@@@0@@Z 100032c0 f i aimbot_recode.obj
 0001:000022c0       ??$_Adl_verify_range@PAV?$_List_unchecked_iterator@V?$_List_val@U?$_List_simple_types@U?$pair@$$CBIV?$unordered_map@IUnetvar@c_netvar@@U?$hash@I@std@@U?$equal_to@I@4@V?$allocator@U?$pair@$$CBIUnetvar@c_netvar@@@std@@@4@@std@@@std@@@std@@@std@@@std@@PAV12@@std@@YAXABQAV?$_List_unchecked_iterator@V?$_List_val@U?$_List_simple_types@U?$pair@$$CBIV?$unordered_map@IUnetvar@c_netvar@@U?$hash@I@std@@U?$equal_to@I@4@V?$allocator@U?$pair@$$CBIUnetvar@c_netvar@@@std@@@4@@std@@@std@@@std@@@std@@@0@0@Z 100032c0 f i aimbot_recode.obj
 0001:000022c0       ??$_Pocca@V?$allocator@V?$basic_string@DU?$char_traits@D@std@@V?$allocator@D@2@@std@@@std@@@std@@YAXAAV?$allocator@V?$basic_string@DU?$char_traits@D@std@@V?$allocator@D@2@@std@@@0@ABV10@@Z 100032c0 f i loki_menu.obj
 0001:000022c0       ??$_Adl_verify_range@PAPAUshot@resolver@@PAPAU12@@std@@YAXABQAPAUshot@resolver@@0@Z 100032c0 f i c_resolver.obj
 0001:000022c0       ??$destroy@D@?$_Default_allocator_traits@V?$allocator@D@std@@@std@@SAXAAV?$allocator@D@1@QAD@Z 100032c0 f i c_menu.obj
 0001:000022c0       ??$_Destroy_in_place@PAU?$_List_node@U?$pair@$$CBIVc_font@@@std@@PAX@std@@@std@@YAXAAPAU?$_List_node@U?$pair@$$CBIVc_font@@@std@@PAX@0@@Z 100032c0 f i c_damageesp.obj
 0001:000022c0       ??$_Destroy_range@PAV?$_List_unchecked_iterator@V?$_List_val@U?$_List_simple_types@U?$pair@$$CBIPAVCD3DFont@@@std@@@std@@@std@@@std@@@std@@YAXPAV?$_List_unchecked_iterator@V?$_List_val@U?$_List_simple_types@U?$pair@$$CBIPAVCD3DFont@@@std@@@std@@@std@@@0@QAV10@@Z 100032c0 f i c_damageesp.obj
 0001:000022c0       ??$_Destroy_range@PAPAUshot@resolver@@@std@@YAXPAPAUshot@resolver@@QAPAU12@@Z 100032c0 f i c_resolver.obj
 0001:000022c0       ??$_Adl_verify_range@V?$_Deque_iterator@V?$_Deque_val@U?$_Deque_simple_types@Ushot@resolver@@@std@@@std@@@std@@V12@@std@@YAXABV?$_Deque_iterator@V?$_Deque_val@U?$_Deque_simple_types@Ushot@resolver@@@std@@@std@@@0@0@Z 100032c0 f i c_resolver.obj
 0001:000022c0       ??$_Destroy_range@PAV?$_List_unchecked_iterator@V?$_List_val@U?$_List_simple_types@U?$pair@QAVc_hotkey_select@@V?$function@$$A6AXI@Z@std@@@std@@@std@@@std@@@std@@@std@@YAXPAV?$_List_unchecked_iterator@V?$_List_val@U?$_List_simple_types@U?$pair@QAVc_hotkey_select@@V?$function@$$A6AXI@Z@std@@@std@@@std@@@std@@@0@QAV10@@Z 100032c0 f i c_fake_ping.obj
 0001:000022c0       ??$_Pocca@V?$allocator@V?$vector@MV?$allocator@M@std@@@std@@@std@@@std@@YAXAAV?$allocator@V?$vector@MV?$allocator@M@std@@@std@@@0@ABV10@@Z 100032c0 f i c_renderer.obj
 0001:000022c0       ??$_Destroy_range@PAV?$_List_unchecked_iterator@V?$_List_val@U?$_List_simple_types@U?$pair@$$CBIVc_font@@@std@@@std@@@std@@@std@@@std@@YAXPAV?$_List_unchecked_iterator@V?$_List_val@U?$_List_simple_types@U?$pair@$$CBIVc_font@@@std@@@std@@@std@@@0@QAV10@@Z 100032c0 f i c_damageesp.obj
 0001:000022c0       ??$_Destroy_range@PAV?$_List_unchecked_iterator@V?$_List_val@U?$_List_simple_types@U?$pair@$$CBIUnetvar@c_netvar@@@std@@@std@@@std@@@std@@@std@@YAXPAV?$_List_unchecked_iterator@V?$_List_val@U?$_List_simple_types@U?$pair@$$CBIUnetvar@c_netvar@@@std@@@std@@@std@@@0@QAV10@@Z 100032c0 f i DLLMain.obj
 0001:000022c0       ??$_Adl_verify_range@PAV?$_List_unchecked_iterator@V?$_List_val@U?$_List_simple_types@U?$pair@$$CBIPAVCD3DFont@@@std@@@std@@@std@@@std@@PAV12@@std@@YAXABQAV?$_List_unchecked_iterator@V?$_List_val@U?$_List_simple_types@U?$pair@$$CBIPAVCD3DFont@@@std@@@std@@@std@@@0@0@Z 100032c0 f i c_renderer.obj
 0001:000022c0       ??$_Adl_verify_range@PAV?$_List_unchecked_iterator@V?$_List_val@U?$_List_simple_types@U?$pair@$$CBIUnetvar@c_netvar@@@std@@@std@@@std@@@std@@PAV12@@std@@YAXABQAV?$_List_unchecked_iterator@V?$_List_val@U?$_List_simple_types@U?$pair@$$CBIUnetvar@c_netvar@@@std@@@std@@@std@@@0@0@Z 100032c0 f i aimbot_recode.obj
 0001:000022c0       ??$_Adl_verify_range@PADPAD@std@@YAXABQAD0@Z 100032c0 f i c_esp.obj
 0001:000022c0       ??$_Destroy_range@V?$allocator@Uhitmarker_info@@@std@@@std@@YAXPAUhitmarker_info@@QAU1@AAV?$allocator@Uhitmarker_info@@@0@@Z 100032c0 f i c_hitmarker.obj
 0001:000022c0       ??$_Destroy_in_place@PAU?$_List_node@U?$pair@$$CBIV?$unordered_map@IUnetvar@c_netvar@@U?$hash@I@std@@U?$equal_to@I@4@V?$allocator@U?$pair@$$CBIUnetvar@c_netvar@@@std@@@4@@std@@@std@@PAX@std@@@std@@YAXAAPAU?$_List_node@U?$pair@$$CBIV?$unordered_map@IUnetvar@c_netvar@@U?$hash@I@std@@U?$equal_to@I@4@V?$allocator@U?$pair@$$CBIUnetvar@c_netvar@@@std@@@4@@std@@@std@@PAX@0@@Z 100032c0 f i DLLMain.obj
 0001:000022c0       ??$_Destroy_range@V?$allocator@PAVLua_Hook@@@std@@@std@@YAXPAPAVLua_Hook@@QAPAV1@AAV?$allocator@PAVLua_Hook@@@0@@Z 100032c0 f i LuaAPI.obj
 0001:000022c0       ??$_Destroy_range@V?$allocator@D@std@@@std@@YAXPADQADAAV?$allocator@D@0@@Z 100032c0 f i c_menu.obj
 0001:000022c0       ??$_Destroy_range@PAPAUanimation@c_animation_system@@@std@@YAXPAPAUanimation@c_animation_system@@QAPAU12@@Z 100032c0 f i c_animation_system.obj
 0001:000022c0       ??$_Adl_verify_range@V?$_Vector_const_iterator@V?$_Vector_val@U?$_Simple_types@H@std@@@std@@@std@@V12@@std@@YAXABV?$_Vector_const_iterator@V?$_Vector_val@U?$_Simple_types@H@std@@@std@@@0@0@Z 100032c0 f i grenade_prediction.obj
 0001:000022c0       ??$_Adl_verify_range@PAPAUCIncomingSequence@@PAPAU1@@std@@YAXABQAPAUCIncomingSequence@@0@Z 100032c0 f i c_net_channel_.obj
 0001:000022c0       ??$_Destroy_in_place@PAU?$_List_node@U?$pair@$$CBIPAVCD3DFont@@@std@@PAX@std@@@std@@YAXAAPAU?$_List_node@U?$pair@$$CBIPAVCD3DFont@@@std@@PAX@0@@Z 100032c0 f i c_damageesp.obj
 0001:000022c0       ??$destroy@UCIncomingSequence@@@?$_Default_allocator_traits@V?$allocator@UCIncomingSequence@@@std@@@std@@SAXAAV?$allocator@UCIncomingSequence@@@1@QAUCIncomingSequence@@@Z 100032c0 f i c_fake_ping.obj
 0001:000022c0       ??$_Destroy_range@V?$allocator@V?$tuple@MMM@std@@@std@@@std@@YAXPAV?$tuple@MMM@0@QAV10@AAV?$allocator@V?$tuple@MMM@std@@@0@@Z 100032c0 f i c_aimhelper.obj
 0001:000022c0       ??$_Destroy_in_place@PAUCIncomingSequence@@@std@@YAXAAPAUCIncomingSequence@@@Z 100032c0 f i c_fake_ping.obj
 0001:000022c0       ??$_Destroy_in_place@PAU?$_Tree_node@U?$pair@$$CBHH@std@@PAX@std@@@std@@YAXAAPAU?$_Tree_node@U?$pair@$$CBHH@std@@PAX@0@@Z 100032c0 f i c_prediction_.obj
 0001:000022c0       ??$_Destroy_range@V?$allocator@W4hitbox@c_cs_player@@@std@@@std@@YAXPAW4hitbox@c_cs_player@@QAW412@AAV?$allocator@W4hitbox@c_cs_player@@@0@@Z 100032c0 f i aimbot_recode.obj
 0001:000022c0       ??$_Destroy_range@V?$allocator@M@std@@@std@@YAXPAMQAMAAV?$allocator@M@0@@Z 100032c0 f i c_font.obj
 0001:000022c0       ??$_Adl_verify_range@V?$_Deque_iterator@V?$_Deque_val@U?$_Deque_simple_types@Uanimation@c_animation_system@@@std@@@std@@@std@@V12@@std@@YAXABV?$_Deque_iterator@V?$_Deque_val@U?$_Deque_simple_types@Uanimation@c_animation_system@@@std@@@std@@@0@0@Z 100032c0 f i c_animation_system.obj
 0001:000022c0       ??$destroy@U?$pair@$$CBIPAVCD3DFont@@@std@@@?$_Default_allocator_traits@V?$allocator@U?$_List_node@U?$pair@$$CBIPAVCD3DFont@@@std@@PAX@std@@@std@@@std@@SAXAAV?$allocator@U?$_List_node@U?$pair@$$CBIPAVCD3DFont@@@std@@PAX@std@@@1@QAU?$pair@$$CBIPAVCD3DFont@@@1@@Z 100032c0 f i c_damageesp.obj
 0001:000022c0       ??$destroy@Uhitmarker_info@@@?$_Default_allocator_traits@V?$allocator@Uhitmarker_info@@@std@@@std@@SAXAAV?$allocator@Uhitmarker_info@@@1@QAUhitmarker_info@@@Z 100032c0 f i c_hitmarker.obj
 0001:000022c0       ??$_Destroy_in_place@PAU?$_List_node@U?$pair@QAVc_hotkey_select@@V?$function@$$A6AXI@Z@std@@@std@@PAX@std@@@std@@YAXAAPAU?$_List_node@U?$pair@QAVc_hotkey_select@@V?$function@$$A6AXI@Z@std@@@std@@PAX@0@@Z 100032c0 f i c_fake_ping.obj
 0001:000022c0       ??$_Adl_verify_range@PAV?$vector@MV?$allocator@M@std@@@std@@PAV12@@std@@YAXABQAV?$vector@MV?$allocator@M@std@@@0@0@Z 100032c0 f i c_renderer.obj
 0001:000022c0       ??$_Destroy_in_place@PAU?$_List_node@U?$pair@$$CBIUnetvar@c_netvar@@@std@@PAX@std@@@std@@YAXAAPAU?$_List_node@U?$pair@$$CBIUnetvar@c_netvar@@@std@@PAX@0@@Z 100032c0 f i DLLMain.obj
 0001:000022c0       ??$_Destroy_range@V?$allocator@H@std@@@std@@YAXPAHQAHAAV?$allocator@H@0@@Z 100032c0 f i aimbot_recode.obj
 0001:000022c0       ?deadsound@c_hitmarker@@SAXPAVc_game_event@@@Z 100032c0 f i c_hitmarker.obj
 0001:000022c0       ??$_Destroy_range@V?$allocator@U?$pair@PAVc_cs_player@@M@std@@@std@@@std@@YAXPAU?$pair@PAVc_cs_player@@M@0@QAU10@AAV?$allocator@U?$pair@PAVc_cs_player@@M@std@@@0@@Z 100032c0 f i c_chams.obj
 0001:000022c0       ??$destroy@U?$pair@$$CBIUnetvar@c_netvar@@@std@@@?$_Default_allocator_traits@V?$allocator@U?$_List_node@U?$pair@$$CBIUnetvar@c_netvar@@@std@@PAX@std@@@std@@@std@@SAXAAV?$allocator@U?$_List_node@U?$pair@$$CBIUnetvar@c_netvar@@@std@@PAX@std@@@1@QAU?$pair@$$CBIUnetvar@c_netvar@@@1@@Z 100032c0 f i DLLMain.obj
 0001:000022c0       ??$destroy@Uanimation@c_animation_system@@@?$_Default_allocator_traits@V?$allocator@Uanimation@c_animation_system@@@std@@@std@@SAXAAV?$allocator@Uanimation@c_animation_system@@@1@QAUanimation@c_animation_system@@@Z 100032c0 f i aimbot_recode.obj
 0001:000022c0       ??$_Adl_verify_range@PBV?$json_ref@V?$basic_json@Vmap@std@@Vvector@2@V?$basic_string@DU?$char_traits@D@std@@V?$allocator@D@2@@2@_N_J_KNVallocator@2@Uadl_serializer@nlohmann@@@nlohmann@@@detail@nlohmann@@PBV123@@std@@YAXABQBV?$json_ref@V?$basic_json@Vmap@std@@Vvector@2@V?$basic_string@DU?$char_traits@D@std@@V?$allocator@D@2@@2@_N_J_KNVallocator@2@Uadl_serializer@nlohmann@@@nlohmann@@@detail@nlohmann@@0@Z 100032c0 f i c_menu.obj
 0001:000022c0       ??$_Destroy_range@PAV?$_List_unchecked_iterator@V?$_List_val@U?$_List_simple_types@U?$pair@$$CBIV?$unordered_map@IUnetvar@c_netvar@@U?$hash@I@std@@U?$equal_to@I@4@V?$allocator@U?$pair@$$CBIUnetvar@c_netvar@@@std@@@4@@std@@@std@@@std@@@std@@@std@@@std@@YAXPAV?$_List_unchecked_iterator@V?$_List_val@U?$_List_simple_types@U?$pair@$$CBIV?$unordered_map@IUnetvar@c_netvar@@U?$hash@I@std@@U?$equal_to@I@4@V?$allocator@U?$pair@$$CBIUnetvar@c_netvar@@@std@@@4@@std@@@std@@@std@@@std@@@0@QAV10@@Z 100032c0 f i DLLMain.obj
 0001:000022c0       ??$_Destroy_range@PAV?$_List_unchecked_iterator@V?$_List_val@U?$_List_simple_types@U?$pair@$$CBIUanimation_info@c_animation_system@@@std@@@std@@@std@@@std@@@std@@YAXPAV?$_List_unchecked_iterator@V?$_List_val@U?$_List_simple_types@U?$pair@$$CBIUanimation_info@c_animation_system@@@std@@@std@@@std@@@0@QAV10@@Z 100032c0 f i aimbot_recode.obj
 0001:000022c0       ??$_Adl_verify_range@PAV?$_List_unchecked_iterator@V?$_List_val@U?$_List_simple_types@U?$pair@$$CBIVc_font@@@std@@@std@@@std@@@std@@PAV12@@std@@YAXABQAV?$_List_unchecked_iterator@V?$_List_val@U?$_List_simple_types@U?$pair@$$CBIVc_font@@@std@@@std@@@std@@@0@0@Z 100032c0 f i c_renderer.obj
 0001:000022c0       ??$_Adl_verify_range@V?$_Vector_iterator@V?$_Vector_val@U?$_Simple_types@U?$pair@PAVc_cs_player@@M@std@@@std@@@std@@@std@@V12@@std@@YAXABV?$_Vector_iterator@V?$_Vector_val@U?$_Simple_types@U?$pair@PAVc_cs_player@@M@std@@@std@@@std@@@0@0@Z 100032c0 f i c_chams.obj
 0001:000022d0       ??$_Fgetc@D@std@@YA_NAADPAU_iobuf@@@Z 100032d0 f i dll.obj
 0001:00002300       ??$_Fputc@D@std@@YA_NDPAU_iobuf@@@Z 10003300 f i dll.obj
 0001:00002340       ??$_Get_size_of_n@$00@std@@YAII@Z 10003340 f i dll.obj
 0001:00002350       ??$_Max_value@I@std@@YAABIABI0@Z 10003350 f i dll.obj
 0001:00002350       ??$_Max_value@PAD@std@@YAABQADABQAD0@Z 10003350 f i c_menu.obj
 0001:00002380       ??$_Min_value@I@std@@YAABIABI0@Z 10003380 f i dll.obj
 0001:000023b0       ??$_Reallocate_grow_by@V<lambda_1>@?1??push_back@?$basic_string@DU?$char_traits@D@std@@V?$allocator@D@2@@std@@QAEXD@Z@D@?$basic_string@DU?$char_traits@D@std@@V?$allocator@D@2@@std@@AAEAAV01@IV<lambda_1>@?1??push_back@01@QAEXD@Z@D@Z 100033b0 f i dll.obj
 0001:000024d0       ??$move@AAD@std@@YA$$QADAAD@Z 100034d0 f i c_menu.obj
 0001:000024d0       ??$_Unfancy@W4hitbox@c_cs_player@@@std@@YAPAW4hitbox@c_cs_player@@PAW412@@Z 100034d0 f i aimbot_recode.obj
 0001:000024d0       ??$_Get_unwrapped@Uplayer_info@c_esp@@@std@@YAPAUplayer_info@c_esp@@QAU12@@Z 100034d0 f i c_esp.obj
 0001:000024d0       ??$forward@ABV?$allocator@U?$pair@$$CBIUnetvar@c_netvar@@@std@@@std@@@std@@YAABV?$allocator@U?$pair@$$CBIUnetvar@c_netvar@@@std@@@0@ABV10@@Z 100034d0 f i aimbot_recode.obj
 0001:000024d0       ?select_on_container_copy_construction@?$_Default_allocator_traits@V?$allocator@M@std@@@std@@SA?AV?$allocator@M@2@ABV32@@Z 100034d0 f i c_renderer.obj
 0001:000024d0       ??$forward@ABUrage_conf@config_conf@c_config@@@std@@YAABUrage_conf@config_conf@c_config@@ABU123@@Z 100034d0 f i c_menu.obj
 0001:000024d0       ??$_Unfancy@$$CBD@std@@YAPBDPBD@Z 100034d0 f i aimbot_recode.obj
 0001:000024d0       ??$forward@PAU?$_Tree_node@U?$pair@$$CBV?$basic_string@DU?$char_traits@D@std@@V?$allocator@D@2@@std@@V?$basic_json@Vmap@std@@Vvector@2@V?$basic_string@DU?$char_traits@D@std@@V?$allocator@D@2@@2@_N_J_KNVallocator@2@Uadl_serializer@nlohmann@@@nlohmann@@@std@@PAX@std@@@std@@YA$$QAPAU?$_Tree_node@U?$pair@$$CBV?$basic_string@DU?$char_traits@D@std@@V?$allocator@D@2@@std@@V?$basic_json@Vmap@std@@Vvector@2@V?$basic_string@DU?$char_traits@D@std@@V?$allocator@D@2@@2@_N_J_KNVallocator@2@Uadl_serializer@nlohmann@@@nlohmann@@@std@@PAX@0@AAPAU10@@Z 100034d0 f i c_menu.obj
 0001:000024d0       ??$move@AAV?$tuple@MMM@std@@@std@@YA$$QAV?$tuple@MMM@0@AAV10@@Z 100034d0 f i c_aimhelper.obj
 0001:000024d0       ??$addressof@U?$pair@$$CBIUnetvar@c_netvar@@@std@@@std@@YAPAU?$pair@$$CBIUnetvar@c_netvar@@@0@AAU10@@Z 100034d0 f i DLLMain.obj
 0001:000024d0       ??$_Kfn@$$CBIV?$unordered_map@IUnetvar@c_netvar@@U?$hash@I@std@@U?$equal_to@I@4@V?$allocator@U?$pair@$$CBIUnetvar@c_netvar@@@std@@@4@@std@@@?$_Umap_traits@IV?$unordered_map@IUnetvar@c_netvar@@U?$hash@I@std@@U?$equal_to@I@4@V?$allocator@U?$pair@$$CBIUnetvar@c_netvar@@@std@@@4@@std@@V?$_Uhash_compare@IU?$hash@I@std@@U?$equal_to@I@2@@2@V?$allocator@U?$pair@$$CBIV?$unordered_map@IUnetvar@c_netvar@@U?$hash@I@std@@U?$equal_to@I@4@V?$allocator@U?$pair@$$CBIUnetvar@c_netvar@@@std@@@4@@std@@@std@@@2@$0A@@std@@SAABIABU?$pair@$$CBIV?$unordered_map@IUnetvar@c_netvar@@U?$hash@I@std@@U?$equal_to@I@4@V?$allocator@U?$pair@$$CBIUnetvar@c_netvar@@@std@@@4@@std@@@1@@Z 100034d0 f i aimbot_recode.obj
 0001:000024d0       ??$move@AAUCIncomingSequence@@@std@@YA$$QAUCIncomingSequence@@AAU1@@Z 100034d0 f i c_net_channel_.obj
 0001:000024d0       ??$forward@AAVImConsoleTextItem@@@std@@YAAAVImConsoleTextItem@@AAV1@@Z 100034d0 f i ImConsole.obj
 0001:000024d0       ??$forward@AAPAVc_renderer@@@std@@YAAAPAVc_renderer@@AAPAV1@@Z 100034d0 f i idirect3ddevice9.obj
 0001:000024d0       ??$addressof@Uweapon_conf@rage_conf@config_conf@c_config@@@std@@YAPAUweapon_conf@rage_conf@config_conf@c_config@@AAU1234@@Z 100034d0 f i c_indicators.obj
 0001:000024d0       ??$addressof@V?$_String_val@U?$_Simple_types@D@std@@@std@@@std@@YAPAV?$_String_val@U?$_Simple_types@D@std@@@0@AAV10@@Z 100034d0 f i aimbot_recode.obj
 0001:000024d0       ??$forward@AAV?$tuple@Vc_vector3d@@MPAUanimation@c_animation_system@@M@std@@@std@@YAAAV?$tuple@Vc_vector3d@@MPAUanimation@c_animation_system@@M@0@AAV10@@Z 100034d0 f i c_aimhelper.obj
 0001:000024d0       ??$forward@PAVc_client_entity@@@std@@YA$$QAPAVc_client_entity@@AAPAV1@@Z 100034d0 f i c_esp.obj
 0001:000024d0       ??$forward@V?$tuple@$$QAI@std@@@std@@YA$$QAV?$tuple@$$QAI@0@AAV10@@Z 100034d0 f i aimbot_recode.obj
 0001:000024d0       ??$_Pass_fn@V<lambda_2>@?1??for_each_player_fixed_z_order@c_client_entity_list@@QAEXV?$function@$$A6AXPAVc_cs_player@@@Z@std@@@Z@$0A@@std@@YA?AV<lambda_2>@?1??for_each_player_fixed_z_order@c_client_entity_list@@QAEXV?$function@$$A6AXPAVc_cs_player@@@Z@0@@Z@V1?1??23@QAEX0@Z@@Z 100034d0 f i c_chams.obj
 0001:000024d0       ??$forward@V?$allocator@D@std@@@std@@YA$$QAV?$allocator@D@0@AAV10@@Z 100034d0 f i aimbot_recode.obj
 0001:000024d0       ??$forward@ABUlegit_conf@config_conf@c_config@@@std@@YAABUlegit_conf@config_conf@c_config@@ABU123@@Z 100034d0 f i c_menu.obj
 0001:000024d0       ??$forward@V?$vector@MV?$allocator@M@std@@@std@@@std@@YA$$QAV?$vector@MV?$allocator@M@std@@@0@AAV10@@Z 100034d0 f i c_font.obj
 0001:000024d0       ??$forward@Uaim_info@c_aimhelper@@@std@@YA$$QAUaim_info@c_aimhelper@@AAU12@@Z 100034d0 f i c_aimhelper.obj
 0001:000024d0       ??$_Get_unwrapped@Uaim_info@c_aimhelper@@@std@@YAPAUaim_info@c_aimhelper@@QAU12@@Z 100034d0 f i c_aimhelper.obj
 0001:000024d0       ??$_Get_unwrapped@$$CBV?$basic_string@DU?$char_traits@D@std@@V?$allocator@D@2@@std@@@std@@YAPBV?$basic_string@DU?$char_traits@D@std@@V?$allocator@D@2@@0@QBV10@@Z 100034d0 f i c_miscellaneous.obj
 0001:000024d0       ??$forward@ABUimpact_info@@@std@@YAABUimpact_info@@ABU1@@Z 100034d0 f i c_hitmarker.obj
 0001:000024d0       ??$addressof@Uanimation@c_animation_system@@@std@@YAPAUanimation@c_animation_system@@AAU12@@Z 100034d0 f i c_animation_system.obj
 0001:000024d0       ??$addressof@$$CBV?$_Tree_val@U?$_Tree_simple_types@U?$pair@$$CBV?$basic_string@DU?$char_traits@D@std@@V?$allocator@D@2@@std@@V?$basic_json@Vmap@std@@Vvector@2@V?$basic_string@DU?$char_traits@D@std@@V?$allocator@D@2@@2@_N_J_KNVallocator@2@Uadl_serializer@nlohmann@@@nlohmann@@@std@@@std@@@std@@@std@@YAPBV?$_Tree_val@U?$_Tree_simple_types@U?$pair@$$CBV?$basic_string@DU?$char_traits@D@std@@V?$allocator@D@2@@std@@V?$basic_json@Vmap@std@@Vvector@2@V?$basic_string@DU?$char_traits@D@std@@V?$allocator@D@2@@2@_N_J_KNVallocator@2@Uadl_serializer@nlohmann@@@nlohmann@@@std@@@std@@@0@ABV10@@Z 100034d0 f i c_menu.obj
 0001:000024d0       ??$forward@PAVc_cs_player@@@std@@YA$$QAPAVc_cs_player@@AAPAV1@@Z 100034d0 f i aimbot_recode.obj
 0001:000024d0       ??$forward@AAUweapon_conf@rage_conf@config_conf@c_config@@@std@@YAAAUweapon_conf@rage_conf@config_conf@c_config@@AAU1234@@Z 100034d0 f i c_aimhelper.obj
 0001:000024d0       ??$forward@V?$allocator@V?$basic_json@Vmap@std@@Vvector@2@V?$basic_string@DU?$char_traits@D@std@@V?$allocator@D@2@@2@_N_J_KNVallocator@2@Uadl_serializer@nlohmann@@@nlohmann@@@std@@@std@@YA$$QAV?$allocator@V?$basic_json@Vmap@std@@Vvector@2@V?$basic_string@DU?$char_traits@D@std@@V?$allocator@D@2@@2@_N_J_KNVallocator@2@Uadl_serializer@nlohmann@@@nlohmann@@@0@AAV10@@Z 100034d0 f i c_menu.obj
 0001:000024d0       ??$addressof@$$CBV?$codecvt@DDU_Mbstatet@@@std@@@std@@YAPBV?$codecvt@DDU_Mbstatet@@@0@ABV10@@Z 100034d0 f i dll.obj
 0001:000024d0       ??$forward@V?$tuple@MPAUanimation@c_animation_system@@M@std@@@std@@YA$$QAV?$tuple@MPAUanimation@c_animation_system@@M@0@AAV10@@Z 100034d0 f i c_legitbot_beta.obj
 0001:000024d0       ??$forward@D@std@@YA$$QADAAD@Z 100034d0 f i c_menu.obj
 0001:000024d0       ??$forward@ABV?$allocator@U?$pair@V?$shared_ptr@Vc_drawable@@@std@@U?$pair@Vc_vector2d@@V1@@2@@std@@@std@@@std@@YAABV?$allocator@U?$pair@V?$shared_ptr@Vc_drawable@@@std@@U?$pair@Vc_vector2d@@V1@@2@@std@@@0@ABV10@@Z 100034d0 f i c_checkbox.obj
 0001:000024d0       ??$forward@ABUesp_conf@config_conf@c_config@@@std@@YAABUesp_conf@config_conf@c_config@@ABU123@@Z 100034d0 f i c_menu.obj
 0001:000024d0       ??$forward@M@std@@YA$$QAMAAM@Z 100034d0 f i aimbot_recode.obj
 0001:000024d0       ??$_Get_unwrapped@V?$_List_unchecked_iterator@V?$_List_val@U?$_List_simple_types@U?$pair@$$CBIVc_font@@@std@@@std@@@std@@@std@@@std@@YAPAV?$_List_unchecked_iterator@V?$_List_val@U?$_List_simple_types@U?$pair@$$CBIVc_font@@@std@@@std@@@std@@@0@QAV10@@Z 100034d0 f i c_renderer.obj
 0001:000024d0       ??$_Unfancy@V?$function@$$A6AXI@Z@std@@@std@@YAPAV?$function@$$A6AXI@Z@0@PAV10@@Z 100034d0 f i c_fake_ping.obj
 0001:000024d0       ??$addressof@V?$_Vector_val@U?$_Simple_types@Uhitmarker_info@@@std@@@std@@@std@@YAPAV?$_Vector_val@U?$_Simple_types@Uhitmarker_info@@@std@@@0@AAV10@@Z 100034d0 f i c_hitmarker.obj
 0001:000024d0       ??$_Get_unwrapped@U?$pair@V?$shared_ptr@Vc_drawable@@@std@@U?$pair@Vc_vector2d@@V1@@2@@std@@@std@@YAPAU?$pair@V?$shared_ptr@Vc_drawable@@@std@@U?$pair@Vc_vector2d@@V1@@2@@0@QAU10@@Z 100034d0 f i c_checkbox.obj
 0001:000024d0       ??$_Get_unwrapped_n@PAUanimation@c_animation_system@@H$0A@@std@@YAPAPAUanimation@c_animation_system@@QAPAU12@H@Z 100034d0 f i c_animation_system.obj
 0001:000024d0       ??$forward@ABI@std@@YAABIABI@Z 100034d0 f i c_animation_system.obj
 0001:000024d0       ??$forward@Unade_info@c_esp@@@std@@YA$$QAUnade_info@c_esp@@AAU12@@Z 100034d0 f i c_esp.obj
 0001:000024d0       ??$forward@Ushot@resolver@@@std@@YA$$QAUshot@resolver@@AAU12@@Z 100034d0 f i c_resolver.obj
 0001:000024d0       ??$addressof@$$CBV?$_Vector_val@U?$_Simple_types@V?$basic_json@Vmap@std@@Vvector@2@V?$basic_string@DU?$char_traits@D@std@@V?$allocator@D@2@@2@_N_J_KNVallocator@2@Uadl_serializer@nlohmann@@@nlohmann@@@std@@@std@@@std@@YAPBV?$_Vector_val@U?$_Simple_types@V?$basic_json@Vmap@std@@Vvector@2@V?$basic_string@DU?$char_traits@D@std@@V?$allocator@D@2@@2@_N_J_KNVallocator@2@Uadl_serializer@nlohmann@@@nlohmann@@@std@@@0@ABV10@@Z 100034d0 f i c_menu.obj
 0001:000024d0       ??$_Get_unwrapped@V?$vector@MV?$allocator@M@std@@@std@@@std@@YAPAV?$vector@MV?$allocator@M@std@@@0@QAV10@@Z 100034d0 f i c_font.obj
 0001:000024d0       ??$_Unfancy@PAUanimation@c_animation_system@@@std@@YAPAPAUanimation@c_animation_system@@PAPAU12@@Z 100034d0 f i c_aimhelper.obj
 0001:000024d0       ??$move@AAV<lambda_1>@?1??for_each_player_fixed_z_order@c_client_entity_list@@QAEXV?$function@$$A6AXPAVc_cs_player@@@Z@std@@@Z@@std@@YA$$QAV<lambda_1>@?1??for_each_player_fixed_z_order@c_client_entity_list@@QAEXV?$function@$$A6AXPAVc_cs_player@@@Z@0@@Z@AAV1?1??23@QAEX0@Z@@Z 100034d0 f i c_chams.obj
 0001:000024d0       ??$forward@ABQAD@std@@YAABQADABQAD@Z 100034d0 f i dll.obj
 0001:000024d0       ??$forward@V?$tuple@PAUanimation@c_animation_system@@M@std@@@std@@YA$$QAV?$tuple@PAUanimation@c_animation_system@@M@0@AAV10@@Z 100034d0 f i c_aimhelper.obj
 0001:000024d0       ??$move@AAM@std@@YA$$QAMAAM@Z 100034d0 f i c_chams.obj
 0001:000024d0       ??$forward@V<lambda_1>@?1??for_each_player_fixed_z_order@c_client_entity_list@@QAEXV?$function@$$A6AXPAVc_cs_player@@@Z@std@@@Z@@std@@YA$$QAV<lambda_1>@?1??for_each_player_fixed_z_order@c_client_entity_list@@QAEXV?$function@$$A6AXPAVc_cs_player@@@Z@0@@Z@AAV1?1??23@QAEX0@Z@@Z 100034d0 f i c_chams.obj
 0001:000024d0       ??$addressof@V?$_List_unchecked_iterator@V?$_List_val@U?$_List_simple_types@U?$pair@$$CBIV?$unordered_map@IUnetvar@c_netvar@@U?$hash@I@std@@U?$equal_to@I@4@V?$allocator@U?$pair@$$CBIUnetvar@c_netvar@@@std@@@4@@std@@@std@@@std@@@std@@@std@@@std@@YAPAV?$_List_unchecked_iterator@V?$_List_val@U?$_List_simple_types@U?$pair@$$CBIV?$unordered_map@IUnetvar@c_netvar@@U?$hash@I@std@@U?$equal_to@I@4@V?$allocator@U?$pair@$$CBIUnetvar@c_netvar@@@std@@@4@@std@@@std@@@std@@@std@@@0@AAV10@@Z 100034d0 f i aimbot_recode.obj
 0001:000024d0       ??$_Refancy@PAD$0A@@std@@YAPADPAD@Z 100034d0 f i aimbot_recode.obj
 0001:000024d0       ??$move@AAU?$default_delete@$$BY0A@I@std@@@std@@YA$$QAU?$default_delete@$$BY0A@I@0@AAU10@@Z 100034d0 f i cte_effects.obj
 0001:000024d0       ??$_Get_unwrapped@M@std@@YAPAMQAM@Z 100034d0 f i c_font.obj
 0001:000024d0       ??$move@AAPAVLua_Hook@@@std@@YA$$QAPAVLua_Hook@@AAPAV1@@Z 100034d0 f i LuaAPI.obj
 0001:000024d0       ??$_Get_unwrapped@V?$basic_json@Vmap@std@@Vvector@2@V?$basic_string@DU?$char_traits@D@std@@V?$allocator@D@2@@2@_N_J_KNVallocator@2@Uadl_serializer@nlohmann@@@nlohmann@@@std@@YAPAV?$basic_json@Vmap@std@@Vvector@2@V?$basic_string@DU?$char_traits@D@std@@V?$allocator@D@2@@2@_N_J_KNVallocator@2@Uadl_serializer@nlohmann@@@nlohmann@@QAV12@@Z 100034d0 f i c_menu.obj
 0001:000024d0       ??$_Unfancy@Ushot@resolver@@@std@@YAPAUshot@resolver@@PAU12@@Z 100034d0 f i aimbot_recode.obj
 0001:000024d0       ??$forward@AAPAU?$pair@PAVc_cs_player@@M@std@@@std@@YAAAPAU?$pair@PAVc_cs_player@@M@0@AAPAU10@@Z 100034d0 f i c_chams.obj
 0001:000024d0       ??$forward@ABU?$pair@V?$shared_ptr@Vc_drawable@@@std@@U?$pair@Vc_vector2d@@V1@@2@@std@@@std@@YAABU?$pair@V?$shared_ptr@Vc_drawable@@@std@@U?$pair@Vc_vector2d@@V1@@2@@0@ABU10@@Z 100034d0 f i c_checkbox.obj
 0001:000024d0       ??$move@AAUaim_info@c_aimhelper@@@std@@YA$$QAUaim_info@c_aimhelper@@AAU12@@Z 100034d0 f i c_aimhelper.obj
 0001:000024d0       ??$forward@V?$shared_ptr@Vc_drawable@@@std@@@std@@YA$$QAV?$shared_ptr@Vc_drawable@@@0@AAV10@@Z 100034d0 f i c_flow_layout.obj
 0001:000024d0       ??$forward@ABV<lambda_1>@?1???$create@V?$vector@V?$basic_json@Vmap@std@@Vvector@2@V?$basic_string@DU?$char_traits@D@std@@V?$allocator@D@2@@2@_N_J_KNVallocator@2@Uadl_serializer@nlohmann@@@nlohmann@@V?$allocator@V?$basic_json@Vmap@std@@Vvector@2@V?$basic_string@DU?$char_traits@D@std@@V?$allocator@D@2@@2@_N_J_KNVallocator@2@Uadl_serializer@nlohmann@@@nlohmann@@@std@@@std@@PBV?$json_ref@V?$basic_json@Vmap@std@@Vvector@2@V?$basic_string@DU?$char_traits@D@std@@V?$allocator@D@2@@2@_N_J_KNVallocator@2@Uadl_serializer@nlohmann@@@nlohmann@@@detail@nlohmann@@PBV345@@?$basic_json@Vmap@std@@Vvector@2@V?$basic_string@DU?$char_traits@D@std@@V?$allocator@D@2@@2@_N_J_KNVallocator@2@Uadl_serializer@nlohmann@@@nlohmann@@CAPAV?$vector@V?$basic_json@Vmap@std@@Vvector@2@V?$basic_string@DU?$char_traits@D@std@@V?$allocator@D@2@@2@_N_J_KNVallocator@2@Uadl_serializer@nlohmann@@@nlohmann@@V?$allocator@V?$basic_json@Vmap@std@@Vvector@2@V?$basic_string@DU?$char_traits@D@std@@V?$allocator@D@2@@2@_N_J_KNVallocator@2@Uadl_serializer@nlohmann@@@nlohmann@@@std@@@std@@$$QAPBV?$json_ref@V?$basic_json@Vmap@std@@Vvector@2@V?$basic_string@DU?$char_traits@D@std@@V?$allocator@D@2@@2@_N_J_KNVallocator@2@Uadl_serializer@nlohmann@@@nlohmann@@@detail@3@0@Z@@std@@YAABV<lambda_1>@?1???$create@V?$vector@V?$basic_json@Vmap@std@@Vvector@2@V?$basic_string@DU?$char_traits@D@std@@V?$allocator@D@2@@2@_N_J_KNVallocator@2@Uadl_serializer@nlohmann@@@nlohmann@@V?$allocator@V?$basic_json@Vmap@std@@Vvector@2@V?$basic_string@DU?$char_traits@D@std@@V?$allocator@D@2@@2@_N_J_KNVallocator@2@Uadl_serializer@nlohmann@@@nlohmann@@@std@@@std@@PBV?$json_ref@V?$basic_json@Vmap@std@@Vvector@2@V?$basic_string@DU?$char_traits@D@std@@V?$allocator@D@2@@2@_N_J_KNVallocator@2@Uadl_serializer@nlohmann@@@nlohmann@@@detail@nlohmann@@PBV345@@?$basic_json@Vmap@std@@Vvector@2@V?$basic_string@DU?$char_traits@D@std@@V?$allocator@D@2@@2@_N_J_KNVallocator@2@Uadl_serializer@nlohmann@@@nlohmann@@CAPAV?$vector@V?$basic_json@Vmap@std@@Vvector@2@V?$basic_string@DU?$char_traits@D@std@@V?$allocator@D@2@@2@_N_J_KNVallocator@2@Uadl_serializer@nlohmann@@@nlohmann@@V?$allocator@V?$basic_json@Vmap@std@@Vvector@2@V?$basic_string@DU?$char_traits@D@std@@V?$allocator@D@2@@2@_N_J_KNVallocator@2@Uadl_serializer@nlohmann@@@nlohmann@@@std@@@0@$$QAPBV?$json_ref@V?$basic_json@Vmap@std@@Vvector@2@V?$basic_string@DU?$char_traits@D@std@@V?$allocator@D@2@@2@_N_J_KNVallocator@2@Uadl_serializer@nlohmann@@@nlohmann@@@detail@3@0@Z@ABV1?1???$create@V?$vector@V?$basic_json@Vmap@std@@Vvector@2@V?$basic_string@DU?$char_traits@D@std@@V?$allocator@D@2@@2@_N_J_KNVallocator@2@Uadl_serializer@nlohmann@@@nlohmann@@V?$allocator@V?$basic_json@Vmap@std@@Vvector@2@V?$basic_string@DU?$char_traits@D@std@@V?$allocator@D@2@@2@_N_J_KNVallocator@2@Uadl_serializer@nlohmann@@@nlohmann@@@std@@@std@@PBV?$json_ref@V?$basic_json@Vmap@std@@Vvector@2@V?$basic_string@DU?$char_traits@D@std@@V?$allocator@D@2@@2@_N_J_KNVallocator@2@Uadl_serializer@nlohmann@@@nlohmann@@@detail@nlohmann@@PBV345@@23@CAPAV40@00@Z@@Z 100034d0 f i c_menu.obj
 0001:000024d0       ??$forward@ABV<lambda_1>@?1???$create@V?$basic_string@DU?$char_traits@D@std@@V?$allocator@D@2@@std@@V12@@?$basic_json@Vmap@std@@Vvector@2@V?$basic_string@DU?$char_traits@D@std@@V?$allocator@D@2@@2@_N_J_KNVallocator@2@Uadl_serializer@nlohmann@@@nlohmann@@CAPAV?$basic_string@DU?$char_traits@D@std@@V?$allocator@D@2@@std@@$$QAV45@@Z@@std@@YAABV<lambda_1>@?1???$create@V?$basic_string@DU?$char_traits@D@std@@V?$allocator@D@2@@std@@V12@@?$basic_json@Vmap@std@@Vvector@2@V?$basic_string@DU?$char_traits@D@std@@V?$allocator@D@2@@2@_N_J_KNVallocator@2@Uadl_serializer@nlohmann@@@nlohmann@@CAPAV?$basic_string@DU?$char_traits@D@std@@V?$allocator@D@2@@0@$$QAV40@@Z@ABV1?1???$create@V?$basic_string@DU?$char_traits@D@std@@V?$allocator@D@2@@std@@V12@@23@CAPAV40@0@Z@@Z 100034d0 f i c_menu.obj
 0001:000024d0       ??$forward@AAPAU?$_List_node@U?$pair@$$CBIUnetvar@c_netvar@@@std@@PAX@std@@@std@@YAAAPAU?$_List_node@U?$pair@$$CBIUnetvar@c_netvar@@@std@@PAX@0@AAPAU10@@Z 100034d0 f i aimbot_recode.obj
 0001:000024d0       ??$move@AAV?$allocator@Uaim_info@c_aimhelper@@@std@@@std@@YA$$QAV?$allocator@Uaim_info@c_aimhelper@@@0@AAV10@@Z 100034d0 f i c_aimhelper.obj
 0001:000024d0       ??$forward@V?$basic_json@Vmap@std@@Vvector@2@V?$basic_string@DU?$char_traits@D@std@@V?$allocator@D@2@@2@_N_J_KNVallocator@2@Uadl_serializer@nlohmann@@@nlohmann@@@std@@YA$$QAV?$basic_json@Vmap@std@@Vvector@2@V?$basic_string@DU?$char_traits@D@std@@V?$allocator@D@2@@2@_N_J_KNVallocator@2@Uadl_serializer@nlohmann@@@nlohmann@@AAV12@@Z 100034d0 f i c_menu.obj
 0001:000024d0       ??$forward@V?$allocator@Vc_vector3d@@@std@@@std@@YA$$QAV?$allocator@Vc_vector3d@@@0@AAV10@@Z 100034d0 f i c_resolver.obj
 0001:000024d0       ??$forward@PBV?$json_ref@V?$basic_json@Vmap@std@@Vvector@2@V?$basic_string@DU?$char_traits@D@std@@V?$allocator@D@2@@2@_N_J_KNVallocator@2@Uadl_serializer@nlohmann@@@nlohmann@@@detail@nlohmann@@@std@@YA$$QAPBV?$json_ref@V?$basic_json@Vmap@std@@Vvector@2@V?$basic_string@DU?$char_traits@D@std@@V?$allocator@D@2@@2@_N_J_KNVallocator@2@Uadl_serializer@nlohmann@@@nlohmann@@@detail@nlohmann@@AAPBV123@@Z 100034d0 f i c_menu.obj
 0001:000024d0       ??$_Get_unwrapped@Udamage_infos@@@std@@YAPAUdamage_infos@@QAU1@@Z 100034d0 f i c_esp.obj
 0001:000024d0       ??$_Get_unwrapped_n@Vc_vector3d@@H$0A@@std@@YAPAVc_vector3d@@QAV1@H@Z 100034d0 f i c_esp.obj
 0001:000024d0       ??$addressof@$$CBV?$vector@V?$basic_string@DU?$char_traits@D@std@@V?$allocator@D@2@@std@@V?$allocator@V?$basic_string@DU?$char_traits@D@std@@V?$allocator@D@2@@std@@@2@@std@@@std@@YAPBV?$vector@V?$basic_string@DU?$char_traits@D@std@@V?$allocator@D@2@@std@@V?$allocator@V?$basic_string@DU?$char_traits@D@std@@V?$allocator@D@2@@std@@@2@@0@ABV10@@Z 100034d0 f i loki_menu.obj
 0001:000024d0       ??$forward@ABUhitmarker_info@@@std@@YAABUhitmarker_info@@ABU1@@Z 100034d0 f i c_hitmarker.obj
 0001:000024d0       ??$forward@ABQAU?$_List_node@U?$pair@$$CBIV?$unordered_map@IUnetvar@c_netvar@@U?$hash@I@std@@U?$equal_to@I@4@V?$allocator@U?$pair@$$CBIUnetvar@c_netvar@@@std@@@4@@std@@@std@@PAX@std@@@std@@YAABQAU?$_List_node@U?$pair@$$CBIV?$unordered_map@IUnetvar@c_netvar@@U?$hash@I@std@@U?$equal_to@I@4@V?$allocator@U?$pair@$$CBIUnetvar@c_netvar@@@std@@@4@@std@@@std@@PAX@0@ABQAU10@@Z 100034d0 f i aimbot_recode.obj
 0001:000024d0       ??$forward@ABUchams_conf@config_conf@c_config@@@std@@YAABUchams_conf@config_conf@c_config@@ABU123@@Z 100034d0 f i c_menu.obj
 0001:000024d0       ??$move@AAV?$allocator@M@std@@@std@@YA$$QAV?$allocator@M@0@AAV10@@Z 100034d0 f i c_font.obj
 0001:000024d0       ??$addressof@PAU?$_List_node@U?$pair@$$CBIPAVCD3DFont@@@std@@PAX@std@@@std@@YAPAPAU?$_List_node@U?$pair@$$CBIPAVCD3DFont@@@std@@PAX@0@AAPAU10@@Z 100034d0 f i c_renderer.obj
 0001:000024d0       ??$addressof@V?$output_string_adapter@DV?$basic_string@DU?$char_traits@D@std@@V?$allocator@D@2@@std@@@detail@nlohmann@@@std@@YAPAV?$output_string_adapter@DV?$basic_string@DU?$char_traits@D@std@@V?$allocator@D@2@@std@@@detail@nlohmann@@AAV123@@Z 100034d0 f i c_menu.obj
 0001:000024d0       ??$forward@U?$_Optional_construct_base@V?$tuple@Vc_vector3d@@MPAUanimation@c_animation_system@@M@std@@@std@@@std@@YA$$QAU?$_Optional_construct_base@V?$tuple@Vc_vector3d@@MPAUanimation@c_animation_system@@M@std@@@0@AAU10@@Z 100034d0 f i c_legitbot_beta.obj
 0001:000024d0       ??$forward@W4parse_event_t@?$parser@V?$basic_json@Vmap@std@@Vvector@2@V?$basic_string@DU?$char_traits@D@std@@V?$allocator@D@2@@2@_N_J_KNVallocator@2@Uadl_serializer@nlohmann@@@nlohmann@@@detail@nlohmann@@@std@@YA$$QAW4parse_event_t@?$parser@V?$basic_json@Vmap@std@@Vvector@2@V?$basic_string@DU?$char_traits@D@std@@V?$allocator@D@2@@2@_N_J_KNVallocator@2@Uadl_serializer@nlohmann@@@nlohmann@@@detail@nlohmann@@AAW41234@@Z 100034d0 f i c_menu.obj
 0001:000024d0       ??$forward@U?$pair@Vc_vector2d@@V1@@std@@@std@@YA$$QAU?$pair@Vc_vector2d@@V1@@0@AAU10@@Z 100034d0 f i c_flow_layout.obj
 0001:000024d0       ??$forward@V?$allocator@V?$basic_string@DU?$char_traits@D@std@@V?$allocator@D@2@@std@@@std@@@std@@YA$$QAV?$allocator@V?$basic_string@DU?$char_traits@D@std@@V?$allocator@D@2@@std@@@0@AAV10@@Z 100034d0 f i ImConsole.obj
 0001:000024d0       ??$forward@ABQAU?$_List_node@U?$pair@$$CBIUnetvar@c_netvar@@@std@@PAX@std@@@std@@YAABQAU?$_List_node@U?$pair@$$CBIUnetvar@c_netvar@@@std@@PAX@0@ABQAU10@@Z 100034d0 f i aimbot_recode.obj
 0001:000024d0       ??$forward@ABV?$allocator@U?$pair@$$CBIV?$unordered_map@IUnetvar@c_netvar@@U?$hash@I@std@@U?$equal_to@I@4@V?$allocator@U?$pair@$$CBIUnetvar@c_netvar@@@std@@@4@@std@@@std@@@std@@@std@@YAABV?$allocator@U?$pair@$$CBIV?$unordered_map@IUnetvar@c_netvar@@U?$hash@I@std@@U?$equal_to@I@4@V?$allocator@U?$pair@$$CBIUnetvar@c_netvar@@@std@@@4@@std@@@std@@@0@ABV10@@Z 100034d0 f i c_netvar.obj
 0001:000024d0       ??$forward@ABQAU?$_Tree_node@U?$pair@$$CBV?$basic_string@DU?$char_traits@D@std@@V?$allocator@D@2@@std@@V?$basic_json@Vmap@std@@Vvector@2@V?$basic_string@DU?$char_traits@D@std@@V?$allocator@D@2@@2@_N_J_KNVallocator@2@Uadl_serializer@nlohmann@@@nlohmann@@@std@@PAX@std@@@std@@YAABQAU?$_Tree_node@U?$pair@$$CBV?$basic_string@DU?$char_traits@D@std@@V?$allocator@D@2@@std@@V?$basic_json@Vmap@std@@Vvector@2@V?$basic_string@DU?$char_traits@D@std@@V?$allocator@D@2@@2@_N_J_KNVallocator@2@Uadl_serializer@nlohmann@@@nlohmann@@@std@@PAX@0@ABQAU10@@Z 100034d0 f i c_menu.obj
 0001:000024d0       ??$move@AAV?$allocator@PAUanimation@c_animation_system@@@std@@@std@@YA$$QAV?$allocator@PAUanimation@c_animation_system@@@0@AAV10@@Z 100034d0 f i c_aimhelper.obj
 0001:000024d0       ??$addressof@V?$_List_unchecked_iterator@V?$_List_val@U?$_List_simple_types@U?$pair@$$CBIPAVCD3DFont@@@std@@@std@@@std@@@std@@@std@@YAPAV?$_List_unchecked_iterator@V?$_List_val@U?$_List_simple_types@U?$pair@$$CBIPAVCD3DFont@@@std@@@std@@@std@@@0@AAV10@@Z 100034d0 f i c_renderer.obj
 0001:000024d0       ??$forward@UCIncomingSequence@@@std@@YA$$QAUCIncomingSequence@@AAU1@@Z 100034d0 f i c_net_channel_.obj
 0001:000024d0       ??$forward@Uplayer_info@c_esp@@@std@@YA$$QAUplayer_info@c_esp@@AAU12@@Z 100034d0 f i c_esp.obj
 0001:000024d0       ??$move@AAV?$_Deque_iterator@V?$_Deque_val@U?$_Deque_simple_types@Ushot@resolver@@@std@@@std@@@std@@@std@@YA$$QAV?$_Deque_iterator@V?$_Deque_val@U?$_Deque_simple_types@Ushot@resolver@@@std@@@std@@@0@AAV10@@Z 100034d0 f i c_resolver.obj
 0001:000024d0       ??$forward@ABUweapon_conf@rage_conf@config_conf@c_config@@@std@@YAABUweapon_conf@rage_conf@config_conf@c_config@@ABU1234@@Z 100034d0 f i c_menu.obj
 0001:000024d0       ??$forward@AAV?$vector@MV?$allocator@M@std@@@std@@@std@@YAAAV?$vector@MV?$allocator@M@std@@@0@AAV10@@Z 100034d0 f i c_renderer.obj
 0001:000024d0       ??$_Unfancy@U?$pair@PAVc_cs_player@@M@std@@@std@@YAPAU?$pair@PAVc_cs_player@@M@0@PAU10@@Z 100034d0 f i c_chams.obj
 0001:000024d0       ?select_on_container_copy_construction@?$_Default_allocator_traits@V?$allocator@U?$_Tree_node@U?$pair@$$CBV?$basic_string@DU?$char_traits@D@std@@V?$allocator@D@2@@std@@V?$basic_json@Vmap@std@@Vvector@2@V?$basic_string@DU?$char_traits@D@std@@V?$allocator@D@2@@2@_N_J_KNVallocator@2@Uadl_serializer@nlohmann@@@nlohmann@@@std@@PAX@std@@@std@@@std@@SA?AV?$allocator@U?$_Tree_node@U?$pair@$$CBV?$basic_string@DU?$char_traits@D@std@@V?$allocator@D@2@@std@@V?$basic_json@Vmap@std@@Vvector@2@V?$basic_string@DU?$char_traits@D@std@@V?$allocator@D@2@@2@_N_J_KNVallocator@2@Uadl_serializer@nlohmann@@@nlohmann@@@std@@PAX@std@@@2@ABV32@@Z 100034d0 f i c_menu.obj
 0001:000024d0       ??$_Get_unwrapped@V?$_List_unchecked_iterator@V?$_List_val@U?$_List_simple_types@U?$pair@$$CBIUanimation_info@c_animation_system@@@std@@@std@@@std@@@std@@@std@@YAPAV?$_List_unchecked_iterator@V?$_List_val@U?$_List_simple_types@U?$pair@$$CBIUanimation_info@c_animation_system@@@std@@@std@@@std@@@0@QAV10@@Z 100034d0 f i aimbot_recode.obj
 0001:000024d0       ??$forward@V?$tuple@PAUanimation@c_animation_system@@MH@std@@@std@@YA$$QAV?$tuple@PAUanimation@c_animation_system@@MH@0@AAV10@@Z 100034d0 f i c_aimhelper.obj
 0001:000024d0       ??$addressof@V?$_Tree_val@U?$_Tree_simple_types@U?$pair@$$CBV?$basic_string@DU?$char_traits@D@std@@V?$allocator@D@2@@std@@V?$basic_json@Vmap@std@@Vvector@2@V?$basic_string@DU?$char_traits@D@std@@V?$allocator@D@2@@2@_N_J_KNVallocator@2@Uadl_serializer@nlohmann@@@nlohmann@@@std@@@std@@@std@@@std@@YAPAV?$_Tree_val@U?$_Tree_simple_types@U?$pair@$$CBV?$basic_string@DU?$char_traits@D@std@@V?$allocator@D@2@@std@@V?$basic_json@Vmap@std@@Vvector@2@V?$basic_string@DU?$char_traits@D@std@@V?$allocator@D@2@@2@_N_J_KNVallocator@2@Uadl_serializer@nlohmann@@@nlohmann@@@std@@@std@@@0@AAV10@@Z 100034d0 f i c_menu.obj
 0001:000024d0       ??$get@$01Vc_vector3d@@PAUanimation@c_animation_system@@M@std@@YAAAMAAV?$tuple@Vc_vector3d@@PAUanimation@c_animation_system@@M@0@@Z 100034d0 f i c_aimhelper.obj
 0001:000024d0       ??$move@AAUdamage_infos@@@std@@YA$$QAUdamage_infos@@AAU1@@Z 100034d0 f i c_esp.obj
 0001:000024d0       ??$forward@ABV?$_List_unchecked_iterator@V?$_List_val@U?$_List_simple_types@U?$pair@$$CBIV?$unordered_map@IUnetvar@c_netvar@@U?$hash@I@std@@U?$equal_to@I@4@V?$allocator@U?$pair@$$CBIUnetvar@c_netvar@@@std@@@4@@std@@@std@@@std@@@std@@@std@@@std@@YAABV?$_List_unchecked_iterator@V?$_List_val@U?$_List_simple_types@U?$pair@$$CBIV?$unordered_map@IUnetvar@c_netvar@@U?$hash@I@std@@U?$equal_to@I@4@V?$allocator@U?$pair@$$CBIUnetvar@c_netvar@@@std@@@4@@std@@@std@@@std@@@std@@@0@ABV10@@Z 100034d0 f i aimbot_recode.obj
 0001:000024d0       ??$forward@AAPAUanimation@c_animation_system@@@std@@YAAAPAUanimation@c_animation_system@@AAPAU12@@Z 100034d0 f i c_aimhelper.obj
 0001:000024d0       ??$forward@AAPAU?$_List_node@U?$pair@QAVc_hotkey_select@@V?$function@$$A6AXI@Z@std@@@std@@PAX@std@@@std@@YAAAPAU?$_List_node@U?$pair@QAVc_hotkey_select@@V?$function@$$A6AXI@Z@std@@@std@@PAX@0@AAPAU10@@Z 100034d0 f i c_hotkeys.obj
 0001:000024d0       ??$move@AAVImConsoleTextItem@@@std@@YA$$QAVImConsoleTextItem@@AAV1@@Z 100034d0 f i ImConsole.obj
 0001:000024d0       ??$addressof@$$CBV?$_Deque_val@U?$_Deque_simple_types@Ushot@resolver@@@std@@@std@@@std@@YAPBV?$_Deque_val@U?$_Deque_simple_types@Ushot@resolver@@@std@@@0@ABV10@@Z 100034d0 f i c_resolver.obj
 0001:000024d0       ??$forward@U?$pair@PAVc_cs_player@@M@std@@@std@@YA$$QAU?$pair@PAVc_cs_player@@M@0@AAU10@@Z 100034d0 f i c_chams.obj
 0001:000024d0       ??$forward@V?$_Tree_iterator@V?$_Tree_val@U?$_Tree_simple_types@U?$pair@$$CBV?$basic_string@DU?$char_traits@D@std@@V?$allocator@D@2@@std@@V?$basic_json@Vmap@std@@Vvector@2@V?$basic_string@DU?$char_traits@D@std@@V?$allocator@D@2@@2@_N_J_KNVallocator@2@Uadl_serializer@nlohmann@@@nlohmann@@@std@@@std@@@std@@@std@@@std@@YA$$QAV?$_Tree_iterator@V?$_Tree_val@U?$_Tree_simple_types@U?$pair@$$CBV?$basic_string@DU?$char_traits@D@std@@V?$allocator@D@2@@std@@V?$basic_json@Vmap@std@@Vvector@2@V?$basic_string@DU?$char_traits@D@std@@V?$allocator@D@2@@2@_N_J_KNVallocator@2@Uadl_serializer@nlohmann@@@nlohmann@@@std@@@std@@@std@@@0@AAV10@@Z 100034d0 f i c_menu.obj
 0001:000024d0       ??$addressof@V?$_List_unchecked_iterator@V?$_List_val@U?$_List_simple_types@U?$pair@QAVc_hotkey_select@@V?$function@$$A6AXI@Z@std@@@std@@@std@@@std@@@std@@@std@@YAPAV?$_List_unchecked_iterator@V?$_List_val@U?$_List_simple_types@U?$pair@QAVc_hotkey_select@@V?$function@$$A6AXI@Z@std@@@std@@@std@@@std@@@0@AAV10@@Z 100034d0 f i c_hotkeys.obj
 0001:000024d0       ??$forward@ABUchams@chams_conf@config_conf@c_config@@@std@@YAABUchams@chams_conf@config_conf@c_config@@ABU1234@@Z 100034d0 f i c_menu.obj
 0001:000024d0       ??$forward@H@std@@YA$$QAHAAH@Z 100034d0 f i aimbot_recode.obj
 0001:000024d0       ??$addressof@V?$_Vector_val@U?$_Simple_types@U?$pair@V?$shared_ptr@Vc_drawable@@@std@@U?$pair@Vc_vector2d@@V1@@2@@std@@@std@@@std@@@std@@YAPAV?$_Vector_val@U?$_Simple_types@U?$pair@V?$shared_ptr@Vc_drawable@@@std@@U?$pair@Vc_vector2d@@V1@@2@@std@@@std@@@0@AAV10@@Z 100034d0 f i c_flow_layout.obj
 0001:000024d0       ??$forward@ABV<lambda_1>@?1??for_each_player_fixed_z_order@c_client_entity_list@@QAEXV?$function@$$A6AXPAVc_cs_player@@@Z@std@@@Z@@std@@YAABV<lambda_1>@?1??for_each_player_fixed_z_order@c_client_entity_list@@QAEXV?$function@$$A6AXPAVc_cs_player@@@Z@0@@Z@ABV1?1??23@QAEX0@Z@@Z 100034d0 f i c_chams.obj
 0001:000024d0       ??$forward@V?$allocator@V?$vector@MV?$allocator@M@std@@@std@@@std@@@std@@YA$$QAV?$allocator@V?$vector@MV?$allocator@M@std@@@std@@@0@AAV10@@Z 100034d0 f i c_renderer.obj
 0001:000024d0       ??$forward@V?$allocator@H@std@@@std@@YA$$QAV?$allocator@H@0@AAV10@@Z 100034d0 f i aimbot_recode.obj
 0001:000024d0       ??$forward@V?$tuple@$$V@std@@@std@@YA$$QAV?$tuple@$$V@0@AAV10@@Z 100034d0 f i aimbot_recode.obj
 0001:000024d0       ??$addressof@$$CBV?$_Deque_val@U?$_Deque_simple_types@Uanimation@c_animation_system@@@std@@@std@@@std@@YAPBV?$_Deque_val@U?$_Deque_simple_types@Uanimation@c_animation_system@@@std@@@0@ABV10@@Z 100034d0 f i c_animation_system.obj
 0001:000024d0       ??$move@AAUplayer_info@c_esp@@@std@@YA$$QAUplayer_info@c_esp@@AAU12@@Z 100034d0 f i c_esp.obj
 0001:000024d0       ??$forward@ABQAU?$_Tree_node@U?$pair@$$CBHH@std@@PAX@std@@@std@@YAABQAU?$_Tree_node@U?$pair@$$CBHH@std@@PAX@0@ABQAU10@@Z 100034d0 f i c_prediction_.obj
 0001:000024d0       ??$addressof@V?$_List_unchecked_iterator@V?$_List_val@U?$_List_simple_types@U?$pair@$$CBIUanimation_info@c_animation_system@@@std@@@std@@@std@@@std@@@std@@YAPAV?$_List_unchecked_iterator@V?$_List_val@U?$_List_simple_types@U?$pair@$$CBIUanimation_info@c_animation_system@@@std@@@std@@@std@@@0@AAV10@@Z 100034d0 f i aimbot_recode.obj
 0001:000024d0       ??$forward@ABU?$pair@$$CBHH@std@@@std@@YAABU?$pair@$$CBHH@0@ABU10@@Z 100034d0 f i c_prediction_.obj
 0001:000024d0       ??$forward@AAPAU?$_Tree_node@U?$pair@$$CBV?$basic_string@DU?$char_traits@D@std@@V?$allocator@D@2@@std@@V?$basic_json@Vmap@std@@Vvector@2@V?$basic_string@DU?$char_traits@D@std@@V?$allocator@D@2@@2@_N_J_KNVallocator@2@Uadl_serializer@nlohmann@@@nlohmann@@@std@@PAX@std@@@std@@YAAAPAU?$_Tree_node@U?$pair@$$CBV?$basic_string@DU?$char_traits@D@std@@V?$allocator@D@2@@std@@V?$basic_json@Vmap@std@@Vvector@2@V?$basic_string@DU?$char_traits@D@std@@V?$allocator@D@2@@2@_N_J_KNVallocator@2@Uadl_serializer@nlohmann@@@nlohmann@@@std@@PAX@0@AAPAU10@@Z 100034d0 f i c_menu.obj
 0001:000024d0       ??$move@AAV?$shared_ptr@Uinput_adapter_protocol@detail@nlohmann@@@std@@@std@@YA$$QAV?$shared_ptr@Uinput_adapter_protocol@detail@nlohmann@@@0@AAV10@@Z 100034d0 f i c_menu.obj
 0001:000024d0       ??$forward@AAU?$pair@$$CBV?$basic_string@DU?$char_traits@D@std@@V?$allocator@D@2@@std@@V?$basic_json@Vmap@std@@Vvector@2@V?$basic_string@DU?$char_traits@D@std@@V?$allocator@D@2@@2@_N_J_KNVallocator@2@Uadl_serializer@nlohmann@@@nlohmann@@@std@@@std@@YAAAU?$pair@$$CBV?$basic_string@DU?$char_traits@D@std@@V?$allocator@D@2@@std@@V?$basic_json@Vmap@std@@Vvector@2@V?$basic_string@DU?$char_traits@D@std@@V?$allocator@D@2@@2@_N_J_KNVallocator@2@Uadl_serializer@nlohmann@@@nlohmann@@@0@AAU10@@Z 100034d0 f i c_menu.obj
 0001:000024d0       ??$_Unfancy@V?$function@$$A6AXXZ@std@@@std@@YAPAV?$function@$$A6AXXZ@0@PAV10@@Z 100034d0 f i c_damageesp.obj
 0001:000024d0       ??$forward@V?$allocator@Uanimation@c_animation_system@@@std@@@std@@YA$$QAV?$allocator@Uanimation@c_animation_system@@@0@AAV10@@Z 100034d0 f i c_animation_system.obj
 0001:000024d0       ??$addressof@$$CBU?$pair@$$CBV?$basic_string@DU?$char_traits@D@std@@V?$allocator@D@2@@std@@V?$basic_json@Vmap@std@@Vvector@2@V?$basic_string@DU?$char_traits@D@std@@V?$allocator@D@2@@2@_N_J_KNVallocator@2@Uadl_serializer@nlohmann@@@nlohmann@@@std@@@std@@YAPBU?$pair@$$CBV?$basic_string@DU?$char_traits@D@std@@V?$allocator@D@2@@std@@V?$basic_json@Vmap@std@@Vvector@2@V?$basic_string@DU?$char_traits@D@std@@V?$allocator@D@2@@2@_N_J_KNVallocator@2@Uadl_serializer@nlohmann@@@nlohmann@@@0@ABU10@@Z 100034d0 f i c_menu.obj
 0001:000024d0       ??$forward@ABUplayer_info@c_esp@@@std@@YAABUplayer_info@c_esp@@ABU12@@Z 100034d0 f i c_esp.obj
 0001:000024d0       ??$forward@ABUnade_info@c_esp@@@std@@YAABUnade_info@c_esp@@ABU12@@Z 100034d0 f i c_esp.obj
 0001:000024d0       ??$addressof@V?$_List_unchecked_iterator@V?$_List_val@U?$_List_simple_types@U?$pair@$$CBIUnetvar@c_netvar@@@std@@@std@@@std@@@std@@@std@@YAPAV?$_List_unchecked_iterator@V?$_List_val@U?$_List_simple_types@U?$pair@$$CBIUnetvar@c_netvar@@@std@@@std@@@std@@@0@AAV10@@Z 100034d0 f i aimbot_recode.obj
 0001:000024d0       ??$_Get_unwrapped@VImConsoleTextItem@@@std@@YAPAVImConsoleTextItem@@QAV1@@Z 100034d0 f i ImConsole.obj
 0001:000024d0       ??$forward@V?$tuple@Vc_vector3d@@MPAUanimation@c_animation_system@@@std@@@std@@YA$$QAV?$tuple@Vc_vector3d@@MPAUanimation@c_animation_system@@@0@AAV10@@Z 100034d0 f i c_aimhelper.obj
 0001:000024d0       ??$addressof@V?$_Tree_val@U?$_Tree_simple_types@U?$pair@$$CBHH@std@@@std@@@std@@@std@@YAPAV?$_Tree_val@U?$_Tree_simple_types@U?$pair@$$CBHH@std@@@std@@@0@AAV10@@Z 100034d0 f i c_prediction_.obj
 0001:000024d0       ??$_Get_unwrapped@Unade_info@c_esp@@@std@@YAPAUnade_info@c_esp@@QAU12@@Z 100034d0 f i c_esp.obj
 0001:000024d0       ??$forward@ABUdamage_infos@@@std@@YAABUdamage_infos@@ABU1@@Z 100034d0 f i c_esp.obj
 0001:000024d0       ??$forward@ABVc_vector3d@@@std@@YAABVc_vector3d@@ABV1@@Z 100034d0 f i c_aimhelper.obj
 0001:000024d0       ??$forward@U?$less@X@std@@@std@@YA$$QAU?$less@X@0@AAU10@@Z 100034d0 f i c_menu.obj
 0001:000024d0       ??$addressof@$$CBV?$vector@V?$vector@MV?$allocator@M@std@@@std@@V?$allocator@V?$vector@MV?$allocator@M@std@@@std@@@2@@std@@@std@@YAPBV?$vector@V?$vector@MV?$allocator@M@std@@@std@@V?$allocator@V?$vector@MV?$allocator@M@std@@@std@@@2@@0@ABV10@@Z 100034d0 f i c_renderer.obj
 0001:000024d0       ??$_Kfn@QAVc_hotkey_select@@V?$function@$$A6AXI@Z@std@@@?$_Umap_traits@PAVc_hotkey_select@@V?$function@$$A6AXI@Z@std@@V?$_Uhash_compare@PAVc_hotkey_select@@U?$hash@PAVc_hotkey_select@@@std@@U?$equal_to@PAVc_hotkey_select@@@3@@3@V?$allocator@U?$pair@QAVc_hotkey_select@@V?$function@$$A6AXI@Z@std@@@std@@@3@$0A@@std@@SAABQAVc_hotkey_select@@ABU?$pair@QAVc_hotkey_select@@V?$function@$$A6AXI@Z@std@@@1@@Z 100034d0 f i c_hotkeys.obj
 0001:000024d0       ??$forward@Udamage_infos@@@std@@YA$$QAUdamage_infos@@AAU1@@Z 100034d0 f i c_esp.obj
 0001:000024d0       ??$_Get_unwrapped@PAUanimation@c_animation_system@@@std@@YAPAPAUanimation@c_animation_system@@QAPAU12@@Z 100034d0 f i c_animation_system.obj
 0001:000024d0       ??$forward@ABV<lambda_1>@?1???$create@V?$basic_string@DU?$char_traits@D@std@@V?$allocator@D@2@@std@@ABV12@@?$basic_json@Vmap@std@@Vvector@2@V?$basic_string@DU?$char_traits@D@std@@V?$allocator@D@2@@2@_N_J_KNVallocator@2@Uadl_serializer@nlohmann@@@nlohmann@@CAPAV?$basic_string@DU?$char_traits@D@std@@V?$allocator@D@2@@std@@ABV45@@Z@@std@@YAABV<lambda_1>@?1???$create@V?$basic_string@DU?$char_traits@D@std@@V?$allocator@D@2@@std@@ABV12@@?$basic_json@Vmap@std@@Vvector@2@V?$basic_string@DU?$char_traits@D@std@@V?$allocator@D@2@@2@_N_J_KNVallocator@2@Uadl_serializer@nlohmann@@@nlohmann@@CAPAV?$basic_string@DU?$char_traits@D@std@@V?$allocator@D@2@@0@ABV40@@Z@ABV1?1???$create@V?$basic_string@DU?$char_traits@D@std@@V?$allocator@D@2@@std@@ABV12@@23@CAPAV40@0@Z@@Z 100034d0 f i c_menu.obj
 0001:000024d0       ??$_Unfancy@VImConsoleTextItem@@@std@@YAPAVImConsoleTextItem@@PAV1@@Z 100034d0 f i ImConsole.obj
 0001:000024d0       ??$move@AAPAVc_drawable@@@std@@YA$$QAPAVc_drawable@@AAPAV1@@Z 100034d0 f i c_flow_layout.obj
 0001:000024d0       ??$forward@PAUanimation@c_animation_system@@@std@@YA$$QAPAUanimation@c_animation_system@@AAPAU12@@Z 100034d0 f i c_aimhelper.obj
 0001:000024d0       ??$forward@ABVc_color@@@std@@YAABVc_color@@ABV1@@Z 100034d0 f i c_menu.obj
 0001:000024d0       ??$get@$02Vc_vector3d@@MPAUanimation@c_animation_system@@M@std@@YAAAMAAV?$tuple@Vc_vector3d@@MPAUanimation@c_animation_system@@M@0@@Z 100034d0 f i c_legitbot_beta.obj
 0001:000024d0       ??$addressof@U?$pair@$$CBIUanimation_info@c_animation_system@@@std@@@std@@YAPAU?$pair@$$CBIUanimation_info@c_animation_system@@@0@AAU10@@Z 100034d0 f i aimbot_recode.obj
 0001:000024d0       ??$_Get_unwrapped@W4hitbox@c_cs_player@@@std@@YAPAW4hitbox@c_cs_player@@QAW412@@Z 100034d0 f i aimbot_recode.obj
 0001:000024d0       ??$forward@ABQAUanimation@c_animation_system@@@std@@YAABQAUanimation@c_animation_system@@ABQAU12@@Z 100034d0 f i c_aimhelper.obj
 0001:000024d0       ??$forward@V?$tuple@H@std@@@std@@YA$$QAV?$tuple@H@0@AAV10@@Z 100034d0 f i c_aimhelper.obj
 0001:000024d0       ??$forward@AAY00I@std@@YAAAY00IAAY00I@Z 100034d0 f i c_cs_player_.obj
 0001:000024d0       ??$forward@AAW4hitbox@c_cs_player@@@std@@YAAAW4hitbox@c_cs_player@@AAW412@@Z 100034d0 f i c_aimhelper.obj
 0001:000024d0       ??$_Refancy@PAH$0A@@std@@YAPAHPAH@Z 100034d0 f i grenade_prediction.obj
 0001:000024d0       ??$_Get_unwrapped@$$CBU?$pair@$$CBHH@std@@@std@@YAPBU?$pair@$$CBHH@0@QBU10@@Z 100034d0 f i c_prediction_.obj
 0001:000024d0       ??$get@$01MMM@std@@YAAAMAAV?$tuple@MMM@0@@Z 100034d0 f i c_aimhelper.obj
 0001:000024d0       ??$addressof@V?$basic_string@DU?$char_traits@D@std@@V?$allocator@D@2@@std@@@std@@YAPAV?$basic_string@DU?$char_traits@D@std@@V?$allocator@D@2@@0@AAV10@@Z 100034d0 f i c_menu.obj
 0001:000024d0       ??$addressof@$$CBV<lambda_1>@?1??for_each_player_fixed_z_order@c_client_entity_list@@QAEXV?$function@$$A6AXPAVc_cs_player@@@Z@std@@@Z@@std@@YAPBV<lambda_1>@?1??for_each_player_fixed_z_order@c_client_entity_list@@QAEXV?$function@$$A6AXPAVc_cs_player@@@Z@0@@Z@ABV1?1??23@QAEX0@Z@@Z 100034d0 f i c_chams.obj
 0001:000024d0       ??$forward@AAPAV?$basic_string@DU?$char_traits@D@std@@V?$allocator@D@2@@std@@@std@@YAAAPAV?$basic_string@DU?$char_traits@D@std@@V?$allocator@D@2@@0@AAPAV10@@Z 100034d0 f i c_menu.obj
 0001:000024d0       ??$move@AATjson_value@?$basic_json@Vmap@std@@Vvector@2@V?$basic_string@DU?$char_traits@D@std@@V?$allocator@D@2@@2@_N_J_KNVallocator@2@Uadl_serializer@nlohmann@@@nlohmann@@@std@@YA$$QATjson_value@?$basic_json@Vmap@std@@Vvector@2@V?$basic_string@DU?$char_traits@D@std@@V?$allocator@D@2@@2@_N_J_KNVallocator@2@Uadl_serializer@nlohmann@@@nlohmann@@AAT123@@Z 100034d0 f i c_menu.obj
 0001:000024d0       ??$forward@V?$function@$$A6AXI@Z@std@@@std@@YA$$QAV?$function@$$A6AXI@Z@0@AAV10@@Z 100034d0 f i c_hotkeys.obj
 0001:000024d0       ??$addressof@$$CBV?$vector@MV?$allocator@M@std@@@std@@@std@@YAPBV?$vector@MV?$allocator@M@std@@@0@ABV10@@Z 100034d0 f i c_renderer.obj
 0001:000024d0       ??$_Get_unwrapped@PAUCIncomingSequence@@@std@@YAPAPAUCIncomingSequence@@QAPAU1@@Z 100034d0 f i c_net_channel_.obj
 0001:000024d0       ??$move@AAV?$allocator@V?$basic_string@DU?$char_traits@D@std@@V?$allocator@D@2@@std@@@std@@@std@@YA$$QAV?$allocator@V?$basic_string@DU?$char_traits@D@std@@V?$allocator@D@2@@std@@@0@AAV10@@Z 100034d0 f i ImConsole.obj
 0001:000024d0       ??$forward@PAI@std@@YA$$QAPAIAAPAI@Z 100034d0 f i c_net_channel_.obj
 0001:000024d0       ??$forward@V?$allocator@PAUanimation@c_animation_system@@@std@@@std@@YA$$QAV?$allocator@PAUanimation@c_animation_system@@@0@AAV10@@Z 100034d0 f i c_aimhelper.obj
 0001:000024d0       ??$forward@ABV?$allocator@U?$pair@$$CBIPAVCD3DFont@@@std@@@std@@@std@@YAABV?$allocator@U?$pair@$$CBIPAVCD3DFont@@@std@@@0@ABV10@@Z 100034d0 f i c_renderer.obj
 0001:000024d0       ??$addressof@U?$pair@QAVc_hotkey_select@@V?$function@$$A6AXI@Z@std@@@std@@@std@@YAPAU?$pair@QAVc_hotkey_select@@V?$function@$$A6AXI@Z@std@@@0@AAU10@@Z 100034d0 f i c_fake_ping.obj
 0001:000024d0       ??$_Unfancy@V?$basic_string@DU?$char_traits@D@std@@V?$allocator@D@2@@std@@@std@@YAPAV?$basic_string@DU?$char_traits@D@std@@V?$allocator@D@2@@0@PAV10@@Z 100034d0 f i c_miscellaneous.obj
 0001:000024d0       ??$_Unfancy@Uaim_info@c_aimhelper@@@std@@YAPAUaim_info@c_aimhelper@@PAU12@@Z 100034d0 f i c_aimhelper.obj
 0001:000024d0       ?select_on_container_copy_construction@?$_Default_allocator_traits@V?$allocator@W4hitbox@c_cs_player@@@std@@@std@@SA?AV?$allocator@W4hitbox@c_cs_player@@@2@ABV32@@Z 100034d0 f i c_legitbot_beta.obj
 0001:000024d0       ??$move@AAV?$basic_ofstream@DU?$char_traits@D@std@@@std@@@std@@YA$$QAV?$basic_ofstream@DU?$char_traits@D@std@@@0@AAV10@@Z 100034d0 f i c_chams.obj
 0001:000024d0       ??$forward@ABV?$allocator@U?$pair@$$CBIUanimation_info@c_animation_system@@@std@@@std@@@std@@YAABV?$allocator@U?$pair@$$CBIUanimation_info@c_animation_system@@@std@@@0@ABV10@@Z 100034d0 f i aimbot_recode.obj
 0001:000024d0       ??$forward@ABV?$allocator@V?$basic_json@Vmap@std@@Vvector@2@V?$basic_string@DU?$char_traits@D@std@@V?$allocator@D@2@@2@_N_J_KNVallocator@2@Uadl_serializer@nlohmann@@@nlohmann@@@std@@@std@@YAABV?$allocator@V?$basic_json@Vmap@std@@Vvector@2@V?$basic_string@DU?$char_traits@D@std@@V?$allocator@D@2@@2@_N_J_KNVallocator@2@Uadl_serializer@nlohmann@@@nlohmann@@@0@ABV10@@Z 100034d0 f i c_menu.obj
 0001:000024d0       ??$forward@ABV?$vector@V?$basic_json@Vmap@std@@Vvector@2@V?$basic_string@DU?$char_traits@D@std@@V?$allocator@D@2@@2@_N_J_KNVallocator@2@Uadl_serializer@nlohmann@@@nlohmann@@V?$allocator@V?$basic_json@Vmap@std@@Vvector@2@V?$basic_string@DU?$char_traits@D@std@@V?$allocator@D@2@@2@_N_J_KNVallocator@2@Uadl_serializer@nlohmann@@@nlohmann@@@std@@@std@@@std@@YAABV?$vector@V?$basic_json@Vmap@std@@Vvector@2@V?$basic_string@DU?$char_traits@D@std@@V?$allocator@D@2@@2@_N_J_KNVallocator@2@Uadl_serializer@nlohmann@@@nlohmann@@V?$allocator@V?$basic_json@Vmap@std@@Vvector@2@V?$basic_string@DU?$char_traits@D@std@@V?$allocator@D@2@@2@_N_J_KNVallocator@2@Uadl_serializer@nlohmann@@@nlohmann@@@std@@@0@ABV10@@Z 100034d0 f i c_menu.obj
 0001:000024d0       ??$forward@V?$tuple@MMM@std@@@std@@YA$$QAV?$tuple@MMM@0@AAV10@@Z 100034d0 f i c_aimhelper.obj
 0001:000024d0       ??$forward@ABV?$allocator@V?$basic_string@DU?$char_traits@D@std@@V?$allocator@D@2@@std@@@std@@@std@@YAABV?$allocator@V?$basic_string@DU?$char_traits@D@std@@V?$allocator@D@2@@std@@@0@ABV10@@Z 100034d0 f i c_miscellaneous.obj
 0001:000024d0       ??$addressof@U?$pair@$$CBIPAVCD3DFont@@@std@@@std@@YAPAU?$pair@$$CBIPAVCD3DFont@@@0@AAU10@@Z 100034d0 f i c_damageesp.obj
 0001:000024d0       ??$forward@ABV<lambda_1>@?1???$create@V?$vector@V?$basic_json@Vmap@std@@Vvector@2@V?$basic_string@DU?$char_traits@D@std@@V?$allocator@D@2@@2@_N_J_KNVallocator@2@Uadl_serializer@nlohmann@@@nlohmann@@V?$allocator@V?$basic_json@Vmap@std@@Vvector@2@V?$basic_string@DU?$char_traits@D@std@@V?$allocator@D@2@@2@_N_J_KNVallocator@2@Uadl_serializer@nlohmann@@@nlohmann@@@std@@@std@@$$V@?$basic_json@Vmap@std@@Vvector@2@V?$basic_string@DU?$char_traits@D@std@@V?$allocator@D@2@@2@_N_J_KNVallocator@2@Uadl_serializer@nlohmann@@@nlohmann@@CAPAV?$vector@V?$basic_json@Vmap@std@@Vvector@2@V?$basic_string@DU?$char_traits@D@std@@V?$allocator@D@2@@2@_N_J_KNVallocator@2@Uadl_serializer@nlohmann@@@nlohmann@@V?$allocator@V?$basic_json@Vmap@std@@Vvector@2@V?$basic_string@DU?$char_traits@D@std@@V?$allocator@D@2@@2@_N_J_KNVallocator@2@Uadl_serializer@nlohmann@@@nlohmann@@@std@@@std@@XZ@@std@@YAABV<lambda_1>@?1???$create@V?$vector@V?$basic_json@Vmap@std@@Vvector@2@V?$basic_string@DU?$char_traits@D@std@@V?$allocator@D@2@@2@_N_J_KNVallocator@2@Uadl_serializer@nlohmann@@@nlohmann@@V?$allocator@V?$basic_json@Vmap@std@@Vvector@2@V?$basic_string@DU?$char_traits@D@std@@V?$allocator@D@2@@2@_N_J_KNVallocator@2@Uadl_serializer@nlohmann@@@nlohmann@@@std@@@std@@$$V@?$basic_json@Vmap@std@@Vvector@2@V?$basic_string@DU?$char_traits@D@std@@V?$allocator@D@2@@2@_N_J_KNVallocator@2@Uadl_serializer@nlohmann@@@nlohmann@@CAPAV?$vector@V?$basic_json@Vmap@std@@Vvector@2@V?$basic_string@DU?$char_traits@D@std@@V?$allocator@D@2@@2@_N_J_KNVallocator@2@Uadl_serializer@nlohmann@@@nlohmann@@V?$allocator@V?$basic_json@Vmap@std@@Vvector@2@V?$basic_string@DU?$char_traits@D@std@@V?$allocator@D@2@@2@_N_J_KNVallocator@2@Uadl_serializer@nlohmann@@@nlohmann@@@std@@@0@XZ@ABV1?1???$create@V?$vector@V?$basic_json@Vmap@std@@Vvector@2@V?$basic_string@DU?$char_traits@D@std@@V?$allocator@D@2@@2@_N_J_KNVallocator@2@Uadl_serializer@nlohmann@@@nlohmann@@V?$allocator@V?$basic_json@Vmap@std@@Vvector@2@V?$basic_string@DU?$char_traits@D@std@@V?$allocator@D@2@@2@_N_J_KNVallocator@2@Uadl_serializer@nlohmann@@@nlohmann@@@std@@@std@@$$V@23@CAPAV40@XZ@@Z 100034d0 f i c_menu.obj
 0001:000024d0       ??$forward@PAVc_drawable@@@std@@YA$$QAPAVc_drawable@@AAPAV1@@Z 100034d0 f i c_button.obj
 0001:000024d0       ??$_Unfancy@U_Container_proxy@std@@@std@@YAPAU_Container_proxy@0@PAU10@@Z 100034d0 f i aimbot_recode.obj
 0001:000024d0       ??$move@AAU?$pair@PAVc_cs_player@@M@std@@@std@@YA$$QAU?$pair@PAVc_cs_player@@M@0@AAU10@@Z 100034d0 f i c_chams.obj
 0001:000024d0       ??$forward@I@std@@YA$$QAIAAI@Z 100034d0 f i aimbot_recode.obj
 0001:000024d0       ?_Extract@?$_In_place_key_extract_map@V?$basic_string@DU?$char_traits@D@std@@V?$allocator@D@2@@std@@V12@V?$basic_json@Vmap@std@@Vvector@2@V?$basic_string@DU?$char_traits@D@std@@V?$allocator@D@2@@2@_N_J_KNVallocator@2@Uadl_serializer@nlohmann@@@nlohmann@@@std@@SAABV?$basic_string@DU?$char_traits@D@std@@V?$allocator@D@2@@2@ABV32@ABV?$basic_json@Vmap@std@@Vvector@2@V?$basic_string@DU?$char_traits@D@std@@V?$allocator@D@2@@2@_N_J_KNVallocator@2@Uadl_serializer@nlohmann@@@nlohmann@@@Z 100034d0 f i c_menu.obj
 0001:000024d0       ??$forward@AAV?$basic_string@DU?$char_traits@D@std@@V?$allocator@D@2@@std@@@std@@YAAAV?$basic_string@DU?$char_traits@D@std@@V?$allocator@D@2@@0@AAV10@@Z 100034d0 f i loki_menu.obj
 0001:000024d0       ??$_Unfancy@Uimpact_info@@@std@@YAPAUimpact_info@@PAU1@@Z 100034d0 f i c_hitmarker.obj
 0001:000024d0       ??$_Unfancy@Unade_info@c_esp@@@std@@YAPAUnade_info@c_esp@@PAU12@@Z 100034d0 f i c_esp.obj
 0001:000024d0       ??$forward@Uanimation_info@c_animation_system@@@std@@YA$$QAUanimation_info@c_animation_system@@AAU12@@Z 100034d0 f i c_animation_system.obj
 0001:000024d0       ??$_Get_unwrapped@U?$pair@PAVc_cs_player@@M@std@@@std@@YAPAU?$pair@PAVc_cs_player@@M@0@QAU10@@Z 100034d0 f i c_chams.obj
 0001:000024d0       ??$addressof@PAD@std@@YAPAPADAAPAD@Z 100034d0 f i dll.obj
 0001:000024d0       ??$_Refancy@PAPAVLua_Hook@@$0A@@std@@YAPAPAVLua_Hook@@PAPAV1@@Z 100034d0 f i LuaAPI.obj
 0001:000024d0       ??$forward@AAPAI@std@@YAAAPAIAAPAI@Z 100034d0 f i cte_effects.obj
 0001:000024d0       ??$forward@AAPAV_Facet_base@std@@@std@@YAAAPAV_Facet_base@0@AAPAV10@@Z 100034d0 f i dll.obj
 0001:000024d0       ??$move@AAVc_vector2d@@@std@@YA$$QAVc_vector2d@@AAV1@@Z 100034d0 f i c_renderer.obj
 0001:000024d0       ??$forward@V?$tuple@MH@std@@@std@@YA$$QAV?$tuple@MH@0@AAV10@@Z 100034d0 f i c_aimhelper.obj
 0001:000024d0       ??$move@AAV?$allocator@Vc_vector3d@@@std@@@std@@YA$$QAV?$allocator@Vc_vector3d@@@0@AAV10@@Z 100034d0 f i c_resolver.obj
 0001:000024d0       ??$_Unfancy@Uhitmarker_info@@@std@@YAPAUhitmarker_info@@PAU1@@Z 100034d0 f i c_hitmarker.obj
 0001:000024d0       ??$addressof@V?$deque@Uanimation@c_animation_system@@V?$allocator@Uanimation@c_animation_system@@@std@@@std@@@std@@YAPAV?$deque@Uanimation@c_animation_system@@V?$allocator@Uanimation@c_animation_system@@@std@@@0@AAV10@@Z 100034d0 f i c_animation_system.obj
 0001:000024d0       ??$_Unfancy@U?$pair@V?$shared_ptr@Vc_drawable@@@std@@U?$pair@Vc_vector2d@@V1@@2@@std@@@std@@YAPAU?$pair@V?$shared_ptr@Vc_drawable@@@std@@U?$pair@Vc_vector2d@@V1@@2@@0@PAU10@@Z 100034d0 f i DLLMain.obj
 0001:000024d0       ??$forward@V?$basic_string@DU?$char_traits@D@std@@V?$allocator@D@2@@std@@@std@@YA$$QAV?$basic_string@DU?$char_traits@D@std@@V?$allocator@D@2@@0@AAV10@@Z 100034d0 f i c_esp.obj
 0001:000024d0       ??$forward@ABV?$allocator@U?$pair@$$CBIVc_font@@@std@@@std@@@std@@YAABV?$allocator@U?$pair@$$CBIVc_font@@@std@@@0@ABV10@@Z 100034d0 f i c_renderer.obj
 0001:000024d0       ?_Extract@?$_In_place_key_extract_map@HU?$pair@$$CBHH@std@@@std@@SAABHABU?$pair@$$CBHH@2@@Z 100034d0 f i c_prediction_.obj
 0001:000024d0       ??$forward@W4hitbox@c_cs_player@@@std@@YA$$QAW4hitbox@c_cs_player@@AAW412@@Z 100034d0 f i aimbot_recode.obj
 0001:000024d0       ??$forward@AAPAU?$_List_node@U?$pair@$$CBIV?$unordered_map@IUnetvar@c_netvar@@U?$hash@I@std@@U?$equal_to@I@4@V?$allocator@U?$pair@$$CBIUnetvar@c_netvar@@@std@@@4@@std@@@std@@PAX@std@@@std@@YAAAPAU?$_List_node@U?$pair@$$CBIV?$unordered_map@IUnetvar@c_netvar@@U?$hash@I@std@@U?$equal_to@I@4@V?$allocator@U?$pair@$$CBIUnetvar@c_netvar@@@std@@@4@@std@@@std@@PAX@0@AAPAU10@@Z 100034d0 f i aimbot_recode.obj
 0001:000024d0       ??$forward@AAPAV?$c_hook@I@@@std@@YAAAPAV?$c_hook@I@@AAPAV1@@Z 100034d0 f i c_cs_player_.obj
 0001:000024d0       ??$_Kfn@$$CBIVc_font@@@?$_Umap_traits@IVc_font@@V?$_Uhash_compare@IU?$hash@I@std@@U?$equal_to@I@2@@std@@V?$allocator@U?$pair@$$CBIVc_font@@@std@@@3@$0A@@std@@SAABIABU?$pair@$$CBIVc_font@@@1@@Z 100034d0 f i c_renderer.obj
 0001:000024d0       ??$forward@VImConsoleTextItem@@@std@@YA$$QAVImConsoleTextItem@@AAV1@@Z 100034d0 f i ImConsole.obj
 0001:000024d0       ??$_Kfn@$$CBIUnetvar@c_netvar@@@?$_Umap_traits@IUnetvar@c_netvar@@V?$_Uhash_compare@IU?$hash@I@std@@U?$equal_to@I@2@@std@@V?$allocator@U?$pair@$$CBIUnetvar@c_netvar@@@std@@@4@$0A@@std@@SAABIABU?$pair@$$CBIUnetvar@c_netvar@@@1@@Z 100034d0 f i aimbot_recode.obj
 0001:000024d0       ??$forward@PBD@std@@YA$$QAPBDAAPBD@Z 100034d0 f i c_menu.obj
 0001:000024d0       ??$forward@Vc_vector2d@@@std@@YA$$QAVc_vector2d@@AAV1@@Z 100034d0 f i c_color_select.obj
 0001:000024d0       ??$forward@ABV?$json_ref@V?$basic_json@Vmap@std@@Vvector@2@V?$basic_string@DU?$char_traits@D@std@@V?$allocator@D@2@@2@_N_J_KNVallocator@2@Uadl_serializer@nlohmann@@@nlohmann@@@detail@nlohmann@@@std@@YAABV?$json_ref@V?$basic_json@Vmap@std@@Vvector@2@V?$basic_string@DU?$char_traits@D@std@@V?$allocator@D@2@@2@_N_J_KNVallocator@2@Uadl_serializer@nlohmann@@@nlohmann@@@detail@nlohmann@@ABV123@@Z 100034d0 f i c_menu.obj
 0001:000024d0       ??$forward@ABV?$allocator@PAUanimation@c_animation_system@@@std@@@std@@YAABV?$allocator@PAUanimation@c_animation_system@@@0@ABV10@@Z 100034d0 f i c_aimhelper.obj
 0001:000024d0       ??$move@AAV?$allocator@H@std@@@std@@YA$$QAV?$allocator@H@0@AAV10@@Z 100034d0 f i aimbot_recode.obj
 0001:000024d0       ??$_Unfancy@Vc_vector3d@@@std@@YAPAVc_vector3d@@PAV1@@Z 100034d0 f i aimbot_recode.obj
 0001:000024d0       ??$forward@PAU_Container_base12@std@@@std@@YA$$QAPAU_Container_base12@0@AAPAU10@@Z 100034d0 f i aimbot_recode.obj
 0001:000024d0       ??$move@AAV?$allocator@Uanimation@c_animation_system@@@std@@@std@@YA$$QAV?$allocator@Uanimation@c_animation_system@@@0@AAV10@@Z 100034d0 f i c_animation_system.obj
 0001:000024d0       ??$move@AAPAVc_cs_player@@@std@@YA$$QAPAVc_cs_player@@AAPAV1@@Z 100034d0 f i c_chams.obj
 0001:000024d0       ??$forward@AAH@std@@YAAAHAAH@Z 100034d0 f i c_aimhelper.obj
 0001:000024d0       ??$_Refancy@PAM$0A@@std@@YAPAMPAM@Z 100034d0 f i c_renderer.obj
 0001:000024d0       ??$move@AAUnade_info@c_esp@@@std@@YA$$QAUnade_info@c_esp@@AAU12@@Z 100034d0 f i c_esp.obj
 0001:000024d0       ??$_Get_unwrapped@V?$_List_unchecked_iterator@V?$_List_val@U?$_List_simple_types@U?$pair@$$CBIUnetvar@c_netvar@@@std@@@std@@@std@@@std@@@std@@YAPAV?$_List_unchecked_iterator@V?$_List_val@U?$_List_simple_types@U?$pair@$$CBIUnetvar@c_netvar@@@std@@@std@@@std@@@0@QAV10@@Z 100034d0 f i aimbot_recode.obj
 0001:000024d0       ??$forward@ABV?$allocator@H@std@@@std@@YAABV?$allocator@H@0@ABV10@@Z 100034d0 f i grenade_prediction.obj
 0001:000024d0       ??$forward@ABQAVc_cs_player@@@std@@YAABQAVc_cs_player@@ABQAV1@@Z 100034d0 f i c_animation_system.obj
 0001:000024d0       ??$forward@V?$allocator@M@std@@@std@@YA$$QAV?$allocator@M@0@AAV10@@Z 100034d0 f i c_font.obj
 0001:000024d0       ??$addressof@V?$vector@Vc_vector3d@@V?$allocator@Vc_vector3d@@@std@@@std@@@std@@YAPAV?$vector@Vc_vector3d@@V?$allocator@Vc_vector3d@@@std@@@0@AAV10@@Z 100034d0 f i c_resolver.obj
 0001:000024d0       ??$_Unfancy@D@std@@YAPADPAD@Z 100034d0 f i dll.obj
 0001:000024d0       ??$forward@AAV?$_Deque_iterator@V?$_Deque_val@U?$_Deque_simple_types@Ushot@resolver@@@std@@@std@@@std@@@std@@YAAAV?$_Deque_iterator@V?$_Deque_val@U?$_Deque_simple_types@Ushot@resolver@@@std@@@std@@@0@AAV10@@Z 100034d0 f i c_resolver.obj
 0001:000024d0       ??$addressof@Vinput_buffer_adapter@detail@nlohmann@@@std@@YAPAVinput_buffer_adapter@detail@nlohmann@@AAV123@@Z 100034d0 f i c_menu.obj
 0001:000024d0       ??$forward@ABV?$_List_unchecked_iterator@V?$_List_val@U?$_List_simple_types@U?$pair@QAVc_hotkey_select@@V?$function@$$A6AXI@Z@std@@@std@@@std@@@std@@@std@@@std@@YAABV?$_List_unchecked_iterator@V?$_List_val@U?$_List_simple_types@U?$pair@QAVc_hotkey_select@@V?$function@$$A6AXI@Z@std@@@std@@@std@@@std@@@0@ABV10@@Z 100034d0 f i c_hotkeys.obj
 0001:000024d0       ??$forward@ABQAU?$_List_node@U?$pair@$$CBIVc_font@@@std@@PAX@std@@@std@@YAABQAU?$_List_node@U?$pair@$$CBIVc_font@@@std@@PAX@0@ABQAU10@@Z 100034d0 f i c_renderer.obj
 0001:000024d0       ??$forward@AAY00$$CBD@std@@YAAAY00$$CBDAAY00$$CBD@Z 100034d0 f i c_menu.obj
 0001:000024d0       ??$addressof@U?$pair@$$CBV?$basic_string@DU?$char_traits@D@std@@V?$allocator@D@2@@std@@V?$basic_json@Vmap@std@@Vvector@2@V?$basic_string@DU?$char_traits@D@std@@V?$allocator@D@2@@2@_N_J_KNVallocator@2@Uadl_serializer@nlohmann@@@nlohmann@@@std@@@std@@YAPAU?$pair@$$CBV?$basic_string@DU?$char_traits@D@std@@V?$allocator@D@2@@std@@V?$basic_json@Vmap@std@@Vvector@2@V?$basic_string@DU?$char_traits@D@std@@V?$allocator@D@2@@2@_N_J_KNVallocator@2@Uadl_serializer@nlohmann@@@nlohmann@@@0@AAU10@@Z 100034d0 f i c_menu.obj
 0001:000024d0       ??$forward@ABV?$_List_unchecked_iterator@V?$_List_val@U?$_List_simple_types@U?$pair@$$CBIPAVCD3DFont@@@std@@@std@@@std@@@std@@@std@@YAABV?$_List_unchecked_iterator@V?$_List_val@U?$_List_simple_types@U?$pair@$$CBIPAVCD3DFont@@@std@@@std@@@std@@@0@ABV10@@Z 100034d0 f i c_renderer.obj
 0001:000024d0       ??$addressof@U?$pair@$$CBHH@std@@@std@@YAPAU?$pair@$$CBHH@0@AAU10@@Z 100034d0 f i c_prediction_.obj
 0001:000024d0       ??$move@AAPAUinput_adapter_protocol@detail@nlohmann@@@std@@YA$$QAPAUinput_adapter_protocol@detail@nlohmann@@AAPAU123@@Z 100034d0 f i c_menu.obj
 0001:000024d0       ??$forward@ABV?$basic_json@Vmap@std@@Vvector@2@V?$basic_string@DU?$char_traits@D@std@@V?$allocator@D@2@@2@_N_J_KNVallocator@2@Uadl_serializer@nlohmann@@@nlohmann@@@std@@YAABV?$basic_json@Vmap@std@@Vvector@2@V?$basic_string@DU?$char_traits@D@std@@V?$allocator@D@2@@2@_N_J_KNVallocator@2@Uadl_serializer@nlohmann@@@nlohmann@@ABV12@@Z 100034d0 f i c_menu.obj
 0001:000024d0       ??$forward@ABV?$allocator@D@std@@@std@@YAABV?$allocator@D@0@ABV10@@Z 100034d0 f i aimbot_recode.obj
 0001:000024d0       ??$move@AAW4hitbox@c_cs_player@@@std@@YA$$QAW4hitbox@c_cs_player@@AAW412@@Z 100034d0 f i aimbot_recode.obj
 0001:000024d0       ??$addressof@V?$_Vector_val@U?$_Simple_types@V?$basic_json@Vmap@std@@Vvector@2@V?$basic_string@DU?$char_traits@D@std@@V?$allocator@D@2@@2@_N_J_KNVallocator@2@Uadl_serializer@nlohmann@@@nlohmann@@@std@@@std@@@std@@YAPAV?$_Vector_val@U?$_Simple_types@V?$basic_json@Vmap@std@@Vvector@2@V?$basic_string@DU?$char_traits@D@std@@V?$allocator@D@2@@2@_N_J_KNVallocator@2@Uadl_serializer@nlohmann@@@nlohmann@@@std@@@0@AAV10@@Z 100034d0 f i c_menu.obj
 0001:000024d0       ??$_Unfancy@V?$tuple@MMM@std@@@std@@YAPAV?$tuple@MMM@0@PAV10@@Z 100034d0 f i c_aimhelper.obj
 0001:000024d0       ??$forward@ABV?$map@V?$basic_string@DU?$char_traits@D@std@@V?$allocator@D@2@@std@@V?$basic_json@Vmap@std@@Vvector@2@V?$basic_string@DU?$char_traits@D@std@@V?$allocator@D@2@@2@_N_J_KNVallocator@2@Uadl_serializer@nlohmann@@@nlohmann@@U?$less@X@2@V?$allocator@U?$pair@$$CBV?$basic_string@DU?$char_traits@D@std@@V?$allocator@D@2@@std@@V?$basic_json@Vmap@std@@Vvector@2@V?$basic_string@DU?$char_traits@D@std@@V?$allocator@D@2@@2@_N_J_KNVallocator@2@Uadl_serializer@nlohmann@@@nlohmann@@@std@@@2@@std@@@std@@YAABV?$map@V?$basic_string@DU?$char_traits@D@std@@V?$allocator@D@2@@std@@V?$basic_json@Vmap@std@@Vvector@2@V?$basic_string@DU?$char_traits@D@std@@V?$allocator@D@2@@2@_N_J_KNVallocator@2@Uadl_serializer@nlohmann@@@nlohmann@@U?$less@X@2@V?$allocator@U?$pair@$$CBV?$basic_string@DU?$char_traits@D@std@@V?$allocator@D@2@@std@@V?$basic_json@Vmap@std@@Vvector@2@V?$basic_string@DU?$char_traits@D@std@@V?$allocator@D@2@@2@_N_J_KNVallocator@2@Uadl_serializer@nlohmann@@@nlohmann@@@std@@@2@@0@ABV10@@Z 100034d0 f i c_menu.obj
 0001:000024d0       ??$forward@V?$allocator@Uaim_info@c_aimhelper@@@std@@@std@@YA$$QAV?$allocator@Uaim_info@c_aimhelper@@@0@AAV10@@Z 100034d0 f i c_aimhelper.obj
 0001:000024d0       ??$forward@AAPAVc_cs_player@@@std@@YAAAPAVc_cs_player@@AAPAV1@@Z 100034d0 f i c_chams.obj
 0001:000024d0       ??$move@AAUanimation@c_animation_system@@@std@@YA$$QAUanimation@c_animation_system@@AAU12@@Z 100034d0 f i c_animation_system.obj
 0001:000024d0       ??$addressof@$$CBV?$_String_val@U?$_Simple_types@D@std@@@std@@@std@@YAPBV?$_String_val@U?$_Simple_types@D@std@@@0@ABV10@@Z 100034d0 f i aimbot_recode.obj
 0001:000024d0       ??$forward@U_Zero_then_variadic_args_t@std@@@std@@YA$$QAU_Zero_then_variadic_args_t@0@AAU10@@Z 100034d0 f i aimbot_recode.obj
 0001:000024d0       ??$addressof@V?$_Deque_val@U?$_Deque_simple_types@UCIncomingSequence@@@std@@@std@@@std@@YAPAV?$_Deque_val@U?$_Deque_simple_types@UCIncomingSequence@@@std@@@0@AAV10@@Z 100034d0 f i c_fake_ping.obj
 0001:000024d0       ??$move@AAV?$basic_string@DU?$char_traits@D@std@@V?$allocator@D@2@@std@@@std@@YA$$QAV?$basic_string@DU?$char_traits@D@std@@V?$allocator@D@2@@0@AAV10@@Z 100034d0 f i c_esp.obj
 0001:000024d0       ??$_Get_unwrapped@V?$tuple@MMM@std@@@std@@YAPAV?$tuple@MMM@0@QAV10@@Z 100034d0 f i c_aimhelper.obj
 0001:000024d0       ??$_Kfn@$$CBHH@?$_Tmap_traits@HHU?$less@H@std@@V?$allocator@U?$pair@$$CBHH@std@@@2@$0A@@std@@SAABHABU?$pair@$$CBHH@1@@Z 100034d0 f i c_prediction_.obj
 0001:000024d0       ??$addressof@D@std@@YAPADAAD@Z 100034d0 f i c_menu.obj
 0001:000024d0       ??$_Unfancy@H@std@@YAPAHPAH@Z 100034d0 f i aimbot_recode.obj
 0001:000024d0       ??$forward@ABV?$allocator@U?$pair@QAVc_hotkey_select@@V?$function@$$A6AXI@Z@std@@@std@@@std@@@std@@YAABV?$allocator@U?$pair@QAVc_hotkey_select@@V?$function@$$A6AXI@Z@std@@@std@@@0@ABV10@@Z 100034d0 f i c_hotkeys.obj
 0001:000024d0       ??$forward@V?$_List_iterator@V?$_List_val@U?$_List_simple_types@U?$pair@$$CBIUanimation_info@c_animation_system@@@std@@@std@@@std@@@std@@@std@@YA$$QAV?$_List_iterator@V?$_List_val@U?$_List_simple_types@U?$pair@$$CBIUanimation_info@c_animation_system@@@std@@@std@@@std@@@0@AAV10@@Z 100034d0 f i c_animation_system.obj
 0001:000024d0       ??$move@AAV?$vector@MV?$allocator@M@std@@@std@@@std@@YA$$QAV?$vector@MV?$allocator@M@std@@@0@AAV10@@Z 100034d0 f i c_font.obj
 0001:000024d0       ??$_Get_unwrapped@Uimpact_info@@@std@@YAPAUimpact_info@@QAU1@@Z 100034d0 f i c_hitmarker.obj
 0001:000024d0       ??$move@AAV?$allocator@D@std@@@std@@YA$$QAV?$allocator@D@0@AAV10@@Z 100034d0 f i aimbot_recode.obj
 0001:000024d0       ??$_Get_unwrapped@D@std@@YAPADQAD@Z 100034d0 f i c_esp.obj
 0001:000024d0       ??$addressof@U?$pair@$$CBIV?$unordered_map@IUnetvar@c_netvar@@U?$hash@I@std@@U?$equal_to@I@4@V?$allocator@U?$pair@$$CBIUnetvar@c_netvar@@@std@@@4@@std@@@std@@@std@@YAPAU?$pair@$$CBIV?$unordered_map@IUnetvar@c_netvar@@U?$hash@I@std@@U?$equal_to@I@4@V?$allocator@U?$pair@$$CBIUnetvar@c_netvar@@@std@@@4@@std@@@0@AAU10@@Z 100034d0 f i DLLMain.obj
 0001:000024d0       ??$forward@V?$allocator@U?$_Tree_node@U?$pair@$$CBV?$basic_string@DU?$char_traits@D@std@@V?$allocator@D@2@@std@@V?$basic_json@Vmap@std@@Vvector@2@V?$basic_string@DU?$char_traits@D@std@@V?$allocator@D@2@@2@_N_J_KNVallocator@2@Uadl_serializer@nlohmann@@@nlohmann@@@std@@PAX@std@@@std@@@std@@YA$$QAV?$allocator@U?$_Tree_node@U?$pair@$$CBV?$basic_string@DU?$char_traits@D@std@@V?$allocator@D@2@@std@@V?$basic_json@Vmap@std@@Vvector@2@V?$basic_string@DU?$char_traits@D@std@@V?$allocator@D@2@@2@_N_J_KNVallocator@2@Uadl_serializer@nlohmann@@@nlohmann@@@std@@PAX@std@@@0@AAV10@@Z 100034d0 f i c_menu.obj
 0001:000024d0       ??$forward@ABV<lambda_1>@?1???$create@V?$vector@V?$basic_json@Vmap@std@@Vvector@2@V?$basic_string@DU?$char_traits@D@std@@V?$allocator@D@2@@2@_N_J_KNVallocator@2@Uadl_serializer@nlohmann@@@nlohmann@@V?$allocator@V?$basic_json@Vmap@std@@Vvector@2@V?$basic_string@DU?$char_traits@D@std@@V?$allocator@D@2@@2@_N_J_KNVallocator@2@Uadl_serializer@nlohmann@@@nlohmann@@@std@@@std@@ABV12@@?$basic_json@Vmap@std@@Vvector@2@V?$basic_string@DU?$char_traits@D@std@@V?$allocator@D@2@@2@_N_J_KNVallocator@2@Uadl_serializer@nlohmann@@@nlohmann@@CAPAV?$vector@V?$basic_json@Vmap@std@@Vvector@2@V?$basic_string@DU?$char_traits@D@std@@V?$allocator@D@2@@2@_N_J_KNVallocator@2@Uadl_serializer@nlohmann@@@nlohmann@@V?$allocator@V?$basic_json@Vmap@std@@Vvector@2@V?$basic_string@DU?$char_traits@D@std@@V?$allocator@D@2@@2@_N_J_KNVallocator@2@Uadl_serializer@nlohmann@@@nlohmann@@@std@@@std@@ABV45@@Z@@std@@YAABV<lambda_1>@?1???$create@V?$vector@V?$basic_json@Vmap@std@@Vvector@2@V?$basic_string@DU?$char_traits@D@std@@V?$allocator@D@2@@2@_N_J_KNVallocator@2@Uadl_serializer@nlohmann@@@nlohmann@@V?$allocator@V?$basic_json@Vmap@std@@Vvector@2@V?$basic_string@DU?$char_traits@D@std@@V?$allocator@D@2@@2@_N_J_KNVallocator@2@Uadl_serializer@nlohmann@@@nlohmann@@@std@@@std@@ABV12@@?$basic_json@Vmap@std@@Vvector@2@V?$basic_string@DU?$char_traits@D@std@@V?$allocator@D@2@@2@_N_J_KNVallocator@2@Uadl_serializer@nlohmann@@@nlohmann@@CAPAV?$vector@V?$basic_json@Vmap@std@@Vvector@2@V?$basic_string@DU?$char_traits@D@std@@V?$allocator@D@2@@2@_N_J_KNVallocator@2@Uadl_serializer@nlohmann@@@nlohmann@@V?$allocator@V?$basic_json@Vmap@std@@Vvector@2@V?$basic_string@DU?$char_traits@D@std@@V?$allocator@D@2@@2@_N_J_KNVallocator@2@Uadl_serializer@nlohmann@@@nlohmann@@@std@@@0@ABV40@@Z@ABV1?1???$create@V?$vector@V?$basic_json@Vmap@std@@Vvector@2@V?$basic_string@DU?$char_traits@D@std@@V?$allocator@D@2@@2@_N_J_KNVallocator@2@Uadl_serializer@nlohmann@@@nlohmann@@V?$allocator@V?$basic_json@Vmap@std@@Vvector@2@V?$basic_string@DU?$char_traits@D@std@@V?$allocator@D@2@@2@_N_J_KNVallocator@2@Uadl_serializer@nlohmann@@@nlohmann@@@std@@@std@@ABV12@@23@CAPAV40@0@Z@@Z 100034d0 f i c_menu.obj
 0001:000024d0       ??$_Get_unwrapped@V?$_List_unchecked_iterator@V?$_List_val@U?$_List_simple_types@U?$pair@$$CBIV?$unordered_map@IUnetvar@c_netvar@@U?$hash@I@std@@U?$equal_to@I@4@V?$allocator@U?$pair@$$CBIUnetvar@c_netvar@@@std@@@4@@std@@@std@@@std@@@std@@@std@@@std@@YAPAV?$_List_unchecked_iterator@V?$_List_val@U?$_List_simple_types@U?$pair@$$CBIV?$unordered_map@IUnetvar@c_netvar@@U?$hash@I@std@@U?$equal_to@I@4@V?$allocator@U?$pair@$$CBIUnetvar@c_netvar@@@std@@@4@@std@@@std@@@std@@@std@@@0@QAV10@@Z 100034d0 f i aimbot_recode.obj
 0001:000024d0       ??$forward@ABV?$_List_unchecked_iterator@V?$_List_val@U?$_List_simple_types@U?$pair@$$CBIUnetvar@c_netvar@@@std@@@std@@@std@@@std@@@std@@YAABV?$_List_unchecked_iterator@V?$_List_val@U?$_List_simple_types@U?$pair@$$CBIUnetvar@c_netvar@@@std@@@std@@@std@@@0@ABV10@@Z 100034d0 f i aimbot_recode.obj
 0001:000024d0       ??$forward@ABV?$_List_unchecked_iterator@V?$_List_val@U?$_List_simple_types@U?$pair@$$CBIVc_font@@@std@@@std@@@std@@@std@@@std@@YAABV?$_List_unchecked_iterator@V?$_List_val@U?$_List_simple_types@U?$pair@$$CBIVc_font@@@std@@@std@@@std@@@0@ABV10@@Z 100034d0 f i c_renderer.obj
 0001:000024d0       ??$forward@PAU?$_List_node@U?$pair@$$CBIUnetvar@c_netvar@@@std@@PAX@std@@@std@@YA$$QAPAU?$_List_node@U?$pair@$$CBIUnetvar@c_netvar@@@std@@PAX@0@AAPAU10@@Z 100034d0 f i aimbot_recode.obj
 0001:000024d0       ??$forward@_N@std@@YA$$QA_NAA_N@Z 100034d0 f i aimbot_recode.obj
 0001:000024d0       ??$move@AAV?$function@$$A6AXI@Z@std@@@std@@YA$$QAV?$function@$$A6AXI@Z@0@AAV10@@Z 100034d0 f i c_hotkeys.obj
 0001:000024d0       ??$forward@V?$allocator@W4hitbox@c_cs_player@@@std@@@std@@YA$$QAV?$allocator@W4hitbox@c_cs_player@@@0@AAV10@@Z 100034d0 f i c_legitbot_beta.obj
 0001:000024d0       ??$forward@ABV?$_List_unchecked_iterator@V?$_List_val@U?$_List_simple_types@U?$pair@$$CBIUanimation_info@c_animation_system@@@std@@@std@@@std@@@std@@@std@@YAABV?$_List_unchecked_iterator@V?$_List_val@U?$_List_simple_types@U?$pair@$$CBIUanimation_info@c_animation_system@@@std@@@std@@@std@@@0@ABV10@@Z 100034d0 f i aimbot_recode.obj
 0001:000024d0       ?select_on_container_copy_construction@?$_Default_allocator_traits@V?$allocator@V?$basic_string@DU?$char_traits@D@std@@V?$allocator@D@2@@std@@@std@@@std@@SA?AV?$allocator@V?$basic_string@DU?$char_traits@D@std@@V?$allocator@D@2@@std@@@2@ABV32@@Z 100034d0 f i c_menu.obj
 0001:000024d0       ??$addressof@V?$unique_ptr@$$BY0A@IU?$default_delete@$$BY0A@I@std@@@std@@@std@@YAPAV?$unique_ptr@$$BY0A@IU?$default_delete@$$BY0A@I@std@@@0@AAV10@@Z 100034d0 f i cte_effects.obj
 0001:000024d0       ??$forward@PAU?$_List_node@U?$pair@$$CBIVc_font@@@std@@PAX@std@@@std@@YA$$QAPAU?$_List_node@U?$pair@$$CBIVc_font@@@std@@PAX@0@AAPAU10@@Z 100034d0 f i c_renderer.obj
 0001:000024d0       ??$forward@ABV?$basic_string@DU?$char_traits@D@std@@V?$allocator@D@2@@std@@@std@@YAABV?$basic_string@DU?$char_traits@D@std@@V?$allocator@D@2@@0@ABV10@@Z 100034d0 f i c_miscellaneous.obj
 0001:000024d0       ??$addressof@PAU?$_Tree_node@U?$pair@$$CBHH@std@@PAX@std@@@std@@YAPAPAU?$_Tree_node@U?$pair@$$CBHH@std@@PAX@0@AAPAU10@@Z 100034d0 f i c_prediction_.obj
 0001:000024d0       ??$forward@AAPAU?$_Tree_node@U?$pair@$$CBHH@std@@PAX@std@@@std@@YAAAPAU?$_Tree_node@U?$pair@$$CBHH@std@@PAX@0@AAPAU10@@Z 100034d0 f i c_prediction_.obj
 0001:000024d0       ??$_Refancy@PBD$0A@@std@@YAPBDPBD@Z 100034d0 f i aimbot_recode.obj
 0001:000024d0       ??$move@AAPAV_Ref_count_base@std@@@std@@YA$$QAPAV_Ref_count_base@0@AAPAV10@@Z 100034d0 f i c_menu.obj
 0001:000024d0       ??$addressof@U?$pair@PAVc_cs_player@@M@std@@@std@@YAPAU?$pair@PAVc_cs_player@@M@0@AAU10@@Z 100034d0 f i c_chams.obj
 0001:000024d0       ??$_Get_unwrapped_n@PAUshot@resolver@@H$0A@@std@@YAPAPAUshot@resolver@@QAPAU12@H@Z 100034d0 f i c_resolver.obj
 0001:000024d0       ??$forward@U_One_then_variadic_args_t@std@@@std@@YA$$QAU_One_then_variadic_args_t@0@AAU10@@Z 100034d0 f i c_menu.obj
 0001:000024d0       ??$forward@AAV?$_Deque_iterator@V?$_Deque_val@U?$_Deque_simple_types@Uanimation@c_animation_system@@@std@@@std@@@std@@@std@@YAAAV?$_Deque_iterator@V?$_Deque_val@U?$_Deque_simple_types@Uanimation@c_animation_system@@@std@@@std@@@0@AAV10@@Z 100034d0 f i c_animation_system.obj
 0001:000024d0       ??$_Kfn@$$CBIUanimation_info@c_animation_system@@@?$_Umap_traits@IUanimation_info@c_animation_system@@V?$_Uhash_compare@IU?$hash@I@std@@U?$equal_to@I@2@@std@@V?$allocator@U?$pair@$$CBIUanimation_info@c_animation_system@@@std@@@4@$0A@@std@@SAABIABU?$pair@$$CBIUanimation_info@c_animation_system@@@1@@Z 100034d0 f i c_animation_system.obj
 0001:000024d0       ??$addressof@V?$_Vector_val@U?$_Simple_types@Uimpact_info@@@std@@@std@@@std@@YAPAV?$_Vector_val@U?$_Simple_types@Uimpact_info@@@std@@@0@AAV10@@Z 100034d0 f i c_hitmarker.obj
 0001:000024d0       ??$forward@ABH@std@@YAABHABH@Z 100034d0 f i c_menu.obj
 0001:000024d0       ??$_Get_unwrapped@V?$_List_unchecked_iterator@V?$_List_val@U?$_List_simple_types@U?$pair@$$CBIPAVCD3DFont@@@std@@@std@@@std@@@std@@@std@@YAPAV?$_List_unchecked_iterator@V?$_List_val@U?$_List_simple_types@U?$pair@$$CBIPAVCD3DFont@@@std@@@std@@@std@@@0@QAV10@@Z 100034d0 f i c_renderer.obj
 0001:000024d0       ??$move@AAI@std@@YA$$QAIAAI@Z 100034d0 f i aimbot_recode.obj
 0001:000024d0       ??$addressof@V?$_List_val@U?$_List_simple_types@U?$pair@$$CBIUanimation_info@c_animation_system@@@std@@@std@@@std@@@std@@YAPAV?$_List_val@U?$_List_simple_types@U?$pair@$$CBIUanimation_info@c_animation_system@@@std@@@std@@@0@AAV10@@Z 100034d0 f i c_animation_system.obj
 0001:000024d0       ??$addressof@PAU?$_List_node@U?$pair@$$CBIUanimation_info@c_animation_system@@@std@@PAX@std@@@std@@YAPAPAU?$_List_node@U?$pair@$$CBIUanimation_info@c_animation_system@@@std@@PAX@0@AAPAU10@@Z 100034d0 f i aimbot_recode.obj
 0001:000024d0       ??$get@$01Vc_vector3d@@MPAUanimation@c_animation_system@@@std@@YAABQAUanimation@c_animation_system@@ABV?$tuple@Vc_vector3d@@MPAUanimation@c_animation_system@@@0@@Z 100034d0 f i c_antiaim.obj
 0001:000024d0       ??$forward@ABV?$function@$$A6AXI@Z@std@@@std@@YAABV?$function@$$A6AXI@Z@0@ABV10@@Z 100034d0 f i c_hotkeys.obj
 0001:000024d0       ??$addressof@PAU?$_List_node@U?$pair@$$CBIV?$unordered_map@IUnetvar@c_netvar@@U?$hash@I@std@@U?$equal_to@I@4@V?$allocator@U?$pair@$$CBIUnetvar@c_netvar@@@std@@@4@@std@@@std@@PAX@std@@@std@@YAPAPAU?$_List_node@U?$pair@$$CBIV?$unordered_map@IUnetvar@c_netvar@@U?$hash@I@std@@U?$equal_to@I@4@V?$allocator@U?$pair@$$CBIUnetvar@c_netvar@@@std@@@4@@std@@@std@@PAX@0@AAPAU10@@Z 100034d0 f i aimbot_recode.obj
 0001:000024d0       ??$addressof@V?$_Deque_val@U?$_Deque_simple_types@Uanimation@c_animation_system@@@std@@@std@@@std@@YAPAV?$_Deque_val@U?$_Deque_simple_types@Uanimation@c_animation_system@@@std@@@0@AAV10@@Z 100034d0 f i c_animation_system.obj
 0001:000024d0       ??$forward@AAPAU?$_List_node@U?$pair@$$CBIVc_font@@@std@@PAX@std@@@std@@YAAAPAU?$_List_node@U?$pair@$$CBIVc_font@@@std@@PAX@0@AAPAU10@@Z 100034d0 f i c_renderer.obj
 0001:000024d0       ??$move@AAV?$shared_ptr@V?$output_string_adapter@DV?$basic_string@DU?$char_traits@D@std@@V?$allocator@D@2@@std@@@detail@nlohmann@@@std@@@std@@YA$$QAV?$shared_ptr@V?$output_string_adapter@DV?$basic_string@DU?$char_traits@D@std@@V?$allocator@D@2@@std@@@detail@nlohmann@@@0@AAV10@@Z 100034d0 f i c_menu.obj
 0001:000024d0       ??$addressof@$$CBV?$basic_filebuf@DU?$char_traits@D@std@@@std@@@std@@YAPBV?$basic_filebuf@DU?$char_traits@D@std@@@0@ABV10@@Z 100034d0 f i c_menu.obj
 0001:000024d0       ??$addressof@V?$_List_unchecked_iterator@V?$_List_val@U?$_List_simple_types@U?$pair@$$CBIVc_font@@@std@@@std@@@std@@@std@@@std@@YAPAV?$_List_unchecked_iterator@V?$_List_val@U?$_List_simple_types@U?$pair@$$CBIVc_font@@@std@@@std@@@std@@@0@AAV10@@Z 100034d0 f i c_renderer.obj
 0001:000024d0       ??$addressof@PAU?$_List_node@U?$pair@$$CBIVc_font@@@std@@PAX@std@@@std@@YAPAPAU?$_List_node@U?$pair@$$CBIVc_font@@@std@@PAX@0@AAPAU10@@Z 100034d0 f i c_renderer.obj
 0001:000024d0       ??$_Get_unwrapped@V?$_List_unchecked_iterator@V?$_List_val@U?$_List_simple_types@U?$pair@QAVc_hotkey_select@@V?$function@$$A6AXI@Z@std@@@std@@@std@@@std@@@std@@@std@@YAPAV?$_List_unchecked_iterator@V?$_List_val@U?$_List_simple_types@U?$pair@QAVc_hotkey_select@@V?$function@$$A6AXI@Z@std@@@std@@@std@@@std@@@0@QAV10@@Z 100034d0 f i c_hotkeys.obj
 0001:000024d0       ?select_on_container_copy_construction@?$_Default_allocator_traits@V?$allocator@V?$vector@MV?$allocator@M@std@@@std@@@std@@@std@@SA?AV?$allocator@V?$vector@MV?$allocator@M@std@@@std@@@2@ABV32@@Z 100034d0 f i c_renderer.obj
 0001:000024d0       ??$move@AAV?$_Deque_iterator@V?$_Deque_val@U?$_Deque_simple_types@Uanimation@c_animation_system@@@std@@@std@@@std@@@std@@YA$$QAV?$_Deque_iterator@V?$_Deque_val@U?$_Deque_simple_types@Uanimation@c_animation_system@@@std@@@std@@@0@AAV10@@Z 100034d0 f i c_animation_system.obj
 0001:000024d0       ??$addressof@$$CBV?$basic_string@DU?$char_traits@D@std@@V?$allocator@D@2@@std@@@std@@YAPBV?$basic_string@DU?$char_traits@D@std@@V?$allocator@D@2@@0@ABV10@@Z 100034d0 f i c_miscellaneous.obj
 0001:000024d0       ??$_Get_unwrapped@Uhitmarker_info@@@std@@YAPAUhitmarker_info@@QAU1@@Z 100034d0 f i c_hitmarker.obj
 0001:000024d0       ??$move@AAH@std@@YA$$QAHAAH@Z 100034d0 f i aimbot_recode.obj
 0001:000024d0       ??$addressof@Ushot@resolver@@@std@@YAPAUshot@resolver@@AAU12@@Z 100034d0 f i c_resolver.obj
 0001:000024d0       ??$forward@AAPAU?$_List_node@U?$pair@$$CBIPAVCD3DFont@@@std@@PAX@std@@@std@@YAAAPAU?$_List_node@U?$pair@$$CBIPAVCD3DFont@@@std@@PAX@0@AAPAU10@@Z 100034d0 f i c_renderer.obj
 0001:000024d0       ??$_Unfancy@PAVLua_Hook@@@std@@YAPAPAVLua_Hook@@PAPAV1@@Z 100034d0 f i LuaAPI.obj
 0001:000024d0       ??$addressof@$$CBV?$_Tree_val@U?$_Tree_simple_types@U?$pair@$$CBHH@std@@@std@@@std@@@std@@YAPBV?$_Tree_val@U?$_Tree_simple_types@U?$pair@$$CBHH@std@@@std@@@0@ABV10@@Z 100034d0 f i c_prediction_.obj
 0001:000024d0       ?select_on_container_copy_construction@?$_Default_allocator_traits@V?$allocator@D@std@@@std@@SA?AV?$allocator@D@2@ABV32@@Z 100034d0 f i c_miscellaneous.obj
 0001:000024d0       ??$_Get_unwrapped@$$CBU?$pair@V?$shared_ptr@Vc_drawable@@@std@@U?$pair@Vc_vector2d@@V1@@2@@std@@@std@@YAPBU?$pair@V?$shared_ptr@Vc_drawable@@@std@@U?$pair@Vc_vector2d@@V1@@2@@0@QBU10@@Z 100034d0 f i c_checkbox.obj
 0001:000024d0       ??$move@AAV?$shared_ptr@U?$output_adapter_protocol@D@detail@nlohmann@@@std@@@std@@YA$$QAV?$shared_ptr@U?$output_adapter_protocol@D@detail@nlohmann@@@0@AAV10@@Z 100034d0 f i c_menu.obj
 0001:000024d0       ??$addressof@V?$basic_filebuf@DU?$char_traits@D@std@@@std@@@std@@YAPAV?$basic_filebuf@DU?$char_traits@D@std@@@0@AAV10@@Z 100034d0 f i dll.obj
 0001:000024d0       ??$forward@U?$pair@V?$shared_ptr@Vc_drawable@@@std@@U?$pair@Vc_vector2d@@V1@@2@@std@@@std@@YA$$QAU?$pair@V?$shared_ptr@Vc_drawable@@@std@@U?$pair@Vc_vector2d@@V1@@2@@0@AAU10@@Z 100034d0 f i c_checkbox.obj
 0001:000024d0       ??$forward@ABUpiecewise_construct_t@std@@@std@@YAABUpiecewise_construct_t@0@ABU10@@Z 100034d0 f i aimbot_recode.obj
 0001:000024d0       ??$_Kfn@$$CBV?$basic_string@DU?$char_traits@D@std@@V?$allocator@D@2@@std@@V?$basic_json@Vmap@std@@Vvector@2@V?$basic_string@DU?$char_traits@D@std@@V?$allocator@D@2@@2@_N_J_KNVallocator@2@Uadl_serializer@nlohmann@@@nlohmann@@@?$_Tmap_traits@V?$basic_string@DU?$char_traits@D@std@@V?$allocator@D@2@@std@@V?$basic_json@Vmap@std@@Vvector@2@V?$basic_string@DU?$char_traits@D@std@@V?$allocator@D@2@@2@_N_J_KNVallocator@2@Uadl_serializer@nlohmann@@@nlohmann@@U?$less@X@2@V?$allocator@U?$pair@$$CBV?$basic_string@DU?$char_traits@D@std@@V?$allocator@D@2@@std@@V?$basic_json@Vmap@std@@Vvector@2@V?$basic_string@DU?$char_traits@D@std@@V?$allocator@D@2@@2@_N_J_KNVallocator@2@Uadl_serializer@nlohmann@@@nlohmann@@@std@@@2@$0A@@std@@SAABV?$basic_string@DU?$char_traits@D@std@@V?$allocator@D@2@@1@ABU?$pair@$$CBV?$basic_string@DU?$char_traits@D@std@@V?$allocator@D@2@@std@@V?$basic_json@Vmap@std@@Vvector@2@V?$basic_string@DU?$char_traits@D@std@@V?$allocator@D@2@@2@_N_J_KNVallocator@2@Uadl_serializer@nlohmann@@@nlohmann@@@1@@Z 100034d0 f i c_menu.obj
 0001:000024d0       ??$forward@PAUIDirect3DDevice9@@@std@@YA$$QAPAUIDirect3DDevice9@@AAPAU1@@Z 100034d0 f i idirect3ddevice9.obj
 0001:000024d0       ??$addressof@PAU?$_Tree_node@U?$pair@$$CBV?$basic_string@DU?$char_traits@D@std@@V?$allocator@D@2@@std@@V?$basic_json@Vmap@std@@Vvector@2@V?$basic_string@DU?$char_traits@D@std@@V?$allocator@D@2@@2@_N_J_KNVallocator@2@Uadl_serializer@nlohmann@@@nlohmann@@@std@@PAX@std@@@std@@YAPAPAU?$_Tree_node@U?$pair@$$CBV?$basic_string@DU?$char_traits@D@std@@V?$allocator@D@2@@std@@V?$basic_json@Vmap@std@@Vvector@2@V?$basic_string@DU?$char_traits@D@std@@V?$allocator@D@2@@2@_N_J_KNVallocator@2@Uadl_serializer@nlohmann@@@nlohmann@@@std@@PAX@0@AAPAU10@@Z 100034d0 f i c_menu.obj
 0001:000024d0       ??$forward@Vc_vector3d@@@std@@YA$$QAVc_vector3d@@AAV1@@Z 100034d0 f i aimbot_recode.obj
 0001:000024d0       ??$_Get_unwrapped_n@PAUCIncomingSequence@@H$0A@@std@@YAPAPAUCIncomingSequence@@QAPAU1@H@Z 100034d0 f i c_net_channel_.obj
 0001:000024d0       ??$forward@ABUfakelag_conf@rage_conf@config_conf@c_config@@@std@@YAABUfakelag_conf@rage_conf@config_conf@c_config@@ABU1234@@Z 100034d0 f i c_menu.obj
 0001:000024d0       ??$move@AAUshot@resolver@@@std@@YA$$QAUshot@resolver@@AAU12@@Z 100034d0 f i aimbot_recode.obj
 0001:000024d0       ??$forward@ABUflags@esp_conf@config_conf@c_config@@@std@@YAABUflags@esp_conf@config_conf@c_config@@ABU1234@@Z 100034d0 f i c_menu.obj
 0001:000024d0       ??$_Get_unwrapped@H@std@@YAPAHQAH@Z 100034d0 f i aimbot_recode.obj
 0001:000024d0       ??$_Unfancy@V?$vector@MV?$allocator@M@std@@@std@@@std@@YAPAV?$vector@MV?$allocator@M@std@@@0@PAV10@@Z 100034d0 f i c_font.obj
 0001:000024d0       ??$forward@ABUaim_info@c_aimhelper@@@std@@YAABUaim_info@c_aimhelper@@ABU12@@Z 100034d0 f i c_ragebot.obj
 0001:000024d0       ??$_Unfancy@Udamage_infos@@@std@@YAPAUdamage_infos@@PAU1@@Z 100034d0 f i c_esp.obj
 0001:000024d0       ??$forward@AAPAU?$_List_node@U?$pair@$$CBIUanimation_info@c_animation_system@@@std@@PAX@std@@@std@@YAAAPAU?$_List_node@U?$pair@$$CBIUanimation_info@c_animation_system@@@std@@PAX@0@AAPAU10@@Z 100034d0 f i aimbot_recode.obj
 0001:000024d0       ??$addressof@V?$tuple@Vc_vector3d@@MPAUanimation@c_animation_system@@M@std@@@std@@YAPAV?$tuple@Vc_vector3d@@MPAUanimation@c_animation_system@@M@0@AAV10@@Z 100034d0 f i c_aimhelper.obj
 0001:000024d0       ??$move@AAV?$tuple@$$QAI@std@@@std@@YA$$QAV?$tuple@$$QAI@0@AAV10@@Z 100034d0 f i aimbot_recode.obj
 0001:000024d0       ??$forward@ABQAU?$_List_node@U?$pair@$$CBIUanimation_info@c_animation_system@@@std@@PAX@std@@@std@@YAABQAU?$_List_node@U?$pair@$$CBIUanimation_info@c_animation_system@@@std@@PAX@0@ABQAU10@@Z 100034d0 f i c_animation_system.obj
 0001:000024d0       ??$addressof@PAU?$_List_node@U?$pair@$$CBIUnetvar@c_netvar@@@std@@PAX@std@@@std@@YAPAPAU?$_List_node@U?$pair@$$CBIUnetvar@c_netvar@@@std@@PAX@0@AAPAU10@@Z 100034d0 f i aimbot_recode.obj
 0001:000024d0       ??$forward@AAVc_vector3d@@@std@@YAAAVc_vector3d@@AAV1@@Z 100034d0 f i aimbot_recode.obj
 0001:000024d0       ??$forward@ABV<lambda_1>@?1???$create@V?$map@V?$basic_string@DU?$char_traits@D@std@@V?$allocator@D@2@@std@@V?$basic_json@Vmap@std@@Vvector@2@V?$basic_string@DU?$char_traits@D@std@@V?$allocator@D@2@@2@_N_J_KNVallocator@2@Uadl_serializer@nlohmann@@@nlohmann@@U?$less@X@2@V?$allocator@U?$pair@$$CBV?$basic_string@DU?$char_traits@D@std@@V?$allocator@D@2@@std@@V?$basic_json@Vmap@std@@Vvector@2@V?$basic_string@DU?$char_traits@D@std@@V?$allocator@D@2@@2@_N_J_KNVallocator@2@Uadl_serializer@nlohmann@@@nlohmann@@@std@@@2@@std@@ABV12@@?$basic_json@Vmap@std@@Vvector@2@V?$basic_string@DU?$char_traits@D@std@@V?$allocator@D@2@@2@_N_J_KNVallocator@2@Uadl_serializer@nlohmann@@@nlohmann@@CAPAV?$map@V?$basic_string@DU?$char_traits@D@std@@V?$allocator@D@2@@std@@V?$basic_json@Vmap@std@@Vvector@2@V?$basic_string@DU?$char_traits@D@std@@V?$allocator@D@2@@2@_N_J_KNVallocator@2@Uadl_serializer@nlohmann@@@nlohmann@@U?$less@X@2@V?$allocator@U?$pair@$$CBV?$basic_string@DU?$char_traits@D@std@@V?$allocator@D@2@@std@@V?$basic_json@Vmap@std@@Vvector@2@V?$basic_string@DU?$char_traits@D@std@@V?$allocator@D@2@@2@_N_J_KNVallocator@2@Uadl_serializer@nlohmann@@@nlohmann@@@std@@@2@@std@@ABV45@@Z@@std@@YAABV<lambda_1>@?1???$create@V?$map@V?$basic_string@DU?$char_traits@D@std@@V?$allocator@D@2@@std@@V?$basic_json@Vmap@std@@Vvector@2@V?$basic_string@DU?$char_traits@D@std@@V?$allocator@D@2@@2@_N_J_KNVallocator@2@Uadl_serializer@nlohmann@@@nlohmann@@U?$less@X@2@V?$allocator@U?$pair@$$CBV?$basic_string@DU?$char_traits@D@std@@V?$allocator@D@2@@std@@V?$basic_json@Vmap@std@@Vvector@2@V?$basic_string@DU?$char_traits@D@std@@V?$allocator@D@2@@2@_N_J_KNVallocator@2@Uadl_serializer@nlohmann@@@nlohmann@@@std@@@2@@std@@ABV12@@?$basic_json@Vmap@std@@Vvector@2@V?$basic_string@DU?$char_traits@D@std@@V?$allocator@D@2@@2@_N_J_KNVallocator@2@Uadl_serializer@nlohmann@@@nlohmann@@CAPAV?$map@V?$basic_string@DU?$char_traits@D@std@@V?$allocator@D@2@@std@@V?$basic_json@Vmap@std@@Vvector@2@V?$basic_string@DU?$char_traits@D@std@@V?$allocator@D@2@@2@_N_J_KNVallocator@2@Uadl_serializer@nlohmann@@@nlohmann@@U?$less@X@2@V?$allocator@U?$pair@$$CBV?$basic_string@DU?$char_traits@D@std@@V?$allocator@D@2@@std@@V?$basic_json@Vmap@std@@Vvector@2@V?$basic_string@DU?$char_traits@D@std@@V?$allocator@D@2@@2@_N_J_KNVallocator@2@Uadl_serializer@nlohmann@@@nlohmann@@@std@@@2@@0@ABV40@@Z@ABV1?1???$create@V?$map@V?$basic_string@DU?$char_traits@D@std@@V?$allocator@D@2@@std@@V?$basic_json@Vmap@std@@Vvector@2@V?$basic_string@DU?$char_traits@D@std@@V?$allocator@D@2@@2@_N_J_KNVallocator@2@Uadl_serializer@nlohmann@@@nlohmann@@U?$less@X@2@V?$allocator@U?$pair@$$CBV?$basic_string@DU?$char_traits@D@std@@V?$allocator@D@2@@std@@V?$basic_json@Vmap@std@@Vvector@2@V?$basic_string@DU?$char_traits@D@std@@V?$allocator@D@2@@2@_N_J_KNVallocator@2@Uadl_serializer@nlohmann@@@nlohmann@@@std@@@2@@std@@ABV12@@23@CAPAV40@0@Z@@Z 100034d0 f i c_menu.obj
 0001:000024d0       ??$forward@ABUmisc_conf@config_conf@c_config@@@std@@YAABUmisc_conf@config_conf@c_config@@ABU123@@Z 100034d0 f i c_menu.obj
 0001:000024d0       ??$addressof@V?$unique_ptr@V?$c_hook@I@@U?$default_delete@V?$c_hook@I@@@std@@@std@@@std@@YAPAV?$unique_ptr@V?$c_hook@I@@U?$default_delete@V?$c_hook@I@@@std@@@0@AAV10@@Z 100034d0 f i c_cs_player_.obj
 0001:000024d0       ??$forward@ABV<lambda_1>@?1???$create@V?$map@V?$basic_string@DU?$char_traits@D@std@@V?$allocator@D@2@@std@@V?$basic_json@Vmap@std@@Vvector@2@V?$basic_string@DU?$char_traits@D@std@@V?$allocator@D@2@@2@_N_J_KNVallocator@2@Uadl_serializer@nlohmann@@@nlohmann@@U?$less@X@2@V?$allocator@U?$pair@$$CBV?$basic_string@DU?$char_traits@D@std@@V?$allocator@D@2@@std@@V?$basic_json@Vmap@std@@Vvector@2@V?$basic_string@DU?$char_traits@D@std@@V?$allocator@D@2@@2@_N_J_KNVallocator@2@Uadl_serializer@nlohmann@@@nlohmann@@@std@@@2@@std@@$$V@?$basic_json@Vmap@std@@Vvector@2@V?$basic_string@DU?$char_traits@D@std@@V?$allocator@D@2@@2@_N_J_KNVallocator@2@Uadl_serializer@nlohmann@@@nlohmann@@CAPAV?$map@V?$basic_string@DU?$char_traits@D@std@@V?$allocator@D@2@@std@@V?$basic_json@Vmap@std@@Vvector@2@V?$basic_string@DU?$char_traits@D@std@@V?$allocator@D@2@@2@_N_J_KNVallocator@2@Uadl_serializer@nlohmann@@@nlohmann@@U?$less@X@2@V?$allocator@U?$pair@$$CBV?$basic_string@DU?$char_traits@D@std@@V?$allocator@D@2@@std@@V?$basic_json@Vmap@std@@Vvector@2@V?$basic_string@DU?$char_traits@D@std@@V?$allocator@D@2@@2@_N_J_KNVallocator@2@Uadl_serializer@nlohmann@@@nlohmann@@@std@@@2@@std@@XZ@@std@@YAABV<lambda_1>@?1???$create@V?$map@V?$basic_string@DU?$char_traits@D@std@@V?$allocator@D@2@@std@@V?$basic_json@Vmap@std@@Vvector@2@V?$basic_string@DU?$char_traits@D@std@@V?$allocator@D@2@@2@_N_J_KNVallocator@2@Uadl_serializer@nlohmann@@@nlohmann@@U?$less@X@2@V?$allocator@U?$pair@$$CBV?$basic_string@DU?$char_traits@D@std@@V?$allocator@D@2@@std@@V?$basic_json@Vmap@std@@Vvector@2@V?$basic_string@DU?$char_traits@D@std@@V?$allocator@D@2@@2@_N_J_KNVallocator@2@Uadl_serializer@nlohmann@@@nlohmann@@@std@@@2@@std@@$$V@?$basic_json@Vmap@std@@Vvector@2@V?$basic_string@DU?$char_traits@D@std@@V?$allocator@D@2@@2@_N_J_KNVallocator@2@Uadl_serializer@nlohmann@@@nlohmann@@CAPAV?$map@V?$basic_string@DU?$char_traits@D@std@@V?$allocator@D@2@@std@@V?$basic_json@Vmap@std@@Vvector@2@V?$basic_string@DU?$char_traits@D@std@@V?$allocator@D@2@@2@_N_J_KNVallocator@2@Uadl_serializer@nlohmann@@@nlohmann@@U?$less@X@2@V?$allocator@U?$pair@$$CBV?$basic_string@DU?$char_traits@D@std@@V?$allocator@D@2@@std@@V?$basic_json@Vmap@std@@Vvector@2@V?$basic_string@DU?$char_traits@D@std@@V?$allocator@D@2@@2@_N_J_KNVallocator@2@Uadl_serializer@nlohmann@@@nlohmann@@@std@@@2@@0@XZ@ABV1?1???$create@V?$map@V?$basic_string@DU?$char_traits@D@std@@V?$allocator@D@2@@std@@V?$basic_json@Vmap@std@@Vvector@2@V?$basic_string@DU?$char_traits@D@std@@V?$allocator@D@2@@2@_N_J_KNVallocator@2@Uadl_serializer@nlohmann@@@nlohmann@@U?$less@X@2@V?$allocator@U?$pair@$$CBV?$basic_string@DU?$char_traits@D@std@@V?$allocator@D@2@@std@@V?$basic_json@Vmap@std@@Vvector@2@V?$basic_string@DU?$char_traits@D@std@@V?$allocator@D@2@@2@_N_J_KNVallocator@2@Uadl_serializer@nlohmann@@@nlohmann@@@std@@@2@@std@@$$V@23@CAPAV40@XZ@@Z 100034d0 f i c_menu.obj
 0001:000024d0       ??$addressof@U?$pair@$$CBIVc_font@@@std@@@std@@YAPAU?$pair@$$CBIVc_font@@@0@AAU10@@Z 100034d0 f i c_damageesp.obj
 0001:000024d0       ??$forward@AAPAV?$vector@V?$basic_json@Vmap@std@@Vvector@2@V?$basic_string@DU?$char_traits@D@std@@V?$allocator@D@2@@2@_N_J_KNVallocator@2@Uadl_serializer@nlohmann@@@nlohmann@@V?$allocator@V?$basic_json@Vmap@std@@Vvector@2@V?$basic_string@DU?$char_traits@D@std@@V?$allocator@D@2@@2@_N_J_KNVallocator@2@Uadl_serializer@nlohmann@@@nlohmann@@@std@@@std@@@std@@YAAAPAV?$vector@V?$basic_json@Vmap@std@@Vvector@2@V?$basic_string@DU?$char_traits@D@std@@V?$allocator@D@2@@2@_N_J_KNVallocator@2@Uadl_serializer@nlohmann@@@nlohmann@@V?$allocator@V?$basic_json@Vmap@std@@Vvector@2@V?$basic_string@DU?$char_traits@D@std@@V?$allocator@D@2@@2@_N_J_KNVallocator@2@Uadl_serializer@nlohmann@@@nlohmann@@@std@@@0@AAPAV10@@Z 100034d0 f i c_menu.obj
 0001:000024d0       ??$_Get_unwrapped@PAVLua_Hook@@@std@@YAPAPAVLua_Hook@@QAPAV1@@Z 100034d0 f i LuaAPI.obj
 0001:000024d0       ??$_Unfancy_maybe_null@H@std@@YAPAHPAH@Z 100034d0 f i aimbot_recode.obj
 0001:000024d0       ??$forward@Uwall_pen@c_trace_system@@@std@@YA$$QAUwall_pen@c_trace_system@@AAU12@@Z 100034d0 f i c_trace_system.obj
 0001:000024d0       ??$forward@ABV<lambda_1>@?1???$create@V?$basic_string@DU?$char_traits@D@std@@V?$allocator@D@2@@std@@AAY00$$CBD@?$basic_json@Vmap@std@@Vvector@2@V?$basic_string@DU?$char_traits@D@std@@V?$allocator@D@2@@2@_N_J_KNVallocator@2@Uadl_serializer@nlohmann@@@nlohmann@@CAPAV?$basic_string@DU?$char_traits@D@std@@V?$allocator@D@2@@std@@AAY00$$CBD@Z@@std@@YAABV<lambda_1>@?1???$create@V?$basic_string@DU?$char_traits@D@std@@V?$allocator@D@2@@std@@AAY00$$CBD@?$basic_json@Vmap@std@@Vvector@2@V?$basic_string@DU?$char_traits@D@std@@V?$allocator@D@2@@2@_N_J_KNVallocator@2@Uadl_serializer@nlohmann@@@nlohmann@@CAPAV?$basic_string@DU?$char_traits@D@std@@V?$allocator@D@2@@0@AAY00$$CBD@Z@ABV1?1???$create@V?$basic_string@DU?$char_traits@D@std@@V?$allocator@D@2@@std@@AAY00$$CBD@23@CAPAV40@0@Z@@Z 100034d0 f i c_menu.obj
 0001:000024d0       ??$forward@AAV?$basic_json@Vmap@std@@Vvector@2@V?$basic_string@DU?$char_traits@D@std@@V?$allocator@D@2@@2@_N_J_KNVallocator@2@Uadl_serializer@nlohmann@@@nlohmann@@@std@@YAAAV?$basic_json@Vmap@std@@Vvector@2@V?$basic_string@DU?$char_traits@D@std@@V?$allocator@D@2@@2@_N_J_KNVallocator@2@Uadl_serializer@nlohmann@@@nlohmann@@AAV12@@Z 100034d0 f i c_menu.obj
 0001:000024d0       ??$addressof@PAU?$_List_node@U?$pair@QAVc_hotkey_select@@V?$function@$$A6AXI@Z@std@@@std@@PAX@std@@@std@@YAPAPAU?$_List_node@U?$pair@QAVc_hotkey_select@@V?$function@$$A6AXI@Z@std@@@std@@PAX@0@AAPAU10@@Z 100034d0 f i c_hotkeys.obj
 0001:000024d0       ??$_Unfancy@M@std@@YAPAMPAM@Z 100034d0 f i c_font.obj
 0001:000024d0       ??$addressof@V?$_Deque_val@U?$_Deque_simple_types@Ushot@resolver@@@std@@@std@@@std@@YAPAV?$_Deque_val@U?$_Deque_simple_types@Ushot@resolver@@@std@@@0@AAV10@@Z 100034d0 f i c_resolver.obj
 0001:000024d0       ??$forward@ABUantiaim_conf@rage_conf@config_conf@c_config@@@std@@YAABUantiaim_conf@rage_conf@config_conf@c_config@@ABU1234@@Z 100034d0 f i c_menu.obj
 0001:000024d0       ??$forward@U?$default_delete@V?$c_hook@I@@@std@@@std@@YA$$QAU?$default_delete@V?$c_hook@I@@@0@AAU10@@Z 100034d0 f i c_cs_player_.obj
 0001:000024d0       ??$addressof@$$CBV?$_List_val@U?$_List_simple_types@U?$pair@$$CBIUanimation_info@c_animation_system@@@std@@@std@@@std@@@std@@YAPBV?$_List_val@U?$_List_simple_types@U?$pair@$$CBIUanimation_info@c_animation_system@@@std@@@std@@@0@ABV10@@Z 100034d0 f i c_animation_system.obj
 0001:000024d0       ??$forward@ABU?$less@X@std@@@std@@YAABU?$less@X@0@ABU10@@Z 100034d0 f i c_menu.obj
 0001:000024d0       ??$_Unfancy@Uplayer_info@c_esp@@@std@@YAPAUplayer_info@c_esp@@PAU12@@Z 100034d0 f i c_esp.obj
 0001:000024d0       ??$move@AAPAUanimation@c_animation_system@@@std@@YA$$QAPAUanimation@c_animation_system@@AAPAU12@@Z 100034d0 f i c_animation_system.obj
 0001:000024d0       ??$_Convert_size@I@std@@YAII@Z 100034d0 f i aimbot_recode.obj
 0001:000024d0       ??$_Unfancy@UCIncomingSequence@@@std@@YAPAUCIncomingSequence@@PAU1@@Z 100034d0 f i c_fake_ping.obj
 0001:000024d0       ??$_Unfancy@V?$basic_json@Vmap@std@@Vvector@2@V?$basic_string@DU?$char_traits@D@std@@V?$allocator@D@2@@2@_N_J_KNVallocator@2@Uadl_serializer@nlohmann@@@nlohmann@@@std@@YAPAV?$basic_json@Vmap@std@@Vvector@2@V?$basic_string@DU?$char_traits@D@std@@V?$allocator@D@2@@2@_N_J_KNVallocator@2@Uadl_serializer@nlohmann@@@nlohmann@@PAV12@@Z 100034d0 f i c_menu.obj
 0001:000024d0       ??$_Unfancy@Vc_vector2d@@@std@@YAPAVc_vector2d@@PAV1@@Z 100034d0 f i c_renderer.obj
 0001:000024d0       ??$forward@AAM@std@@YAAAMAAM@Z 100034d0 f i c_aimhelper.obj
 0001:000024d0       ??$addressof@U?$pair@V?$shared_ptr@Vc_drawable@@@std@@U?$pair@Vc_vector2d@@V1@@2@@std@@@std@@YAPAU?$pair@V?$shared_ptr@Vc_drawable@@@std@@U?$pair@Vc_vector2d@@V1@@2@@0@AAU10@@Z 100034d0 f i c_flow_layout.obj
 0001:000024d0       ??$forward@AAV<lambda_1>@?1??for_each_player_fixed_z_order@c_client_entity_list@@QAEXV?$function@$$A6AXPAVc_cs_player@@@Z@std@@@Z@@std@@YAAAV<lambda_1>@?1??for_each_player_fixed_z_order@c_client_entity_list@@QAEXV?$function@$$A6AXPAVc_cs_player@@@Z@0@@Z@AAV1?1??23@QAEX0@Z@@Z 100034d0 f i c_chams.obj
 0001:000024d0       ??$forward@ABD@std@@YAABDABD@Z 100034d0 f i c_esp.obj
 0001:000024d0       ??$addressof@$$CBV?$_Vector_val@U?$_Simple_types@H@std@@@std@@@std@@YAPBV?$_Vector_val@U?$_Simple_types@H@std@@@0@ABV10@@Z 100034d0 f i grenade_prediction.obj
 0001:000024d0       ?select_on_container_copy_construction@?$_Default_allocator_traits@V?$allocator@V?$basic_json@Vmap@std@@Vvector@2@V?$basic_string@DU?$char_traits@D@std@@V?$allocator@D@2@@2@_N_J_KNVallocator@2@Uadl_serializer@nlohmann@@@nlohmann@@@std@@@std@@SA?AV?$allocator@V?$basic_json@Vmap@std@@Vvector@2@V?$basic_string@DU?$char_traits@D@std@@V?$allocator@D@2@@2@_N_J_KNVallocator@2@Uadl_serializer@nlohmann@@@nlohmann@@@2@ABV32@@Z 100034d0 f i c_menu.obj
 0001:000024d0       ??$move@AAV?$shared_ptr@Vinput_buffer_adapter@detail@nlohmann@@@std@@@std@@YA$$QAV?$shared_ptr@Vinput_buffer_adapter@detail@nlohmann@@@0@AAV10@@Z 100034d0 f i c_menu.obj
 0001:000024d0       ??$move@AAV?$deque@Uanimation@c_animation_system@@V?$allocator@Uanimation@c_animation_system@@@std@@@std@@@std@@YA$$QAV?$deque@Uanimation@c_animation_system@@V?$allocator@Uanimation@c_animation_system@@@std@@@0@AAV10@@Z 100034d0 f i c_animation_system.obj
 0001:000024d0       ??$forward@AB_N@std@@YAAB_NAB_N@Z 100034d0 f i c_menu.obj
 0001:000024d0       ??$forward@PAVLua_Hook@@@std@@YA$$QAPAVLua_Hook@@AAPAV1@@Z 100034d0 f i LuaAPI.obj
 0001:000024d0       ??$move@AAU?$pair@V?$shared_ptr@Vc_drawable@@@std@@U?$pair@Vc_vector2d@@V1@@2@@std@@@std@@YA$$QAU?$pair@V?$shared_ptr@Vc_drawable@@@std@@U?$pair@Vc_vector2d@@V1@@2@@0@AAU10@@Z 100034d0 f i c_checkbox.obj
 0001:000024d0       ??$forward@V?$tuple@M@std@@@std@@YA$$QAV?$tuple@M@0@AAV10@@Z 100034d0 f i c_aimhelper.obj
 0001:000024d0       ??$get@$02Vc_vector3d@@PAUanimation@c_animation_system@@MM@std@@YAAAMAAV?$tuple@Vc_vector3d@@PAUanimation@c_animation_system@@MM@0@@Z 100034d0 f i c_aimhelper.obj
 0001:000024d0       ??$_Get_unwrapped@QAUanimation@c_animation_system@@@std@@YAPBQAUanimation@c_animation_system@@QBQAU12@@Z 100034d0 f i c_aimhelper.obj
 0001:000024d0       ??$move@AAVc_vector3d@@@std@@YA$$QAVc_vector3d@@AAV1@@Z 100034d0 f i aimbot_recode.obj
 0001:000024d0       ??$addressof@U_Container_proxy@std@@@std@@YAPAU_Container_proxy@0@AAU10@@Z 100034d0 f i aimbot_recode.obj
 0001:000024d0       ??$_Get_unwrapped@$$CBV?$json_ref@V?$basic_json@Vmap@std@@Vvector@2@V?$basic_string@DU?$char_traits@D@std@@V?$allocator@D@2@@2@_N_J_KNVallocator@2@Uadl_serializer@nlohmann@@@nlohmann@@@detail@nlohmann@@@std@@YAPBV?$json_ref@V?$basic_json@Vmap@std@@Vvector@2@V?$basic_string@DU?$char_traits@D@std@@V?$allocator@D@2@@2@_N_J_KNVallocator@2@Uadl_serializer@nlohmann@@@nlohmann@@@detail@nlohmann@@QBV123@@Z 100034d0 f i c_menu.obj
 0001:000024d0       ??$addressof@V?$_Vector_val@U?$_Simple_types@U?$pair@PAVc_cs_player@@M@std@@@std@@@std@@@std@@YAPAV?$_Vector_val@U?$_Simple_types@U?$pair@PAVc_cs_player@@M@std@@@std@@@0@AAV10@@Z 100034d0 f i c_chams.obj
 0001:000024d0       ??$forward@V?$tuple@Vc_vector3d@@MPAUanimation@c_animation_system@@M@std@@@std@@YA$$QAV?$tuple@Vc_vector3d@@MPAUanimation@c_animation_system@@M@0@AAV10@@Z 100034d0 f i c_aimhelper.obj
 0001:000024d0       ??$forward@PAU?$_List_node@U?$pair@$$CBIV?$unordered_map@IUnetvar@c_netvar@@U?$hash@I@std@@U?$equal_to@I@4@V?$allocator@U?$pair@$$CBIUnetvar@c_netvar@@@std@@@4@@std@@@std@@PAX@std@@@std@@YA$$QAPAU?$_List_node@U?$pair@$$CBIV?$unordered_map@IUnetvar@c_netvar@@U?$hash@I@std@@U?$equal_to@I@4@V?$allocator@U?$pair@$$CBIUnetvar@c_netvar@@@std@@@4@@std@@@std@@PAX@0@AAPAU10@@Z 100034d0 f i aimbot_recode.obj
 0001:000024d0       ??$forward@AAPAV?$map@V?$basic_string@DU?$char_traits@D@std@@V?$allocator@D@2@@std@@V?$basic_json@Vmap@std@@Vvector@2@V?$basic_string@DU?$char_traits@D@std@@V?$allocator@D@2@@2@_N_J_KNVallocator@2@Uadl_serializer@nlohmann@@@nlohmann@@U?$less@X@2@V?$allocator@U?$pair@$$CBV?$basic_string@DU?$char_traits@D@std@@V?$allocator@D@2@@std@@V?$basic_json@Vmap@std@@Vvector@2@V?$basic_string@DU?$char_traits@D@std@@V?$allocator@D@2@@2@_N_J_KNVallocator@2@Uadl_serializer@nlohmann@@@nlohmann@@@std@@@2@@std@@@std@@YAAAPAV?$map@V?$basic_string@DU?$char_traits@D@std@@V?$allocator@D@2@@std@@V?$basic_json@Vmap@std@@Vvector@2@V?$basic_string@DU?$char_traits@D@std@@V?$allocator@D@2@@2@_N_J_KNVallocator@2@Uadl_serializer@nlohmann@@@nlohmann@@U?$less@X@2@V?$allocator@U?$pair@$$CBV?$basic_string@DU?$char_traits@D@std@@V?$allocator@D@2@@std@@V?$basic_json@Vmap@std@@Vvector@2@V?$basic_string@DU?$char_traits@D@std@@V?$allocator@D@2@@2@_N_J_KNVallocator@2@Uadl_serializer@nlohmann@@@nlohmann@@@std@@@2@@0@AAPAV10@@Z 100034d0 f i c_menu.obj
 0001:000024d0       ??$move@AAW4value_t@detail@nlohmann@@@std@@YA$$QAW4value_t@detail@nlohmann@@AAW4123@@Z 100034d0 f i c_menu.obj
 0001:000024d0       ??$addressof@V?$basic_stringbuf@DU?$char_traits@D@std@@V?$allocator@D@2@@std@@@std@@YAPAV?$basic_stringbuf@DU?$char_traits@D@std@@V?$allocator@D@2@@0@AAV10@@Z 100034d0 f i c_menu.obj
 0001:000024d0       ??$_Get_unwrapped@V?$basic_string@DU?$char_traits@D@std@@V?$allocator@D@2@@std@@@std@@YAPAV?$basic_string@DU?$char_traits@D@std@@V?$allocator@D@2@@0@QAV10@@Z 100034d0 f i ImConsole.obj
 0001:000024d0       ??$_Get_unwrapped@PAUshot@resolver@@@std@@YAPAPAUshot@resolver@@QAPAU12@@Z 100034d0 f i c_resolver.obj
 0001:000024d0       ??$forward@ABUplayer@esp_conf@config_conf@c_config@@@std@@YAABUplayer@esp_conf@config_conf@c_config@@ABU1234@@Z 100034d0 f i c_menu.obj
 0001:000024d0       ??$_Get_unwrapped@V?$function@$$A6AXI@Z@std@@@std@@YAPAV?$function@$$A6AXI@Z@0@QAV10@@Z 100034d0 f i c_hotkeys.obj
 0001:000024d0       ??$addressof@V?$_Vector_val@U?$_Simple_types@PAVLua_Hook@@@std@@@std@@@std@@YAPAV?$_Vector_val@U?$_Simple_types@PAVLua_Hook@@@std@@@0@AAV10@@Z 100034d0 f i LuaAPI.obj
 0001:000024d0       ??$_Get_unwrapped@$$CBH@std@@YAPBHQBH@Z 100034d0 f i grenade_prediction.obj
 0001:000024d0       ??$forward@ABM@std@@YAABMABM@Z 100034d0 f i aimbot_recode.obj
 0001:000024d0       ??$move@AAV?$shared_ptr@Vc_drawable@@@std@@@std@@YA$$QAV?$shared_ptr@Vc_drawable@@@0@AAV10@@Z 100034d0 f i c_checkbox.obj
 0001:000024d0       ??$_Get_unwrapped@Vc_vector2d@@@std@@YAPAVc_vector2d@@QAV1@@Z 100034d0 f i c_renderer.obj
 0001:000024d0       ??$move@AAV?$basic_json@Vmap@std@@Vvector@2@V?$basic_string@DU?$char_traits@D@std@@V?$allocator@D@2@@2@_N_J_KNVallocator@2@Uadl_serializer@nlohmann@@@nlohmann@@@std@@YA$$QAV?$basic_json@Vmap@std@@Vvector@2@V?$basic_string@DU?$char_traits@D@std@@V?$allocator@D@2@@2@_N_J_KNVallocator@2@Uadl_serializer@nlohmann@@@nlohmann@@AAV12@@Z 100034d0 f i c_menu.obj
 0001:000024d0       ??$forward@ABU?$less@H@std@@@std@@YAABU?$less@H@0@ABU10@@Z 100034d0 f i c_prediction_.obj
 0001:000024d0       ??$_Get_unwrapped@Vc_vector3d@@@std@@YAPAVc_vector3d@@QAV1@@Z 100034d0 f i aimbot_recode.obj
 0001:000024d0       ??$_Unfancy@Uanimation@c_animation_system@@@std@@YAPAUanimation@c_animation_system@@PAU12@@Z 100034d0 f i aimbot_recode.obj
 0001:000024d0       ??$forward@$$T@std@@YA$$QA$$TAA$$T@Z 100034d0 f i c_aimhelper.obj
 0001:000024e0       ??$_Ungetc@D@std@@YA_NABDPAU_iobuf@@@Z 100034e0 f i dll.obj
 0001:00002520       ??$exchange@PAU_Container_proxy@std@@$$T@std@@YAPAU_Container_proxy@0@AAPAU10@$$QA$$T@Z 10003520 f i aimbot_recode.obj
 0001:00002520       ??$exchange@PAU?$_List_node@U?$pair@$$CBIUanimation_info@c_animation_system@@@std@@PAX@std@@$$T@std@@YAPAU?$_List_node@U?$pair@$$CBIUanimation_info@c_animation_system@@@std@@PAX@0@AAPAU10@$$QA$$T@Z 10003520 f i c_animation_system.obj
 0001:00002520       ??$exchange@PAV?$vector@V?$basic_json@Vmap@std@@Vvector@2@V?$basic_string@DU?$char_traits@D@std@@V?$allocator@D@2@@2@_N_J_KNVallocator@2@Uadl_serializer@nlohmann@@@nlohmann@@V?$allocator@V?$basic_json@Vmap@std@@Vvector@2@V?$basic_string@DU?$char_traits@D@std@@V?$allocator@D@2@@2@_N_J_KNVallocator@2@Uadl_serializer@nlohmann@@@nlohmann@@@std@@@std@@PAV12@@std@@YAPAV?$vector@V?$basic_json@Vmap@std@@Vvector@2@V?$basic_string@DU?$char_traits@D@std@@V?$allocator@D@2@@2@_N_J_KNVallocator@2@Uadl_serializer@nlohmann@@@nlohmann@@V?$allocator@V?$basic_json@Vmap@std@@Vvector@2@V?$basic_string@DU?$char_traits@D@std@@V?$allocator@D@2@@2@_N_J_KNVallocator@2@Uadl_serializer@nlohmann@@@nlohmann@@@std@@@0@AAPAV10@$$QAPAV10@@Z 10003520 f i c_menu.obj
 0001:00002520       ??$exchange@PAV?$map@V?$basic_string@DU?$char_traits@D@std@@V?$allocator@D@2@@std@@V?$basic_json@Vmap@std@@Vvector@2@V?$basic_string@DU?$char_traits@D@std@@V?$allocator@D@2@@2@_N_J_KNVallocator@2@Uadl_serializer@nlohmann@@@nlohmann@@U?$less@X@2@V?$allocator@U?$pair@$$CBV?$basic_string@DU?$char_traits@D@std@@V?$allocator@D@2@@std@@V?$basic_json@Vmap@std@@Vvector@2@V?$basic_string@DU?$char_traits@D@std@@V?$allocator@D@2@@2@_N_J_KNVallocator@2@Uadl_serializer@nlohmann@@@nlohmann@@@std@@@2@@std@@PAV12@@std@@YAPAV?$map@V?$basic_string@DU?$char_traits@D@std@@V?$allocator@D@2@@std@@V?$basic_json@Vmap@std@@Vvector@2@V?$basic_string@DU?$char_traits@D@std@@V?$allocator@D@2@@2@_N_J_KNVallocator@2@Uadl_serializer@nlohmann@@@nlohmann@@U?$less@X@2@V?$allocator@U?$pair@$$CBV?$basic_string@DU?$char_traits@D@std@@V?$allocator@D@2@@std@@V?$basic_json@Vmap@std@@Vvector@2@V?$basic_string@DU?$char_traits@D@std@@V?$allocator@D@2@@2@_N_J_KNVallocator@2@Uadl_serializer@nlohmann@@@nlohmann@@@std@@@2@@0@AAPAV10@$$QAPAV10@@Z 10003520 f i c_menu.obj
 0001:00002520       ??$exchange@PAIAAPAI@std@@YAPAIAAPAI0@Z 10003520 f i cte_effects.obj
 0001:00002520       ??$exchange@PAIPAI@std@@YAPAIAAPAI$$QAPAI@Z 10003520 f i cte_effects.obj
 0001:00002520       ??$exchange@PAU?$_List_node@U?$pair@$$CBIV?$unordered_map@IUnetvar@c_netvar@@U?$hash@I@std@@U?$equal_to@I@4@V?$allocator@U?$pair@$$CBIUnetvar@c_netvar@@@std@@@4@@std@@@std@@PAX@std@@$$T@std@@YAPAU?$_List_node@U?$pair@$$CBIV?$unordered_map@IUnetvar@c_netvar@@U?$hash@I@std@@U?$equal_to@I@4@V?$allocator@U?$pair@$$CBIUnetvar@c_netvar@@@std@@@4@@std@@@std@@PAX@0@AAPAU10@$$QA$$T@Z 10003520 f i aimbot_recode.obj
 0001:00002520       ??$exchange@PAV_Facet_base@std@@PAV12@@std@@YAPAV_Facet_base@0@AAPAV10@$$QAPAV10@@Z 10003520 f i dll.obj
 0001:00002520       ??$exchange@PAV?$c_hook@I@@PAV1@@std@@YAPAV?$c_hook@I@@AAPAV1@$$QAPAV1@@Z 10003520 f i c_cs_player_.obj
 0001:00002520       ??$exchange@PAU?$_List_node@U?$pair@$$CBIVc_font@@@std@@PAX@std@@$$T@std@@YAPAU?$_List_node@U?$pair@$$CBIVc_font@@@std@@PAX@0@AAPAU10@$$QA$$T@Z 10003520 f i c_renderer.obj
 0001:00002520       ??$exchange@PAU?$_Tree_node@U?$pair@$$CBHH@std@@PAX@std@@AAPAU12@@std@@YAPAU?$_Tree_node@U?$pair@$$CBHH@std@@PAX@0@AAPAU10@0@Z 10003520 f i c_prediction_.obj
 0001:00002520       ??$exchange@PAV?$basic_string@DU?$char_traits@D@std@@V?$allocator@D@2@@std@@PAV12@@std@@YAPAV?$basic_string@DU?$char_traits@D@std@@V?$allocator@D@2@@0@AAPAV10@$$QAPAV10@@Z 10003520 f i c_menu.obj
 0001:00002520       ??$exchange@PAV?$c_hook@I@@AAPAV1@@std@@YAPAV?$c_hook@I@@AAPAV1@0@Z 10003520 f i c_client.obj
 0001:00002520       ??$exchange@PAU?$_Tree_node@U?$pair@$$CBV?$basic_string@DU?$char_traits@D@std@@V?$allocator@D@2@@std@@V?$basic_json@Vmap@std@@Vvector@2@V?$basic_string@DU?$char_traits@D@std@@V?$allocator@D@2@@2@_N_J_KNVallocator@2@Uadl_serializer@nlohmann@@@nlohmann@@@std@@PAX@std@@AAPAU12@@std@@YAPAU?$_Tree_node@U?$pair@$$CBV?$basic_string@DU?$char_traits@D@std@@V?$allocator@D@2@@std@@V?$basic_json@Vmap@std@@Vvector@2@V?$basic_string@DU?$char_traits@D@std@@V?$allocator@D@2@@2@_N_J_KNVallocator@2@Uadl_serializer@nlohmann@@@nlohmann@@@std@@PAX@0@AAPAU10@0@Z 10003520 f i c_menu.obj
 0001:00002520       ??$exchange@PAU?$_List_node@U?$pair@$$CBIUnetvar@c_netvar@@@std@@PAX@std@@$$T@std@@YAPAU?$_List_node@U?$pair@$$CBIUnetvar@c_netvar@@@std@@PAX@0@AAPAU10@$$QA$$T@Z 10003520 f i aimbot_recode.obj
 0001:00002520       ??$exchange@PAU?$_Tree_node@U?$pair@$$CBHH@std@@PAX@std@@$$T@std@@YAPAU?$_Tree_node@U?$pair@$$CBHH@std@@PAX@0@AAPAU10@$$QA$$T@Z 10003520 f i c_prediction_.obj
 0001:00002520       ??$exchange@PAU?$_Tree_node@U?$pair@$$CBV?$basic_string@DU?$char_traits@D@std@@V?$allocator@D@2@@std@@V?$basic_json@Vmap@std@@Vvector@2@V?$basic_string@DU?$char_traits@D@std@@V?$allocator@D@2@@2@_N_J_KNVallocator@2@Uadl_serializer@nlohmann@@@nlohmann@@@std@@PAX@std@@$$T@std@@YAPAU?$_Tree_node@U?$pair@$$CBV?$basic_string@DU?$char_traits@D@std@@V?$allocator@D@2@@std@@V?$basic_json@Vmap@std@@Vvector@2@V?$basic_string@DU?$char_traits@D@std@@V?$allocator@D@2@@2@_N_J_KNVallocator@2@Uadl_serializer@nlohmann@@@nlohmann@@@std@@PAX@0@AAPAU10@$$QA$$T@Z 10003520 f i c_menu.obj
 0001:00002540       ??$use_facet@V?$codecvt@DDU_Mbstatet@@@std@@@std@@YAABV?$codecvt@DDU_Mbstatet@@@0@ABVlocale@0@@Z 10003540 f i dll.obj
 0001:00002650       ??0?$_String_val@U?$_Simple_types@D@std@@@std@@QAE@XZ 10003650 f i dll.obj
 0001:00002680       ?_Get_first@?$_Compressed_pair@V?$allocator@VImConsoleTextItem@@@std@@V?$_Vector_val@U?$_Simple_types@VImConsoleTextItem@@@std@@@2@$00@std@@QAEAAV?$allocator@VImConsoleTextItem@@@2@XZ 10003680 f i ImConsole.obj
 0001:00002680       ??0?$allocator@V?$basic_json@Vmap@std@@Vvector@2@V?$basic_string@DU?$char_traits@D@std@@V?$allocator@D@2@@2@_N_J_KNVallocator@2@Uadl_serializer@nlohmann@@@nlohmann@@@std@@QAE@XZ 10003680 f i c_menu.obj
 0001:00002680       ?_Get_rest@?$tuple@Vc_vector3d@@PAUanimation@c_animation_system@@MH@std@@QAEAAV?$tuple@PAUanimation@c_animation_system@@MH@2@XZ 10003680 f i c_aimhelper.obj
 0001:00002680       ?_Get_first@?$_Compressed_pair@V?$allocator@V?$_List_unchecked_iterator@V?$_List_val@U?$_List_simple_types@U?$pair@$$CBIUanimation_info@c_animation_system@@@std@@@std@@@std@@@std@@@std@@V?$_Vector_val@U?$_Simple_types@V?$_List_unchecked_iterator@V?$_List_val@U?$_List_simple_types@U?$pair@$$CBIUanimation_info@c_animation_system@@@std@@@std@@@std@@@std@@@std@@@2@$00@std@@QAEAAV?$allocator@V?$_List_unchecked_iterator@V?$_List_val@U?$_List_simple_types@U?$pair@$$CBIUanimation_info@c_animation_system@@@std@@@std@@@std@@@std@@@2@XZ 10003680 f i aimbot_recode.obj
 0001:00002680       ??0?$allocator@Ushot@resolver@@@std@@QAE@XZ 10003680 f i aimbot_recode.obj
 0001:00002680       ?_Get_first@?$_Compressed_pair@V?$allocator@V?$_List_unchecked_iterator@V?$_List_val@U?$_List_simple_types@U?$pair@$$CBIUnetvar@c_netvar@@@std@@@std@@@std@@@std@@@std@@V?$_Vector_val@U?$_Simple_types@V?$_List_unchecked_iterator@V?$_List_val@U?$_List_simple_types@U?$pair@$$CBIUnetvar@c_netvar@@@std@@@std@@@std@@@std@@@std@@@2@$00@std@@QBEABV?$allocator@V?$_List_unchecked_iterator@V?$_List_val@U?$_List_simple_types@U?$pair@$$CBIUnetvar@c_netvar@@@std@@@std@@@std@@@std@@@2@XZ 10003680 f i aimbot_recode.obj
 0001:00002680       ?_Get_rest@?$tuple@PAUanimation@c_animation_system@@M@std@@QAEAAV?$tuple@M@2@XZ 10003680 f i c_aimhelper.obj
 0001:00002680       ?_Get_rest@?$tuple@Vc_vector3d@@PAUanimation@c_animation_system@@M@std@@QAEAAV?$tuple@PAUanimation@c_animation_system@@M@2@XZ 10003680 f i c_aimhelper.obj
 0001:00002680       ?_Get_first@?$_Compressed_pair@V?$allocator@V?$tuple@MMM@std@@@std@@V?$_Vector_val@U?$_Simple_types@V?$tuple@MMM@std@@@std@@@2@$00@std@@QBEABV?$allocator@V?$tuple@MMM@std@@@2@XZ 10003680 f i c_aimhelper.obj
 0001:00002680       ?_Get_max_bucket_size@?$_Uhash_compare@IU?$hash@I@std@@U?$equal_to@I@2@@std@@QAEAAMXZ 10003680 f i aimbot_recode.obj
 0001:00002680       ?_Get_rest@?$tuple@M@std@@QAEAAV?$tuple@$$V@2@XZ 10003680 f i c_aimhelper.obj
 0001:00002680       ??0?$allocator@V?$function@$$A6AXI@Z@std@@@std@@QAE@XZ 10003680 f i c_hotkeys.obj
 0001:00002680       ??0?$allocator@U?$pair@$$CBIPAVCD3DFont@@@std@@@std@@QAE@XZ 10003680 f i c_renderer.obj
 0001:00002680       ??0?$_Func_base@XI@std@@QAE@XZ 10003680 f i c_fake_ping.obj
 0001:00002680       ??0?$allocator@Uanimation@c_animation_system@@@std@@QAE@XZ 10003680 f i c_animation_system.obj
 0001:00002680       ?_Get_rest@?$tuple@H@std@@QAEAAV?$tuple@$$V@2@XZ 10003680 f i c_aimhelper.obj
 0001:00002680       ?_Get_first@?$_Compressed_pair@V?$allocator@Vc_vector2d@@@std@@V?$_Vector_val@U?$_Simple_types@Vc_vector2d@@@std@@@2@$00@std@@QBEABV?$allocator@Vc_vector2d@@@2@XZ 10003680 f i c_renderer.obj
 0001:00002680       ?_Get_first@?$_Compressed_pair@V?$allocator@H@std@@V?$_Vector_val@U?$_Simple_types@H@std@@@2@$00@std@@QAEAAV?$allocator@H@2@XZ 10003680 f i aimbot_recode.obj
 0001:00002680       ?_Get_first@?$_Compressed_pair@V?$allocator@W4hitbox@c_cs_player@@@std@@V?$_Vector_val@U?$_Simple_types@W4hitbox@c_cs_player@@@std@@@2@$00@std@@QBEABV?$allocator@W4hitbox@c_cs_player@@@2@XZ 10003680 f i aimbot_recode.obj
 0001:00002680       ?_Get_first@?$_Compressed_pair@V?$allocator@V?$_List_unchecked_iterator@V?$_List_val@U?$_List_simple_types@U?$pair@$$CBIV?$unordered_map@IUnetvar@c_netvar@@U?$hash@I@std@@U?$equal_to@I@4@V?$allocator@U?$pair@$$CBIUnetvar@c_netvar@@@std@@@4@@std@@@std@@@std@@@std@@@std@@@std@@V?$_Vector_val@U?$_Simple_types@V?$_List_unchecked_iterator@V?$_List_val@U?$_List_simple_types@U?$pair@$$CBIV?$unordered_map@IUnetvar@c_netvar@@U?$hash@I@std@@U?$equal_to@I@4@V?$allocator@U?$pair@$$CBIUnetvar@c_netvar@@@std@@@4@@std@@@std@@@std@@@std@@@std@@@std@@@2@$00@std@@QBEABV?$allocator@V?$_List_unchecked_iterator@V?$_List_val@U?$_List_simple_types@U?$pair@$$CBIV?$unordered_map@IUnetvar@c_netvar@@U?$hash@I@std@@U?$equal_to@I@4@V?$allocator@U?$pair@$$CBIUnetvar@c_netvar@@@std@@@4@@std@@@std@@@std@@@std@@@std@@@2@XZ 10003680 f i aimbot_recode.obj
 0001:00002680       ??0random_device@std@@QAE@XZ 10003680 f i c_antiaim.obj
 0001:00002680       ?_Get_rest@?$tuple@Vc_vector3d@@MPAUanimation@c_animation_system@@M@std@@QBEABV?$tuple@MPAUanimation@c_animation_system@@M@2@XZ 10003680 f i c_aimhelper.obj
 0001:00002680       ?_Get_first@?$_Compressed_pair@V?$allocator@Uhitmarker_info@@@std@@V?$_Vector_val@U?$_Simple_types@Uhitmarker_info@@@std@@@2@$00@std@@QBEABV?$allocator@Uhitmarker_info@@@2@XZ 10003680 f i c_hitmarker.obj
 0001:00002680       ?_Get_first@?$_Compressed_pair@V?$allocator@V?$_List_unchecked_iterator@V?$_List_val@U?$_List_simple_types@U?$pair@$$CBIVc_font@@@std@@@std@@@std@@@std@@@std@@V?$_Vector_val@U?$_Simple_types@V?$_List_unchecked_iterator@V?$_List_val@U?$_List_simple_types@U?$pair@$$CBIVc_font@@@std@@@std@@@std@@@std@@@std@@@2@$00@std@@QBEABV?$allocator@V?$_List_unchecked_iterator@V?$_List_val@U?$_List_simple_types@U?$pair@$$CBIVc_font@@@std@@@std@@@std@@@std@@@2@XZ 10003680 f i c_renderer.obj
 0001:00002680       ?_Get_first@?$_Compressed_pair@V?$allocator@D@std@@V?$_Vector_val@U?$_Simple_types@D@std@@@2@$00@std@@QBEABV?$allocator@D@2@XZ 10003680 f i c_menu.obj
 0001:00002680       ?_Get_first@?$_Compressed_pair@V?$allocator@D@std@@V?$_String_val@U?$_Simple_types@D@std@@@2@$00@std@@QAEAAV?$allocator@D@2@XZ 10003680 f i dll.obj
 0001:00002680       ?_Get_first@?$_Compressed_pair@V?$allocator@Uplayer_info@c_esp@@@std@@V?$_Vector_val@U?$_Simple_types@Uplayer_info@c_esp@@@std@@@2@$00@std@@QBEABV?$allocator@Uplayer_info@c_esp@@@2@XZ 10003680 f i c_esp.obj
 0001:00002680       ?_Get_first@?$_Compressed_pair@V?$allocator@V?$function@$$A6AXI@Z@std@@@std@@V?$_Vector_val@U?$_Simple_types@V?$function@$$A6AXI@Z@std@@@std@@@2@$00@std@@QAEAAV?$allocator@V?$function@$$A6AXI@Z@std@@@2@XZ 10003680 f i c_fake_ping.obj
 0001:00002680       ?_Get_first@?$_Compressed_pair@V<lambda_1>@?1???$create@V?$vector@V?$basic_json@Vmap@std@@Vvector@2@V?$basic_string@DU?$char_traits@D@std@@V?$allocator@D@2@@2@_N_J_KNVallocator@2@Uadl_serializer@nlohmann@@@nlohmann@@V?$allocator@V?$basic_json@Vmap@std@@Vvector@2@V?$basic_string@DU?$char_traits@D@std@@V?$allocator@D@2@@2@_N_J_KNVallocator@2@Uadl_serializer@nlohmann@@@nlohmann@@@std@@@std@@ABV12@@?$basic_json@Vmap@std@@Vvector@2@V?$basic_string@DU?$char_traits@D@std@@V?$allocator@D@2@@2@_N_J_KNVallocator@2@Uadl_serializer@nlohmann@@@nlohmann@@CAPAV?$vector@V?$basic_json@Vmap@std@@Vvector@2@V?$basic_string@DU?$char_traits@D@std@@V?$allocator@D@2@@2@_N_J_KNVallocator@2@Uadl_serializer@nlohmann@@@nlohmann@@V?$allocator@V?$basic_json@Vmap@std@@Vvector@2@V?$basic_string@DU?$char_traits@D@std@@V?$allocator@D@2@@2@_N_J_KNVallocator@2@Uadl_serializer@nlohmann@@@nlohmann@@@std@@@std@@ABV45@@Z@PAV45@$0A@@std@@QAEAAV<lambda_1>@?1???$create@V?$vector@V?$basic_json@Vmap@std@@Vvector@2@V?$basic_string@DU?$char_traits@D@std@@V?$allocator@D@2@@2@_N_J_KNVallocator@2@Uadl_serializer@nlohmann@@@nlohmann@@V?$allocator@V?$basic_json@Vmap@std@@Vvector@2@V?$basic_string@DU?$char_traits@D@std@@V?$allocator@D@2@@2@_N_J_KNVallocator@2@Uadl_serializer@nlohmann@@@nlohmann@@@std@@@std@@ABV12@@?$basic_json@Vmap@std@@Vvector@2@V?$basic_string@DU?$char_traits@D@std@@V?$allocator@D@2@@2@_N_J_KNVallocator@2@Uadl_serializer@nlohmann@@@nlohmann@@CAPAV?$vector@V?$basic_json@Vmap@std@@Vvector@2@V?$basic_string@DU?$char_traits@D@std@@V?$allocator@D@2@@2@_N_J_KNVallocator@2@Uadl_serializer@nlohmann@@@nlohmann@@V?$allocator@V?$basic_json@Vmap@std@@Vvector@2@V?$basic_string@DU?$char_traits@D@std@@V?$allocator@D@2@@2@_N_J_KNVallocator@2@Uadl_serializer@nlohmann@@@nlohmann@@@std@@@2@ABV62@@Z@XZ 10003680 f i c_menu.obj
 0001:00002680       ?_Get_first@?$_Compressed_pair@V?$allocator@U?$_List_node@U?$pair@$$CBIUanimation_info@c_animation_system@@@std@@PAX@std@@@std@@V?$_List_val@U?$_List_simple_types@U?$pair@$$CBIUanimation_info@c_animation_system@@@std@@@std@@@2@$00@std@@QAEAAV?$allocator@U?$_List_node@U?$pair@$$CBIUanimation_info@c_animation_system@@@std@@PAX@std@@@2@XZ 10003680 f i aimbot_recode.obj
 0001:00002680       ?_Get_first@?$_Compressed_pair@V?$allocator@U?$_List_node@U?$pair@$$CBIUnetvar@c_netvar@@@std@@PAX@std@@@std@@V?$_List_val@U?$_List_simple_types@U?$pair@$$CBIUnetvar@c_netvar@@@std@@@std@@@2@$00@std@@QAEAAV?$allocator@U?$_List_node@U?$pair@$$CBIUnetvar@c_netvar@@@std@@PAX@std@@@2@XZ 10003680 f i DLLMain.obj
 0001:00002680       ??0?$allocator@Vc_vector2d@@@std@@QAE@XZ 10003680 f i c_renderer.obj
 0001:00002680       ??0?$_Func_base@XPAVc_cs_player@@@std@@QAE@XZ 10003680 f i aimbot_recode.obj
 0001:00002680       ?_Get_rest@?$tuple@MH@std@@QAEAAV?$tuple@H@2@XZ 10003680 f i c_aimhelper.obj
 0001:00002680       ??0?$allocator@Uimpact_info@@@std@@QAE@XZ 10003680 f i c_hitmarker.obj
 0001:00002680       ??0?$allocator@Udamage_infos@@@std@@QAE@XZ 10003680 f i c_esp.obj
 0001:00002680       ?_Get_first@?$_Compressed_pair@U?$default_delete@Vc_renderer@@@std@@PAVc_renderer@@$00@std@@QAEAAU?$default_delete@Vc_renderer@@@2@XZ 10003680 f i c_damageesp.obj
 0001:00002680       ??0?$allocator@V?$function@$$A6AXXZ@std@@@std@@QAE@XZ 10003680 f i c_renderer.obj
 0001:00002680       ??0?$allocator@Uaim_info@c_aimhelper@@@std@@QAE@XZ 10003680 f i c_aimhelper.obj
 0001:00002680       ??0?$allocator@V?$vector@V?$basic_json@Vmap@std@@Vvector@2@V?$basic_string@DU?$char_traits@D@std@@V?$allocator@D@2@@2@_N_J_KNVallocator@2@Uadl_serializer@nlohmann@@@nlohmann@@V?$allocator@V?$basic_json@Vmap@std@@Vvector@2@V?$basic_string@DU?$char_traits@D@std@@V?$allocator@D@2@@2@_N_J_KNVallocator@2@Uadl_serializer@nlohmann@@@nlohmann@@@std@@@std@@@std@@QAE@XZ 10003680 f i c_menu.obj
 0001:00002680       ?_Get_first@?$_Compressed_pair@V?$allocator@Vc_vector2d@@@std@@V?$_Vector_val@U?$_Simple_types@Vc_vector2d@@@std@@@2@$00@std@@QAEAAV?$allocator@Vc_vector2d@@@2@XZ 10003680 f i c_damageesp.obj
 0001:00002680       ?_Get_first@?$_Compressed_pair@V?$allocator@Uplayer_info@c_esp@@@std@@V?$_Vector_val@U?$_Simple_types@Uplayer_info@c_esp@@@std@@@2@$00@std@@QAEAAV?$allocator@Uplayer_info@c_esp@@@2@XZ 10003680 f i aimbot_recode.obj
 0001:00002680       ?_Get_first@?$_Compressed_pair@V<lambda_1>@?1???$create@V?$map@V?$basic_string@DU?$char_traits@D@std@@V?$allocator@D@2@@std@@V?$basic_json@Vmap@std@@Vvector@2@V?$basic_string@DU?$char_traits@D@std@@V?$allocator@D@2@@2@_N_J_KNVallocator@2@Uadl_serializer@nlohmann@@@nlohmann@@U?$less@X@2@V?$allocator@U?$pair@$$CBV?$basic_string@DU?$char_traits@D@std@@V?$allocator@D@2@@std@@V?$basic_json@Vmap@std@@Vvector@2@V?$basic_string@DU?$char_traits@D@std@@V?$allocator@D@2@@2@_N_J_KNVallocator@2@Uadl_serializer@nlohmann@@@nlohmann@@@std@@@2@@std@@ABV12@@?$basic_json@Vmap@std@@Vvector@2@V?$basic_string@DU?$char_traits@D@std@@V?$allocator@D@2@@2@_N_J_KNVallocator@2@Uadl_serializer@nlohmann@@@nlohmann@@CAPAV?$map@V?$basic_string@DU?$char_traits@D@std@@V?$allocator@D@2@@std@@V?$basic_json@Vmap@std@@Vvector@2@V?$basic_string@DU?$char_traits@D@std@@V?$allocator@D@2@@2@_N_J_KNVallocator@2@Uadl_serializer@nlohmann@@@nlohmann@@U?$less@X@2@V?$allocator@U?$pair@$$CBV?$basic_string@DU?$char_traits@D@std@@V?$allocator@D@2@@std@@V?$basic_json@Vmap@std@@Vvector@2@V?$basic_string@DU?$char_traits@D@std@@V?$allocator@D@2@@2@_N_J_KNVallocator@2@Uadl_serializer@nlohmann@@@nlohmann@@@std@@@2@@std@@ABV45@@Z@PAV45@$0A@@std@@QAEAAV<lambda_1>@?1???$create@V?$map@V?$basic_string@DU?$char_traits@D@std@@V?$allocator@D@2@@std@@V?$basic_json@Vmap@std@@Vvector@2@V?$basic_string@DU?$char_traits@D@std@@V?$allocator@D@2@@2@_N_J_KNVallocator@2@Uadl_serializer@nlohmann@@@nlohmann@@U?$less@X@2@V?$allocator@U?$pair@$$CBV?$basic_string@DU?$char_traits@D@std@@V?$allocator@D@2@@std@@V?$basic_json@Vmap@std@@Vvector@2@V?$basic_string@DU?$char_traits@D@std@@V?$allocator@D@2@@2@_N_J_KNVallocator@2@Uadl_serializer@nlohmann@@@nlohmann@@@std@@@2@@std@@ABV12@@?$basic_json@Vmap@std@@Vvector@2@V?$basic_string@DU?$char_traits@D@std@@V?$allocator@D@2@@2@_N_J_KNVallocator@2@Uadl_serializer@nlohmann@@@nlohmann@@CAPAV?$map@V?$basic_string@DU?$char_traits@D@std@@V?$allocator@D@2@@std@@V?$basic_json@Vmap@std@@Vvector@2@V?$basic_string@DU?$char_traits@D@std@@V?$allocator@D@2@@2@_N_J_KNVallocator@2@Uadl_serializer@nlohmann@@@nlohmann@@U?$less@X@2@V?$allocator@U?$pair@$$CBV?$basic_string@DU?$char_traits@D@std@@V?$allocator@D@2@@std@@V?$basic_json@Vmap@std@@Vvector@2@V?$basic_string@DU?$char_traits@D@std@@V?$allocator@D@2@@2@_N_J_KNVallocator@2@Uadl_serializer@nlohmann@@@nlohmann@@@std@@@2@@2@ABV62@@Z@XZ 10003680 f i c_menu.obj
 0001:00002680       ?_Get_first@?$_Compressed_pair@V?$allocator@U?$_List_node@U?$pair@$$CBIV?$unordered_map@IUnetvar@c_netvar@@U?$hash@I@std@@U?$equal_to@I@4@V?$allocator@U?$pair@$$CBIUnetvar@c_netvar@@@std@@@4@@std@@@std@@PAX@std@@@std@@V?$_List_val@U?$_List_simple_types@U?$pair@$$CBIV?$unordered_map@IUnetvar@c_netvar@@U?$hash@I@std@@U?$equal_to@I@4@V?$allocator@U?$pair@$$CBIUnetvar@c_netvar@@@std@@@4@@std@@@std@@@std@@@2@$00@std@@QBEABV?$allocator@U?$_List_node@U?$pair@$$CBIV?$unordered_map@IUnetvar@c_netvar@@U?$hash@I@std@@U?$equal_to@I@4@V?$allocator@U?$pair@$$CBIUnetvar@c_netvar@@@std@@@4@@std@@@std@@PAX@std@@@2@XZ 10003680 f i aimbot_recode.obj
 0001:00002680       ??0?$allocator@M@std@@QAE@XZ 10003680 f i c_font.obj
 0001:00002680       ?_Get_first@?$_Compressed_pair@V?$allocator@U?$_Tree_node@U?$pair@$$CBHH@std@@PAX@std@@@std@@V?$_Tree_val@U?$_Tree_simple_types@U?$pair@$$CBHH@std@@@std@@@2@$00@std@@QBEABV?$allocator@U?$_Tree_node@U?$pair@$$CBHH@std@@PAX@std@@@2@XZ 10003680 f i c_prediction_.obj
 0001:00002680       ??0?$allocator@U?$pair@PAVc_cs_player@@M@std@@@std@@QAE@XZ 10003680 f i c_chams.obj
 0001:00002680       ?_Get_first@?$_Compressed_pair@V?$allocator@PAUanimation@c_animation_system@@@std@@V?$_Vector_val@U?$_Simple_types@PAUanimation@c_animation_system@@@std@@@2@$00@std@@QAEAAV?$allocator@PAUanimation@c_animation_system@@@2@XZ 10003680 f i c_aimhelper.obj
 0001:00002680       ?_Get_first@?$_Compressed_pair@V?$allocator@V?$_List_unchecked_iterator@V?$_List_val@U?$_List_simple_types@U?$pair@QAVc_hotkey_select@@V?$function@$$A6AXI@Z@std@@@std@@@std@@@std@@@std@@@std@@V?$_Vector_val@U?$_Simple_types@V?$_List_unchecked_iterator@V?$_List_val@U?$_List_simple_types@U?$pair@QAVc_hotkey_select@@V?$function@$$A6AXI@Z@std@@@std@@@std@@@std@@@std@@@std@@@2@$00@std@@QAEAAV?$allocator@V?$_List_unchecked_iterator@V?$_List_val@U?$_List_simple_types@U?$pair@QAVc_hotkey_select@@V?$function@$$A6AXI@Z@std@@@std@@@std@@@std@@@std@@@2@XZ 10003680 f i c_fake_ping.obj
 0001:00002680       ?_Get_first@?$_Compressed_pair@V?$allocator@PAVLua_Hook@@@std@@V?$_Vector_val@U?$_Simple_types@PAVLua_Hook@@@std@@@2@$00@std@@QBEABV?$allocator@PAVLua_Hook@@@2@XZ 10003680 f i LuaAPI.obj
 0001:00002680       ?_Get_rest@?$tuple@PAUanimation@c_animation_system@@M@std@@QBEABV?$tuple@M@2@XZ 10003680 f i c_aimhelper.obj
 0001:00002680       ?_Get_first@?$_Compressed_pair@V?$allocator@V?$vector@MV?$allocator@M@std@@@std@@@std@@V?$_Vector_val@U?$_Simple_types@V?$vector@MV?$allocator@M@std@@@std@@@std@@@2@$00@std@@QBEABV?$allocator@V?$vector@MV?$allocator@M@std@@@std@@@2@XZ 10003680 f i c_font.obj
 0001:00002680       ?_Get_first@?$_Compressed_pair@V?$allocator@V?$basic_string@DU?$char_traits@D@std@@V?$allocator@D@2@@std@@@std@@V?$_Vector_val@U?$_Simple_types@V?$basic_string@DU?$char_traits@D@std@@V?$allocator@D@2@@std@@@std@@@2@$00@std@@QAEAAV?$allocator@V?$basic_string@DU?$char_traits@D@std@@V?$allocator@D@2@@std@@@2@XZ 10003680 f i c_miscellaneous.obj
 0001:00002680       ?_Get_first@?$_Compressed_pair@V?$allocator@H@std@@V?$_Vector_val@U?$_Simple_types@H@std@@@2@$00@std@@QBEABV?$allocator@H@2@XZ 10003680 f i aimbot_recode.obj
 0001:00002680       ??0?$allocator@U?$_Tree_node@U?$pair@$$CBHH@std@@PAX@std@@@std@@QAE@XZ 10003680 f i c_prediction_.obj
 0001:00002680       ?_Get_first@?$_Compressed_pair@V?$allocator@V?$function@$$A6AXXZ@std@@@std@@V?$_Vector_val@U?$_Simple_types@V?$function@$$A6AXXZ@std@@@std@@@2@$00@std@@QAEAAV?$allocator@V?$function@$$A6AXXZ@std@@@2@XZ 10003680 f i c_damageesp.obj
 0001:00002680       ??0?$allocator@Uplayer_info@c_esp@@@std@@QAE@XZ 10003680 f i aimbot_recode.obj
 0001:00002680       ?_Get_data@?$deque@Ushot@resolver@@V?$allocator@Ushot@resolver@@@std@@@std@@ABEABV?$_Deque_val@U?$_Deque_simple_types@Ushot@resolver@@@std@@@2@XZ 10003680 f i aimbot_recode.obj
 0001:00002680       ?_Get_first@?$_Compressed_pair@V?$allocator@V?$_List_unchecked_iterator@V?$_List_val@U?$_List_simple_types@U?$pair@$$CBIUanimation_info@c_animation_system@@@std@@@std@@@std@@@std@@@std@@V?$_Vector_val@U?$_Simple_types@V?$_List_unchecked_iterator@V?$_List_val@U?$_List_simple_types@U?$pair@$$CBIUanimation_info@c_animation_system@@@std@@@std@@@std@@@std@@@std@@@2@$00@std@@QBEABV?$allocator@V?$_List_unchecked_iterator@V?$_List_val@U?$_List_simple_types@U?$pair@$$CBIUanimation_info@c_animation_system@@@std@@@std@@@std@@@std@@@2@XZ 10003680 f i c_animation_system.obj
 0001:00002680       ?_Get_first@?$_Compressed_pair@U?$less@H@std@@V?$_Compressed_pair@V?$allocator@U?$_Tree_node@U?$pair@$$CBHH@std@@PAX@std@@@std@@V?$_Tree_val@U?$_Tree_simple_types@U?$pair@$$CBHH@std@@@std@@@2@$00@2@$00@std@@QBEABU?$less@H@2@XZ 10003680 f i c_prediction_.obj
 0001:00002680       ?_Get_rest@?$tuple@PAUanimation@c_animation_system@@MH@std@@QAEAAV?$tuple@MH@2@XZ 10003680 f i c_aimhelper.obj
 0001:00002680       ?_Get_first@?$_Compressed_pair@V<lambda_1>@?1???$create@V?$vector@V?$basic_json@Vmap@std@@Vvector@2@V?$basic_string@DU?$char_traits@D@std@@V?$allocator@D@2@@2@_N_J_KNVallocator@2@Uadl_serializer@nlohmann@@@nlohmann@@V?$allocator@V?$basic_json@Vmap@std@@Vvector@2@V?$basic_string@DU?$char_traits@D@std@@V?$allocator@D@2@@2@_N_J_KNVallocator@2@Uadl_serializer@nlohmann@@@nlohmann@@@std@@@std@@PBV?$json_ref@V?$basic_json@Vmap@std@@Vvector@2@V?$basic_string@DU?$char_traits@D@std@@V?$allocator@D@2@@2@_N_J_KNVallocator@2@Uadl_serializer@nlohmann@@@nlohmann@@@detail@nlohmann@@PBV345@@?$basic_json@Vmap@std@@Vvector@2@V?$basic_string@DU?$char_traits@D@std@@V?$allocator@D@2@@2@_N_J_KNVallocator@2@Uadl_serializer@nlohmann@@@nlohmann@@CAPAV?$vector@V?$basic_json@Vmap@std@@Vvector@2@V?$basic_string@DU?$char_traits@D@std@@V?$allocator@D@2@@2@_N_J_KNVallocator@2@Uadl_serializer@nlohmann@@@nlohmann@@V?$allocator@V?$basic_json@Vmap@std@@Vvector@2@V?$basic_string@DU?$char_traits@D@std@@V?$allocator@D@2@@2@_N_J_KNVallocator@2@Uadl_serializer@nlohmann@@@nlohmann@@@std@@@std@@$$QAPBV?$json_ref@V?$basic_json@Vmap@std@@Vvector@2@V?$basic_string@DU?$char_traits@D@std@@V?$allocator@D@2@@2@_N_J_KNVallocator@2@Uadl_serializer@nlohmann@@@nlohmann@@@detail@3@0@Z@PAV45@$0A@@std@@QAEAAV<lambda_1>@?1???$create@V?$vector@V?$basic_json@Vmap@std@@Vvector@2@V?$basic_string@DU?$char_traits@D@std@@V?$allocator@D@2@@2@_N_J_KNVallocator@2@Uadl_serializer@nlohmann@@@nlohmann@@V?$allocator@V?$basic_json@Vmap@std@@Vvector@2@V?$basic_string@DU?$char_traits@D@std@@V?$allocator@D@2@@2@_N_J_KNVallocator@2@Uadl_serializer@nlohmann@@@nlohmann@@@std@@@std@@PBV?$json_ref@V?$basic_json@Vmap@std@@Vvector@2@V?$basic_string@DU?$char_traits@D@std@@V?$allocator@D@2@@2@_N_J_KNVallocator@2@Uadl_serializer@nlohmann@@@nlohmann@@@detail@nlohmann@@PBV345@@?$basic_json@Vmap@std@@Vvector@2@V?$basic_string@DU?$char_traits@D@std@@V?$allocator@D@2@@2@_N_J_KNVallocator@2@Uadl_serializer@nlohmann@@@nlohmann@@CAPAV?$vector@V?$basic_json@Vmap@std@@Vvector@2@V?$basic_string@DU?$char_traits@D@std@@V?$allocator@D@2@@2@_N_J_KNVallocator@2@Uadl_serializer@nlohmann@@@nlohmann@@V?$allocator@V?$basic_json@Vmap@std@@Vvector@2@V?$basic_string@DU?$char_traits@D@std@@V?$allocator@D@2@@2@_N_J_KNVallocator@2@Uadl_serializer@nlohmann@@@nlohmann@@@std@@@2@$$QAPBV?$json_ref@V?$basic_json@Vmap@std@@Vvector@2@V?$basic_string@DU?$char_traits@D@std@@V?$allocator@D@2@@2@_N_J_KNVallocator@2@Uadl_serializer@nlohmann@@@nlohmann@@@detail@5@0@Z@XZ 10003680 f i c_menu.obj
 0001:00002680       ?_Get_first@?$_Compressed_pair@U?$hash@I@std@@V?$_Compressed_pair@U?$equal_to@I@std@@M$00@2@$00@std@@QBEABU?$hash@I@2@XZ 10003680 f i aimbot_recode.obj
 0001:00002680       ?_Get_first@?$_Compressed_pair@U?$default_delete@$$BY0A@I@std@@PAI$00@std@@QAEAAU?$default_delete@$$BY0A@I@2@XZ 10003680 f i c_fake_ping.obj
 0001:00002680       ?_Get_first@?$_Compressed_pair@V?$allocator@D@std@@V?$_String_val@U?$_Simple_types@D@std@@@2@$00@std@@QBEABV?$allocator@D@2@XZ 10003680 f i dll.obj
 0001:00002680       ??0?$allocator@U?$pair@$$CBIVc_font@@@std@@@std@@QAE@XZ 10003680 f i c_renderer.obj
 0001:00002680       ?_Get_first@?$_Compressed_pair@V?$allocator@U?$_List_node@U?$pair@$$CBIUnetvar@c_netvar@@@std@@PAX@std@@@std@@V?$_List_val@U?$_List_simple_types@U?$pair@$$CBIUnetvar@c_netvar@@@std@@@std@@@2@$00@std@@QBEABV?$allocator@U?$_List_node@U?$pair@$$CBIUnetvar@c_netvar@@@std@@PAX@std@@@2@XZ 10003680 f i aimbot_recode.obj
 0001:00002680       ?_Get_first@?$_Compressed_pair@V?$allocator@M@std@@V?$_Vector_val@U?$_Simple_types@M@std@@@2@$00@std@@QAEAAV?$allocator@M@2@XZ 10003680 f i c_font.obj
 0001:00002680       ?_Mymtx@_Mutex_base@std@@AAEPAU_Mtx_internal_imp_t@@XZ 10003680 f i aimbot_recode.obj
 0001:00002680       ??0?$allocator@H@std@@QAE@XZ 10003680 f i aimbot_recode.obj
 0001:00002680       ?_Get_first@?$_Compressed_pair@V<lambda_1>@?1???$create@V?$vector@V?$basic_json@Vmap@std@@Vvector@2@V?$basic_string@DU?$char_traits@D@std@@V?$allocator@D@2@@2@_N_J_KNVallocator@2@Uadl_serializer@nlohmann@@@nlohmann@@V?$allocator@V?$basic_json@Vmap@std@@Vvector@2@V?$basic_string@DU?$char_traits@D@std@@V?$allocator@D@2@@2@_N_J_KNVallocator@2@Uadl_serializer@nlohmann@@@nlohmann@@@std@@@std@@$$V@?$basic_json@Vmap@std@@Vvector@2@V?$basic_string@DU?$char_traits@D@std@@V?$allocator@D@2@@2@_N_J_KNVallocator@2@Uadl_serializer@nlohmann@@@nlohmann@@CAPAV?$vector@V?$basic_json@Vmap@std@@Vvector@2@V?$basic_string@DU?$char_traits@D@std@@V?$allocator@D@2@@2@_N_J_KNVallocator@2@Uadl_serializer@nlohmann@@@nlohmann@@V?$allocator@V?$basic_json@Vmap@std@@Vvector@2@V?$basic_string@DU?$char_traits@D@std@@V?$allocator@D@2@@2@_N_J_KNVallocator@2@Uadl_serializer@nlohmann@@@nlohmann@@@std@@@std@@XZ@PAV45@$0A@@std@@QAEAAV<lambda_1>@?1???$create@V?$vector@V?$basic_json@Vmap@std@@Vvector@2@V?$basic_string@DU?$char_traits@D@std@@V?$allocator@D@2@@2@_N_J_KNVallocator@2@Uadl_serializer@nlohmann@@@nlohmann@@V?$allocator@V?$basic_json@Vmap@std@@Vvector@2@V?$basic_string@DU?$char_traits@D@std@@V?$allocator@D@2@@2@_N_J_KNVallocator@2@Uadl_serializer@nlohmann@@@nlohmann@@@std@@@std@@$$V@?$basic_json@Vmap@std@@Vvector@2@V?$basic_string@DU?$char_traits@D@std@@V?$allocator@D@2@@2@_N_J_KNVallocator@2@Uadl_serializer@nlohmann@@@nlohmann@@CAPAV?$vector@V?$basic_json@Vmap@std@@Vvector@2@V?$basic_string@DU?$char_traits@D@std@@V?$allocator@D@2@@2@_N_J_KNVallocator@2@Uadl_serializer@nlohmann@@@nlohmann@@V?$allocator@V?$basic_json@Vmap@std@@Vvector@2@V?$basic_string@DU?$char_traits@D@std@@V?$allocator@D@2@@2@_N_J_KNVallocator@2@Uadl_serializer@nlohmann@@@nlohmann@@@std@@@2@XZ@XZ 10003680 f i c_menu.obj
 0001:00002680       ?_Get_first@?$_Compressed_pair@V?$allocator@U?$_List_node@U?$pair@$$CBIV?$unordered_map@IUnetvar@c_netvar@@U?$hash@I@std@@U?$equal_to@I@4@V?$allocator@U?$pair@$$CBIUnetvar@c_netvar@@@std@@@4@@std@@@std@@PAX@std@@@std@@V?$_List_val@U?$_List_simple_types@U?$pair@$$CBIV?$unordered_map@IUnetvar@c_netvar@@U?$hash@I@std@@U?$equal_to@I@4@V?$allocator@U?$pair@$$CBIUnetvar@c_netvar@@@std@@@4@@std@@@std@@@std@@@2@$00@std@@QAEAAV?$allocator@U?$_List_node@U?$pair@$$CBIV?$unordered_map@IUnetvar@c_netvar@@U?$hash@I@std@@U?$equal_to@I@4@V?$allocator@U?$pair@$$CBIUnetvar@c_netvar@@@std@@@4@@std@@@std@@PAX@std@@@2@XZ 10003680 f i DLLMain.obj
 0001:00002680       ?_Get_first@?$_Compressed_pair@V?$allocator@Uanimation@c_animation_system@@@std@@V?$_Deque_val@U?$_Deque_simple_types@Uanimation@c_animation_system@@@std@@@2@$00@std@@QAEAAV?$allocator@Uanimation@c_animation_system@@@2@XZ 10003680 f i aimbot_recode.obj
 0001:00002680       ?_Get_first@?$_Compressed_pair@U?$less@X@std@@V?$_Compressed_pair@V?$allocator@U?$_Tree_node@U?$pair@$$CBV?$basic_string@DU?$char_traits@D@std@@V?$allocator@D@2@@std@@V?$basic_json@Vmap@std@@Vvector@2@V?$basic_string@DU?$char_traits@D@std@@V?$allocator@D@2@@2@_N_J_KNVallocator@2@Uadl_serializer@nlohmann@@@nlohmann@@@std@@PAX@std@@@std@@V?$_Tree_val@U?$_Tree_simple_types@U?$pair@$$CBV?$basic_string@DU?$char_traits@D@std@@V?$allocator@D@2@@std@@V?$basic_json@Vmap@std@@Vvector@2@V?$basic_string@DU?$char_traits@D@std@@V?$allocator@D@2@@2@_N_J_KNVallocator@2@Uadl_serializer@nlohmann@@@nlohmann@@@std@@@std@@@2@$00@2@$00@std@@QBEABU?$less@X@2@XZ 10003680 f i c_menu.obj
 0001:00002680       ?_Get_first@?$_Compressed_pair@V?$allocator@V?$basic_json@Vmap@std@@Vvector@2@V?$basic_string@DU?$char_traits@D@std@@V?$allocator@D@2@@2@_N_J_KNVallocator@2@Uadl_serializer@nlohmann@@@nlohmann@@@std@@V?$_Vector_val@U?$_Simple_types@V?$basic_json@Vmap@std@@Vvector@2@V?$basic_string@DU?$char_traits@D@std@@V?$allocator@D@2@@2@_N_J_KNVallocator@2@Uadl_serializer@nlohmann@@@nlohmann@@@std@@@2@$00@std@@QAEAAV?$allocator@V?$basic_json@Vmap@std@@Vvector@2@V?$basic_string@DU?$char_traits@D@std@@V?$allocator@D@2@@2@_N_J_KNVallocator@2@Uadl_serializer@nlohmann@@@nlohmann@@@2@XZ 10003680 f i c_menu.obj
 0001:00002680       ?_Get_first@?$_Compressed_pair@V?$allocator@UCIncomingSequence@@@std@@V?$_Deque_val@U?$_Deque_simple_types@UCIncomingSequence@@@std@@@2@$00@std@@QAEAAV?$allocator@UCIncomingSequence@@@2@XZ 10003680 f i c_fake_ping.obj
 0001:00002680       ?_Get_first@?$_Compressed_pair@U?$equal_to@I@std@@M$00@std@@QBEABU?$equal_to@I@2@XZ 10003680 f i aimbot_recode.obj
 0001:00002680       ?_Get_first@?$_Compressed_pair@V?$allocator@Unade_info@c_esp@@@std@@V?$_Vector_val@U?$_Simple_types@Unade_info@c_esp@@@std@@@2@$00@std@@QAEAAV?$allocator@Unade_info@c_esp@@@2@XZ 10003680 f i aimbot_recode.obj
 0001:00002680       ?_Get_first@?$_Compressed_pair@V<lambda_1>@?1???$create@V?$basic_string@DU?$char_traits@D@std@@V?$allocator@D@2@@std@@AAY00$$CBD@?$basic_json@Vmap@std@@Vvector@2@V?$basic_string@DU?$char_traits@D@std@@V?$allocator@D@2@@2@_N_J_KNVallocator@2@Uadl_serializer@nlohmann@@@nlohmann@@CAPAV?$basic_string@DU?$char_traits@D@std@@V?$allocator@D@2@@std@@AAY00$$CBD@Z@PAV45@$0A@@std@@QAEAAV<lambda_1>@?1???$create@V?$basic_string@DU?$char_traits@D@std@@V?$allocator@D@2@@std@@AAY00$$CBD@?$basic_json@Vmap@std@@Vvector@2@V?$basic_string@DU?$char_traits@D@std@@V?$allocator@D@2@@2@_N_J_KNVallocator@2@Uadl_serializer@nlohmann@@@nlohmann@@CAPAV?$basic_string@DU?$char_traits@D@std@@V?$allocator@D@2@@2@AAY00$$CBD@Z@XZ 10003680 f i c_menu.obj
 0001:00002680       ?_Get_first@?$_Compressed_pair@V?$allocator@VImConsoleTextItem@@@std@@V?$_Vector_val@U?$_Simple_types@VImConsoleTextItem@@@std@@@2@$00@std@@QBEABV?$allocator@VImConsoleTextItem@@@2@XZ 10003680 f i ImConsole.obj
 0001:00002680       ??0?$_Func_base@XPAVc_client_entity@@@std@@QAE@XZ 10003680 f i c_esp.obj
 0001:00002680       ??0?$allocator@UCIncomingSequence@@@std@@QAE@XZ 10003680 f i c_fake_ping.obj
 0001:00002680       ?_Get_first@?$_Compressed_pair@V?$allocator@V?$function@$$A6AXI@Z@std@@@std@@V?$_Vector_val@U?$_Simple_types@V?$function@$$A6AXI@Z@std@@@std@@@2@$00@std@@QBEABV?$allocator@V?$function@$$A6AXI@Z@std@@@2@XZ 10003680 f i c_hotkeys.obj
 0001:00002680       ?_Get_first@?$_Compressed_pair@V?$allocator@V?$_List_unchecked_iterator@V?$_List_val@U?$_List_simple_types@U?$pair@$$CBIUnetvar@c_netvar@@@std@@@std@@@std@@@std@@@std@@V?$_Vector_val@U?$_Simple_types@V?$_List_unchecked_iterator@V?$_List_val@U?$_List_simple_types@U?$pair@$$CBIUnetvar@c_netvar@@@std@@@std@@@std@@@std@@@std@@@2@$00@std@@QAEAAV?$allocator@V?$_List_unchecked_iterator@V?$_List_val@U?$_List_simple_types@U?$pair@$$CBIUnetvar@c_netvar@@@std@@@std@@@std@@@std@@@2@XZ 10003680 f i DLLMain.obj
 0001:00002680       ??0_Bxty@?$_String_val@U?$_Simple_types@D@std@@@std@@QAE@XZ 10003680 f i dll.obj
 0001:00002680       ?_Get_first@?$_Compressed_pair@V?$allocator@Udamage_infos@@@std@@V?$_Vector_val@U?$_Simple_types@Udamage_infos@@@std@@@2@$00@std@@QAEAAV?$allocator@Udamage_infos@@@2@XZ 10003680 f i c_esp.obj
 0001:00002680       ?_Get_first@?$_Compressed_pair@V?$allocator@Unade_info@c_esp@@@std@@V?$_Vector_val@U?$_Simple_types@Unade_info@c_esp@@@std@@@2@$00@std@@QBEABV?$allocator@Unade_info@c_esp@@@2@XZ 10003680 f i c_esp.obj
 0001:00002680       ?_Get_first@?$_Compressed_pair@V?$allocator@Uaim_info@c_aimhelper@@@std@@V?$_Vector_val@U?$_Simple_types@Uaim_info@c_aimhelper@@@std@@@2@$00@std@@QBEABV?$allocator@Uaim_info@c_aimhelper@@@2@XZ 10003680 f i c_aimhelper.obj
 0001:00002680       ?_Get_first@?$_Compressed_pair@V?$allocator@Vc_vector3d@@@std@@V?$_Vector_val@U?$_Simple_types@Vc_vector3d@@@std@@@2@$00@std@@QBEABV?$allocator@Vc_vector3d@@@2@XZ 10003680 f i aimbot_recode.obj
 0001:00002680       ?_Get_data@?$deque@UCIncomingSequence@@V?$allocator@UCIncomingSequence@@@std@@@std@@ABEABV?$_Deque_val@U?$_Deque_simple_types@UCIncomingSequence@@@std@@@2@XZ 10003680 f i c_fake_ping.obj
 0001:00002680       ??0?$allocator@PAVLua_Hook@@@std@@QAE@XZ 10003680 f i LuaAPI.obj
 0001:00002680       ?_Get_first@?$_Compressed_pair@V?$allocator@Uanimation@c_animation_system@@@std@@V?$_Deque_val@U?$_Deque_simple_types@Uanimation@c_animation_system@@@std@@@2@$00@std@@QBEABV?$allocator@Uanimation@c_animation_system@@@2@XZ 10003680 f i c_animation_system.obj
 0001:00002680       ?_Get_data@?$deque@Uanimation@c_animation_system@@V?$allocator@Uanimation@c_animation_system@@@std@@@std@@AAEAAV?$_Deque_val@U?$_Deque_simple_types@Uanimation@c_animation_system@@@std@@@2@XZ 10003680 f i aimbot_recode.obj
 0001:00002680       ?_Get_first@?$_Compressed_pair@V?$allocator@V?$basic_string@DU?$char_traits@D@std@@V?$allocator@D@2@@std@@@std@@V?$_Vector_val@U?$_Simple_types@V?$basic_string@DU?$char_traits@D@std@@V?$allocator@D@2@@std@@@std@@@2@$00@std@@QBEABV?$allocator@V?$basic_string@DU?$char_traits@D@std@@V?$allocator@D@2@@std@@@2@XZ 10003680 f i c_miscellaneous.obj
 0001:00002680       ?_Get_first@?$_Compressed_pair@V?$allocator@Vc_vector3d@@@std@@V?$_Vector_val@U?$_Simple_types@Vc_vector3d@@@std@@@2@$00@std@@QAEAAV?$allocator@Vc_vector3d@@@2@XZ 10003680 f i aimbot_recode.obj
 0001:00002680       ?_Get_rest@?$tuple@PAUanimation@c_animation_system@@MM@std@@QAEAAV?$tuple@MM@2@XZ 10003680 f i c_aimhelper.obj
 0001:00002680       ?_Get_data@?$deque@Ushot@resolver@@V?$allocator@Ushot@resolver@@@std@@@std@@AAEAAV?$_Deque_val@U?$_Deque_simple_types@Ushot@resolver@@@std@@@2@XZ 10003680 f i aimbot_recode.obj
 0001:00002680       ?_Get_first@?$_Compressed_pair@V?$allocator@U?$_Tree_node@U?$pair@$$CBV?$basic_string@DU?$char_traits@D@std@@V?$allocator@D@2@@std@@V?$basic_json@Vmap@std@@Vvector@2@V?$basic_string@DU?$char_traits@D@std@@V?$allocator@D@2@@2@_N_J_KNVallocator@2@Uadl_serializer@nlohmann@@@nlohmann@@@std@@PAX@std@@@std@@V?$_Tree_val@U?$_Tree_simple_types@U?$pair@$$CBV?$basic_string@DU?$char_traits@D@std@@V?$allocator@D@2@@std@@V?$basic_json@Vmap@std@@Vvector@2@V?$basic_string@DU?$char_traits@D@std@@V?$allocator@D@2@@2@_N_J_KNVallocator@2@Uadl_serializer@nlohmann@@@nlohmann@@@std@@@std@@@2@$00@std@@QAEAAV?$allocator@U?$_Tree_node@U?$pair@$$CBV?$basic_string@DU?$char_traits@D@std@@V?$allocator@D@2@@std@@V?$basic_json@Vmap@std@@Vvector@2@V?$basic_string@DU?$char_traits@D@std@@V?$allocator@D@2@@2@_N_J_KNVallocator@2@Uadl_serializer@nlohmann@@@nlohmann@@@std@@PAX@std@@@2@XZ 10003680 f i c_menu.obj
 0001:00002680       ?_Get_first@?$_Compressed_pair@U?$default_delete@V?$c_hook@I@@@std@@PAV?$c_hook@I@@$00@std@@QAEAAU?$default_delete@V?$c_hook@I@@@2@XZ 10003680 f i c_fake_ping.obj
 0001:00002680       ??0?$allocator@V?$tuple@MMM@std@@@std@@QAE@XZ 10003680 f i c_aimhelper.obj
 0001:00002680       ?_Get_first@?$_Compressed_pair@V?$allocator@Uimpact_info@@@std@@V?$_Vector_val@U?$_Simple_types@Uimpact_info@@@std@@@2@$00@std@@QAEAAV?$allocator@Uimpact_info@@@2@XZ 10003680 f i c_hitmarker.obj
 0001:00002680       ?_Get_first@?$_Compressed_pair@V?$allocator@M@std@@V?$_Vector_val@U?$_Simple_types@M@std@@@2@$00@std@@QBEABV?$allocator@M@2@XZ 10003680 f i c_font.obj
 0001:00002680       ?data@?$array@D$0EA@@std@@QAEPADXZ 10003680 f i c_menu.obj
 0001:00002680       ?_Get_max_bucket_size@?$_Uhash_compare@IU?$hash@I@std@@U?$equal_to@I@2@@std@@QBEABMXZ 10003680 f i aimbot_recode.obj
 0001:00002680       ?_Get_first@?$_Compressed_pair@V?$allocator@U?$_List_node@U?$pair@QAVc_hotkey_select@@V?$function@$$A6AXI@Z@std@@@std@@PAX@std@@@std@@V?$_List_val@U?$_List_simple_types@U?$pair@QAVc_hotkey_select@@V?$function@$$A6AXI@Z@std@@@std@@@std@@@2@$00@std@@QAEAAV?$allocator@U?$_List_node@U?$pair@QAVc_hotkey_select@@V?$function@$$A6AXI@Z@std@@@std@@PAX@std@@@2@XZ 10003680 f i c_fake_ping.obj
 0001:00002680       ?_Get_first@?$_Compressed_pair@V?$allocator@Uhitmarker_info@@@std@@V?$_Vector_val@U?$_Simple_types@Uhitmarker_info@@@std@@@2@$00@std@@QAEAAV?$allocator@Uhitmarker_info@@@2@XZ 10003680 f i c_hitmarker.obj
 0001:00002680       ?_Get_first@?$_Compressed_pair@V?$allocator@V?$vector@MV?$allocator@M@std@@@std@@@std@@V?$_Vector_val@U?$_Simple_types@V?$vector@MV?$allocator@M@std@@@std@@@std@@@2@$00@std@@QAEAAV?$allocator@V?$vector@MV?$allocator@M@std@@@std@@@2@XZ 10003680 f i c_font.obj
 0001:00002680       ?_Get_first@?$_Compressed_pair@V?$allocator@PAVLua_Hook@@@std@@V?$_Vector_val@U?$_Simple_types@PAVLua_Hook@@@std@@@2@$00@std@@QAEAAV?$allocator@PAVLua_Hook@@@2@XZ 10003680 f i LuaAPI.obj
 0001:00002680       ?_Get_first@?$_Compressed_pair@V?$allocator@U?$_List_node@U?$pair@$$CBIPAVCD3DFont@@@std@@PAX@std@@@std@@V?$_List_val@U?$_List_simple_types@U?$pair@$$CBIPAVCD3DFont@@@std@@@std@@@2@$00@std@@QAEAAV?$allocator@U?$_List_node@U?$pair@$$CBIPAVCD3DFont@@@std@@PAX@std@@@2@XZ 10003680 f i c_damageesp.obj
 0001:00002680       ??0?$allocator@U?$pair@V?$shared_ptr@Vc_drawable@@@std@@U?$pair@Vc_vector2d@@V1@@2@@std@@@std@@QAE@XZ 10003680 f i c_checkbox.obj
 0001:00002680       ?_Get_first@?$_Compressed_pair@V?$allocator@U?$_List_node@U?$pair@$$CBIUanimation_info@c_animation_system@@@std@@PAX@std@@@std@@V?$_List_val@U?$_List_simple_types@U?$pair@$$CBIUanimation_info@c_animation_system@@@std@@@std@@@2@$00@std@@QBEABV?$allocator@U?$_List_node@U?$pair@$$CBIUanimation_info@c_animation_system@@@std@@PAX@std@@@2@XZ 10003680 f i c_animation_system.obj
 0001:00002680       ?_Get_max_bucket_size@?$_Uhash_compare@PAVc_hotkey_select@@U?$hash@PAVc_hotkey_select@@@std@@U?$equal_to@PAVc_hotkey_select@@@3@@std@@QAEAAMXZ 10003680 f i c_hotkeys.obj
 0001:00002680       ?_Get_first@?$_Compressed_pair@V?$allocator@U?$_Tree_node@U?$pair@$$CBV?$basic_string@DU?$char_traits@D@std@@V?$allocator@D@2@@std@@V?$basic_json@Vmap@std@@Vvector@2@V?$basic_string@DU?$char_traits@D@std@@V?$allocator@D@2@@2@_N_J_KNVallocator@2@Uadl_serializer@nlohmann@@@nlohmann@@@std@@PAX@std@@@std@@V?$_Tree_val@U?$_Tree_simple_types@U?$pair@$$CBV?$basic_string@DU?$char_traits@D@std@@V?$allocator@D@2@@std@@V?$basic_json@Vmap@std@@Vvector@2@V?$basic_string@DU?$char_traits@D@std@@V?$allocator@D@2@@2@_N_J_KNVallocator@2@Uadl_serializer@nlohmann@@@nlohmann@@@std@@@std@@@2@$00@std@@QBEABV?$allocator@U?$_Tree_node@U?$pair@$$CBV?$basic_string@DU?$char_traits@D@std@@V?$allocator@D@2@@std@@V?$basic_json@Vmap@std@@Vvector@2@V?$basic_string@DU?$char_traits@D@std@@V?$allocator@D@2@@2@_N_J_KNVallocator@2@Uadl_serializer@nlohmann@@@nlohmann@@@std@@PAX@std@@@2@XZ 10003680 f i c_menu.obj
 0001:00002680       ?_Get_first@?$_Compressed_pair@V<lambda_1>@?1???$create@V?$basic_string@DU?$char_traits@D@std@@V?$allocator@D@2@@std@@V12@@?$basic_json@Vmap@std@@Vvector@2@V?$basic_string@DU?$char_traits@D@std@@V?$allocator@D@2@@2@_N_J_KNVallocator@2@Uadl_serializer@nlohmann@@@nlohmann@@CAPAV?$basic_string@DU?$char_traits@D@std@@V?$allocator@D@2@@std@@$$QAV45@@Z@PAV45@$0A@@std@@QAEAAV<lambda_1>@?1???$create@V?$basic_string@DU?$char_traits@D@std@@V?$allocator@D@2@@std@@V12@@?$basic_json@Vmap@std@@Vvector@2@V?$basic_string@DU?$char_traits@D@std@@V?$allocator@D@2@@2@_N_J_KNVallocator@2@Uadl_serializer@nlohmann@@@nlohmann@@CAPAV?$basic_string@DU?$char_traits@D@std@@V?$allocator@D@2@@2@$$QAV62@@Z@XZ 10003680 f i c_menu.obj
 0001:00002680       ??0?$allocator@U?$_Tree_node@U?$pair@$$CBV?$basic_string@DU?$char_traits@D@std@@V?$allocator@D@2@@std@@V?$basic_json@Vmap@std@@Vvector@2@V?$basic_string@DU?$char_traits@D@std@@V?$allocator@D@2@@2@_N_J_KNVallocator@2@Uadl_serializer@nlohmann@@@nlohmann@@@std@@PAX@std@@@std@@QAE@XZ 10003680 f i c_menu.obj
 0001:00002680       ??0?$_Func_base@X$$V@std@@QAE@XZ 10003680 f i c_ragebot.obj
 0001:00002680       ?_Get_rest@?$tuple@MPAUanimation@c_animation_system@@M@std@@QAEAAV?$tuple@PAUanimation@c_animation_system@@M@2@XZ 10003680 f i c_aimhelper.obj
 0001:00002680       ?_Get_first@?$_Compressed_pair@V?$allocator@Uaim_info@c_aimhelper@@@std@@V?$_Vector_val@U?$_Simple_types@Uaim_info@c_aimhelper@@@std@@@2@$00@std@@QAEAAV?$allocator@Uaim_info@c_aimhelper@@@2@XZ 10003680 f i c_aimhelper.obj
 0001:00002680       ??0?$allocator@Unade_info@c_esp@@@std@@QAE@XZ 10003680 f i aimbot_recode.obj
 0001:00002680       ?_Get_first@?$_Compressed_pair@V?$allocator@U?$_List_node@U?$pair@$$CBIVc_font@@@std@@PAX@std@@@std@@V?$_List_val@U?$_List_simple_types@U?$pair@$$CBIVc_font@@@std@@@std@@@2@$00@std@@QAEAAV?$allocator@U?$_List_node@U?$pair@$$CBIVc_font@@@std@@PAX@std@@@2@XZ 10003680 f i c_damageesp.obj
 0001:00002680       ?_Get_first@?$_Compressed_pair@U?$hash@PAVc_hotkey_select@@@std@@V?$_Compressed_pair@U?$equal_to@PAVc_hotkey_select@@@std@@M$00@2@$00@std@@QBEABU?$hash@PAVc_hotkey_select@@@2@XZ 10003680 f i c_hotkeys.obj
 0001:00002680       ??0?$allocator@Vc_vector3d@@@std@@QAE@XZ 10003680 f i aimbot_recode.obj
 0001:00002680       ??0?$allocator@V?$map@V?$basic_string@DU?$char_traits@D@std@@V?$allocator@D@2@@std@@V?$basic_json@Vmap@std@@Vvector@2@V?$basic_string@DU?$char_traits@D@std@@V?$allocator@D@2@@2@_N_J_KNVallocator@2@Uadl_serializer@nlohmann@@@nlohmann@@U?$less@X@2@V?$allocator@U?$pair@$$CBV?$basic_string@DU?$char_traits@D@std@@V?$allocator@D@2@@std@@V?$basic_json@Vmap@std@@Vvector@2@V?$basic_string@DU?$char_traits@D@std@@V?$allocator@D@2@@2@_N_J_KNVallocator@2@Uadl_serializer@nlohmann@@@nlohmann@@@std@@@2@@std@@@std@@QAE@XZ 10003680 f i c_menu.obj
 0001:00002680       ?_Get_first@?$_Compressed_pair@V<lambda_1>@?1???$create@V?$map@V?$basic_string@DU?$char_traits@D@std@@V?$allocator@D@2@@std@@V?$basic_json@Vmap@std@@Vvector@2@V?$basic_string@DU?$char_traits@D@std@@V?$allocator@D@2@@2@_N_J_KNVallocator@2@Uadl_serializer@nlohmann@@@nlohmann@@U?$less@X@2@V?$allocator@U?$pair@$$CBV?$basic_string@DU?$char_traits@D@std@@V?$allocator@D@2@@std@@V?$basic_json@Vmap@std@@Vvector@2@V?$basic_string@DU?$char_traits@D@std@@V?$allocator@D@2@@2@_N_J_KNVallocator@2@Uadl_serializer@nlohmann@@@nlohmann@@@std@@@2@@std@@$$V@?$basic_json@Vmap@std@@Vvector@2@V?$basic_string@DU?$char_traits@D@std@@V?$allocator@D@2@@2@_N_J_KNVallocator@2@Uadl_serializer@nlohmann@@@nlohmann@@CAPAV?$map@V?$basic_string@DU?$char_traits@D@std@@V?$allocator@D@2@@std@@V?$basic_json@Vmap@std@@Vvector@2@V?$basic_string@DU?$char_traits@D@std@@V?$allocator@D@2@@2@_N_J_KNVallocator@2@Uadl_serializer@nlohmann@@@nlohmann@@U?$less@X@2@V?$allocator@U?$pair@$$CBV?$basic_string@DU?$char_traits@D@std@@V?$allocator@D@2@@std@@V?$basic_json@Vmap@std@@Vvector@2@V?$basic_string@DU?$char_traits@D@std@@V?$allocator@D@2@@2@_N_J_KNVallocator@2@Uadl_serializer@nlohmann@@@nlohmann@@@std@@@2@@std@@XZ@PAV45@$0A@@std@@QAEAAV<lambda_1>@?1???$create@V?$map@V?$basic_string@DU?$char_traits@D@std@@V?$allocator@D@2@@std@@V?$basic_json@Vmap@std@@Vvector@2@V?$basic_string@DU?$char_traits@D@std@@V?$allocator@D@2@@2@_N_J_KNVallocator@2@Uadl_serializer@nlohmann@@@nlohmann@@U?$less@X@2@V?$allocator@U?$pair@$$CBV?$basic_string@DU?$char_traits@D@std@@V?$allocator@D@2@@std@@V?$basic_json@Vmap@std@@Vvector@2@V?$basic_string@DU?$char_traits@D@std@@V?$allocator@D@2@@2@_N_J_KNVallocator@2@Uadl_serializer@nlohmann@@@nlohmann@@@std@@@2@@std@@$$V@?$basic_json@Vmap@std@@Vvector@2@V?$basic_string@DU?$char_traits@D@std@@V?$allocator@D@2@@2@_N_J_KNVallocator@2@Uadl_serializer@nlohmann@@@nlohmann@@CAPAV?$map@V?$basic_string@DU?$char_traits@D@std@@V?$allocator@D@2@@std@@V?$basic_json@Vmap@std@@Vvector@2@V?$basic_string@DU?$char_traits@D@std@@V?$allocator@D@2@@2@_N_J_KNVallocator@2@Uadl_serializer@nlohmann@@@nlohmann@@U?$less@X@2@V?$allocator@U?$pair@$$CBV?$basic_string@DU?$char_traits@D@std@@V?$allocator@D@2@@std@@V?$basic_json@Vmap@std@@Vvector@2@V?$basic_string@DU?$char_traits@D@std@@V?$allocator@D@2@@2@_N_J_KNVallocator@2@Uadl_serializer@nlohmann@@@nlohmann@@@std@@@2@@2@XZ@XZ 10003680 f i c_menu.obj
 0001:00002680       ?_Get_first@?$_Compressed_pair@V?$allocator@Ushot@resolver@@@std@@V?$_Deque_val@U?$_Deque_simple_types@Ushot@resolver@@@std@@@2@$00@std@@QBEABV?$allocator@Ushot@resolver@@@2@XZ 10003680 f i c_resolver.obj
 0001:00002680       ??0?$allocator@U?$pair@QAVc_hotkey_select@@V?$function@$$A6AXI@Z@std@@@std@@@std@@QAE@XZ 10003680 f i c_hotkeys.obj
 0001:00002680       ??0?$tuple@$$V@std@@QAE@XZ 10003680 f i aimbot_recode.obj
 0001:00002680       ??0?$allocator@VImConsoleTextItem@@@std@@QAE@XZ 10003680 f i ImConsole.obj
 0001:00002680       ?_Get_first@?$_Compressed_pair@V?$allocator@U?$pair@V?$shared_ptr@Vc_drawable@@@std@@U?$pair@Vc_vector2d@@V1@@2@@std@@@std@@V?$_Vector_val@U?$_Simple_types@U?$pair@V?$shared_ptr@Vc_drawable@@@std@@U?$pair@Vc_vector2d@@V1@@2@@std@@@std@@@2@$00@std@@QBEABV?$allocator@U?$pair@V?$shared_ptr@Vc_drawable@@@std@@U?$pair@Vc_vector2d@@V1@@2@@std@@@2@XZ 10003680 f i c_checkbox.obj
 0001:00002680       ?_Unchecked_begin@?$array@Vc_nadepoint@@$0BPE@@std@@QAEPAVc_nadepoint@@XZ 10003680 f i grenade_prediction.obj
 0001:00002680       ??0?$allocator@D@std@@QAE@XZ 10003680 f i dll.obj
 0001:00002680       ??0?$allocator@V?$vector@MV?$allocator@M@std@@@std@@@std@@QAE@XZ 10003680 f i c_font.obj
 0001:00002680       ?_Get_rest@?$tuple@MPAUanimation@c_animation_system@@M@std@@QBEABV?$tuple@PAUanimation@c_animation_system@@M@2@XZ 10003680 f i c_aimhelper.obj
 0001:00002680       ?_Get_first@?$_Compressed_pair@V?$allocator@U?$pair@PAVc_cs_player@@M@std@@@std@@V?$_Vector_val@U?$_Simple_types@U?$pair@PAVc_cs_player@@M@std@@@std@@@2@$00@std@@QBEABV?$allocator@U?$pair@PAVc_cs_player@@M@std@@@2@XZ 10003680 f i c_chams.obj
 0001:00002680       ?_Get_first@?$_Compressed_pair@V?$allocator@V?$_List_unchecked_iterator@V?$_List_val@U?$_List_simple_types@U?$pair@$$CBIV?$unordered_map@IUnetvar@c_netvar@@U?$hash@I@std@@U?$equal_to@I@4@V?$allocator@U?$pair@$$CBIUnetvar@c_netvar@@@std@@@4@@std@@@std@@@std@@@std@@@std@@@std@@V?$_Vector_val@U?$_Simple_types@V?$_List_unchecked_iterator@V?$_List_val@U?$_List_simple_types@U?$pair@$$CBIV?$unordered_map@IUnetvar@c_netvar@@U?$hash@I@std@@U?$equal_to@I@4@V?$allocator@U?$pair@$$CBIUnetvar@c_netvar@@@std@@@4@@std@@@std@@@std@@@std@@@std@@@std@@@2@$00@std@@QAEAAV?$allocator@V?$_List_unchecked_iterator@V?$_List_val@U?$_List_simple_types@U?$pair@$$CBIV?$unordered_map@IUnetvar@c_netvar@@U?$hash@I@std@@U?$equal_to@I@4@V?$allocator@U?$pair@$$CBIUnetvar@c_netvar@@@std@@@4@@std@@@std@@@std@@@std@@@std@@@2@XZ 10003680 f i DLLMain.obj
 0001:00002680       ??0?$allocator@U?$pair@$$CBIV?$unordered_map@IUnetvar@c_netvar@@U?$hash@I@std@@U?$equal_to@I@4@V?$allocator@U?$pair@$$CBIUnetvar@c_netvar@@@std@@@4@@std@@@std@@@std@@QAE@XZ 10003680 f i c_netvar.obj
 0001:00002680       ?_Get_first@?$_Compressed_pair@V?$allocator@U?$pair@V?$shared_ptr@Vc_drawable@@@std@@U?$pair@Vc_vector2d@@V1@@2@@std@@@std@@V?$_Vector_val@U?$_Simple_types@U?$pair@V?$shared_ptr@Vc_drawable@@@std@@U?$pair@Vc_vector2d@@V1@@2@@std@@@std@@@2@$00@std@@QAEAAV?$allocator@U?$pair@V?$shared_ptr@Vc_drawable@@@std@@U?$pair@Vc_vector2d@@V1@@2@@std@@@2@XZ 10003680 f i DLLMain.obj
 0001:00002680       ?_Get_first@?$_Compressed_pair@V?$allocator@V?$tuple@MMM@std@@@std@@V?$_Vector_val@U?$_Simple_types@V?$tuple@MMM@std@@@std@@@2@$00@std@@QAEAAV?$allocator@V?$tuple@MMM@std@@@2@XZ 10003680 f i c_aimhelper.obj
 0001:00002680       ?_Get_first@?$_Compressed_pair@V?$allocator@V?$basic_json@Vmap@std@@Vvector@2@V?$basic_string@DU?$char_traits@D@std@@V?$allocator@D@2@@2@_N_J_KNVallocator@2@Uadl_serializer@nlohmann@@@nlohmann@@@std@@V?$_Vector_val@U?$_Simple_types@V?$basic_json@Vmap@std@@Vvector@2@V?$basic_string@DU?$char_traits@D@std@@V?$allocator@D@2@@2@_N_J_KNVallocator@2@Uadl_serializer@nlohmann@@@nlohmann@@@std@@@2@$00@std@@QBEABV?$allocator@V?$basic_json@Vmap@std@@Vvector@2@V?$basic_string@DU?$char_traits@D@std@@V?$allocator@D@2@@2@_N_J_KNVallocator@2@Uadl_serializer@nlohmann@@@nlohmann@@@2@XZ 10003680 f i c_menu.obj
 0001:00002680       ?data@?$array@D$0CAA@@std@@QAEPADXZ 10003680 f i c_menu.obj
 0001:00002680       ??0?$allocator@V?$basic_string@DU?$char_traits@D@std@@V?$allocator@D@2@@std@@@std@@QAE@XZ 10003680 f i c_miscellaneous.obj
 0001:00002680       ?_Get_data@?$deque@UCIncomingSequence@@V?$allocator@UCIncomingSequence@@@std@@@std@@AAEAAV?$_Deque_val@U?$_Deque_simple_types@UCIncomingSequence@@@std@@@2@XZ 10003680 f i c_fake_ping.obj
 0001:00002680       ?_Get_rest@?$tuple@M@std@@QBEABV?$tuple@$$V@2@XZ 10003680 f i c_aimhelper.obj
 0001:00002680       ?_Get_first@?$_Compressed_pair@V?$allocator@PAUanimation@c_animation_system@@@std@@V?$_Vector_val@U?$_Simple_types@PAUanimation@c_animation_system@@@std@@@2@$00@std@@QBEABV?$allocator@PAUanimation@c_animation_system@@@2@XZ 10003680 f i c_aimhelper.obj
 0001:00002680       ?_Get_first@?$_Compressed_pair@V?$allocator@V?$_List_unchecked_iterator@V?$_List_val@U?$_List_simple_types@U?$pair@$$CBIPAVCD3DFont@@@std@@@std@@@std@@@std@@@std@@V?$_Vector_val@U?$_Simple_types@V?$_List_unchecked_iterator@V?$_List_val@U?$_List_simple_types@U?$pair@$$CBIPAVCD3DFont@@@std@@@std@@@std@@@std@@@std@@@2@$00@std@@QAEAAV?$allocator@V?$_List_unchecked_iterator@V?$_List_val@U?$_List_simple_types@U?$pair@$$CBIPAVCD3DFont@@@std@@@std@@@std@@@std@@@2@XZ 10003680 f i c_damageesp.obj
 0001:00002680       ??0?$allocator@Uhitmarker_info@@@std@@QAE@XZ 10003680 f i c_hitmarker.obj
 0001:00002680       ?_Get_rest@?$tuple@MM@std@@QAEAAV?$tuple@M@2@XZ 10003680 f i c_aimhelper.obj
 0001:00002680       ??0?$allocator@W4hitbox@c_cs_player@@@std@@QAE@XZ 10003680 f i aimbot_recode.obj
 0001:00002680       ?_Get_first@?$_Compressed_pair@V?$allocator@D@std@@V?$_Vector_val@U?$_Simple_types@D@std@@@2@$00@std@@QAEAAV?$allocator@D@2@XZ 10003680 f i c_menu.obj
 0001:00002680       ?_Get_rest@?$tuple@Vc_vector3d@@MPAUanimation@c_animation_system@@M@std@@QAEAAV?$tuple@MPAUanimation@c_animation_system@@M@2@XZ 10003680 f i c_aimhelper.obj
 0001:00002680       ?_Get_rest@?$tuple@Vc_vector3d@@PAUanimation@c_animation_system@@MM@std@@QAEAAV?$tuple@PAUanimation@c_animation_system@@MM@2@XZ 10003680 f i c_aimhelper.obj
 0001:00002680       ?_Get_first@?$_Compressed_pair@V?$allocator@U?$_Tree_node@U?$pair@$$CBHH@std@@PAX@std@@@std@@V?$_Tree_val@U?$_Tree_simple_types@U?$pair@$$CBHH@std@@@std@@@2@$00@std@@QAEAAV?$allocator@U?$_Tree_node@U?$pair@$$CBHH@std@@PAX@std@@@2@XZ 10003680 f i c_prediction_.obj
 0001:00002680       ?_Get_first@?$_Compressed_pair@V?$allocator@U?$pair@PAVc_cs_player@@M@std@@@std@@V?$_Vector_val@U?$_Simple_types@U?$pair@PAVc_cs_player@@M@std@@@std@@@2@$00@std@@QAEAAV?$allocator@U?$pair@PAVc_cs_player@@M@std@@@2@XZ 10003680 f i c_chams.obj
 0001:00002680       ?_Get_first@?$_Compressed_pair@V?$allocator@UCIncomingSequence@@@std@@V?$_Deque_val@U?$_Deque_simple_types@UCIncomingSequence@@@std@@@2@$00@std@@QBEABV?$allocator@UCIncomingSequence@@@2@XZ 10003680 f i c_net_channel_.obj
 0001:00002680       ?_Get_first@?$_Compressed_pair@V?$allocator@Udamage_infos@@@std@@V?$_Vector_val@U?$_Simple_types@Udamage_infos@@@std@@@2@$00@std@@QBEABV?$allocator@Udamage_infos@@@2@XZ 10003680 f i c_esp.obj
 0001:00002680       ?_Get_first@?$_Compressed_pair@V?$allocator@U?$_List_node@U?$pair@$$CBIVc_font@@@std@@PAX@std@@@std@@V?$_List_val@U?$_List_simple_types@U?$pair@$$CBIVc_font@@@std@@@std@@@2@$00@std@@QBEABV?$allocator@U?$_List_node@U?$pair@$$CBIVc_font@@@std@@PAX@std@@@2@XZ 10003680 f i c_renderer.obj
 0001:00002680       ??0?$allocator@PAUanimation@c_animation_system@@@std@@QAE@XZ 10003680 f i c_aimhelper.obj
 0001:00002680       ?_Get_first@?$_Compressed_pair@V<lambda_1>@?1???$create@V?$basic_string@DU?$char_traits@D@std@@V?$allocator@D@2@@std@@ABV12@@?$basic_json@Vmap@std@@Vvector@2@V?$basic_string@DU?$char_traits@D@std@@V?$allocator@D@2@@2@_N_J_KNVallocator@2@Uadl_serializer@nlohmann@@@nlohmann@@CAPAV?$basic_string@DU?$char_traits@D@std@@V?$allocator@D@2@@std@@ABV45@@Z@PAV45@$0A@@std@@QAEAAV<lambda_1>@?1???$create@V?$basic_string@DU?$char_traits@D@std@@V?$allocator@D@2@@std@@ABV12@@?$basic_json@Vmap@std@@Vvector@2@V?$basic_string@DU?$char_traits@D@std@@V?$allocator@D@2@@2@_N_J_KNVallocator@2@Uadl_serializer@nlohmann@@@nlohmann@@CAPAV?$basic_string@DU?$char_traits@D@std@@V?$allocator@D@2@@2@ABV62@@Z@XZ 10003680 f i c_menu.obj
 0001:00002680       ??0?$allocator@U?$pair@$$CBIUnetvar@c_netvar@@@std@@@std@@QAE@XZ 10003680 f i aimbot_recode.obj
 0001:00002680       ?_Get_first@?$_Compressed_pair@V?$allocator@Uimpact_info@@@std@@V?$_Vector_val@U?$_Simple_types@Uimpact_info@@@std@@@2@$00@std@@QBEABV?$allocator@Uimpact_info@@@2@XZ 10003680 f i c_hitmarker.obj
 0001:00002680       ??0?$allocator@U?$pair@$$CBIUanimation_info@c_animation_system@@@std@@@std@@QAE@XZ 10003680 f i aimbot_recode.obj
 0001:00002680       ?_Get_first@?$_Compressed_pair@V?$allocator@V?$_List_unchecked_iterator@V?$_List_val@U?$_List_simple_types@U?$pair@$$CBIVc_font@@@std@@@std@@@std@@@std@@@std@@V?$_Vector_val@U?$_Simple_types@V?$_List_unchecked_iterator@V?$_List_val@U?$_List_simple_types@U?$pair@$$CBIVc_font@@@std@@@std@@@std@@@std@@@std@@@2@$00@std@@QAEAAV?$allocator@V?$_List_unchecked_iterator@V?$_List_val@U?$_List_simple_types@U?$pair@$$CBIVc_font@@@std@@@std@@@std@@@std@@@2@XZ 10003680 f i c_damageesp.obj
 0001:00002680       ?_Get_first@?$_Compressed_pair@V?$allocator@Ushot@resolver@@@std@@V?$_Deque_val@U?$_Deque_simple_types@Ushot@resolver@@@std@@@2@$00@std@@QAEAAV?$allocator@Ushot@resolver@@@2@XZ 10003680 f i aimbot_recode.obj
 0001:00002680       ?_Get_data@?$deque@Uanimation@c_animation_system@@V?$allocator@Uanimation@c_animation_system@@@std@@@std@@ABEABV?$_Deque_val@U?$_Deque_simple_types@Uanimation@c_animation_system@@@std@@@2@XZ 10003680 f i aimbot_recode.obj
 0001:00002680       ?_Get_first@?$_Compressed_pair@V?$allocator@W4hitbox@c_cs_player@@@std@@V?$_Vector_val@U?$_Simple_types@W4hitbox@c_cs_player@@@std@@@2@$00@std@@QAEAAV?$allocator@W4hitbox@c_cs_player@@@2@XZ 10003680 f i aimbot_recode.obj
 0001:00002680       ?_Get_first@?$_Compressed_pair@U?$default_delete@V_Facet_base@std@@@std@@PAV_Facet_base@2@$00@std@@QAEAAU?$default_delete@V_Facet_base@std@@@2@XZ 10003680 f i dll.obj
 0001:00002690       ??0?$basic_filebuf@DU?$char_traits@D@std@@@std@@QAE@XZ 10003690 f i dll.obj
 0001:00002700       ??0?$basic_string@DU?$char_traits@D@std@@V?$allocator@D@2@@std@@QAE@XZ 10003700 f i dll.obj
 0001:00002770       ??0?$fpos@U_Mbstatet@@@std@@QAE@U_Mbstatet@@_J@Z 10003770 f i dll.obj
 0001:000027b0       ??0?$fpos@U_Mbstatet@@@std@@QAE@_J@Z 100037b0 f i dll.obj
 0001:000027f0       ??0bad_alloc@std@@AAE@QBD@Z 100037f0 f i dll.obj
 0001:00002820       ??0bad_alloc@std@@QAE@ABV01@@Z 10003820 f i dll.obj
 0001:00002850       ??0bad_array_new_length@std@@QAE@ABV01@@Z 10003850 f i dll.obj
 0001:00002880       ??0bad_array_new_length@std@@QAE@XZ 10003880 f i dll.obj
 0001:000028b0       ??0bad_cast@std@@QAE@ABV01@@Z 100038b0 f i dll.obj
 0001:000028e0       ??0bad_cast@std@@QAE@XZ    100038e0 f i dll.obj
 0001:00002910       ??0exception@std@@QAE@ABV01@@Z 10003910 f i dll.obj
 0001:00002950       ??0exception@std@@QAE@QBDH@Z 10003950 f i dll.obj
 0001:00002980       ??1?$_Deque_iterator@V?$_Deque_val@U?$_Deque_simple_types@Uanimation@c_animation_system@@@std@@@std@@@std@@QAE@XZ 10003980 f i c_animation_system.obj
 0001:00002980       ??1?$_Compressed_pair@V?$allocator@D@std@@V?$_String_val@U?$_Simple_types@D@std@@@2@$00@std@@QAE@XZ 10003980 f i dll.obj
 0001:00002980       ??1?$_Deque_iterator@V?$_Deque_val@U?$_Deque_simple_types@Ushot@resolver@@@std@@@std@@@std@@QAE@XZ 10003980 f i c_resolver.obj
 0001:000029a0       ??1?$_Deque_const_iterator@V?$_Deque_val@U?$_Deque_simple_types@Uanimation@c_animation_system@@@std@@@std@@@std@@QAE@XZ 100039a0 f i c_animation_system.obj
 0001:000029a0       ??1?$output_string_adapter@DV?$basic_string@DU?$char_traits@D@std@@V?$allocator@D@2@@std@@@detail@nlohmann@@UAE@XZ 100039a0 f i c_menu.obj
 0001:000029a0       ??1input_buffer_adapter@detail@nlohmann@@UAE@XZ 100039a0 f i c_menu.obj
 0001:000029a0       ??1c_events@@UAE@XZ        100039a0 f i c_events.obj
 0001:000029a0       ??1?$_Deque_const_iterator@V?$_Deque_val@U?$_Deque_simple_types@Ushot@resolver@@@std@@@std@@@std@@QAE@XZ 100039a0 f i c_resolver.obj
 0001:000029a0       ??1?$_String_val@U?$_Simple_types@D@std@@@std@@QAE@XZ 100039a0 f i dll.obj
 0001:000029c0       ??1?$basic_filebuf@DU?$char_traits@D@std@@@std@@UAE@XZ 100039c0 f i dll.obj
 0001:00002a30       ??1?$basic_string@DU?$char_traits@D@std@@V?$allocator@D@2@@std@@QAE@XZ 10003a30 f i dll.obj
 0001:00002a50       ??1?$unique_ptr@V_Facet_base@std@@U?$default_delete@V_Facet_base@std@@@2@@std@@QAE@XZ 10003a50 f i dll.obj
 0001:00002a90       ?_Orphan_all@_Container_base12@std@@QAEXXZ 10003a90 f i aimbot_recode.obj
 0001:00002a90       ??1c_color@@QAE@XZ         10003a90 f i c_color.obj
 0001:00002a90       ??1_Iterator_base12@std@@QAE@XZ 10003a90 f i c_animation_system.obj
 0001:00002a90       ?_Orphan_non_end@?$_List_val@U?$_List_simple_types@U?$pair@QAVc_hotkey_select@@V?$function@$$A6AXI@Z@std@@@std@@@std@@@std@@QAEXXZ 10003a90 f i c_hotkeys.obj
 0001:00002a90       ?_Orphan_non_end@?$_List_val@U?$_List_simple_types@U?$pair@$$CBIUnetvar@c_netvar@@@std@@@std@@@std@@QAEXXZ 10003a90 f i aimbot_recode.obj
 0001:00002a90       ?_Release@_Fake_proxy_ptr_impl@std@@QAEXXZ 10003a90 f i aimbot_recode.obj
 0001:00002a90       ??1c_game_event_listener@@UAE@XZ 10003a90 f i c_events.obj
 0001:00002a90       ?_Orphan_non_end@?$_List_val@U?$_List_simple_types@U?$pair@$$CBIUanimation_info@c_animation_system@@@std@@@std@@@std@@QAEXXZ 10003a90 f i c_animation_system.obj
 0001:00002a90       ?_Orphan_non_end@?$_List_val@U?$_List_simple_types@U?$pair@$$CBIVc_font@@@std@@@std@@@std@@QAEXXZ 10003a90 f i c_renderer.obj
 0001:00002a90       ??1input_adapter_protocol@detail@nlohmann@@UAE@XZ 10003a90 f i c_menu.obj
 0001:00002a90       ?on_hold@c_drawable@@UAEXXZ 10003a90 f i c_menu.obj
 0001:00002a90       ??1_Bxty@?$_String_val@U?$_Simple_types@D@std@@@std@@QAE@XZ 10003a90 f i dll.obj
 0001:00002a90       ??1c_user_cmd@@UAE@XZ      10003a90 f i c_antiaim.obj
 0001:00002a90       ?_Orphan_non_end@?$_List_val@U?$_List_simple_types@U?$pair@$$CBIV?$unordered_map@IUnetvar@c_netvar@@U?$hash@I@std@@U?$equal_to@I@4@V?$allocator@U?$pair@$$CBIUnetvar@c_netvar@@@std@@@4@@std@@@std@@@std@@@std@@QAEXXZ 10003a90 f i aimbot_recode.obj
 0001:00002a90       ?_Orphan_all@_Container_base0@std@@QAEXXZ 10003a90 f i dll.obj
 0001:00002a90       ??1?$output_adapter_protocol@D@detail@nlohmann@@UAE@XZ 10003a90 f i c_menu.obj
 0001:00002a90       ?assert_invariant@?$basic_json@Vmap@std@@Vvector@2@V?$basic_string@DU?$char_traits@D@std@@V?$allocator@D@2@@2@_N_J_KNVallocator@2@Uadl_serializer@nlohmann@@@nlohmann@@ABEXXZ 10003a90 f i c_menu.obj
 0001:00002a90       ??1_Ref_count_base@std@@UAE@XZ 10003a90 f i c_menu.obj
 0001:00002a90       ??1weapon_data@c_base_combat_weapon@@UAE@XZ 10003a90 f i c_trace_system.obj
 0001:00002aa0       ??1bad_optional_access@std@@UAE@XZ 10003aa0 f i aimbot_recode.obj
 0001:00002aa0       ??1runtime_error@std@@UAE@XZ 10003aa0 f i c_menu.obj
 0001:00002aa0       ??1bad_cast@std@@UAE@XZ    10003aa0 f i dll.obj
 0001:00002aa0       ??1bad_alloc@std@@UAE@XZ   10003aa0 f i dll.obj
 0001:00002ac0       ??1bad_array_new_length@std@@UAE@XZ 10003ac0 f i dll.obj
 0001:00002ae0       ??1exception@std@@UAE@XZ   10003ae0 f i dll.obj
 0001:00002b10       ??1locale@std@@QAE@XZ      10003b10 f i dll.obj
 0001:00002b60       ??2@YAPAXIPAX@Z            10003b60 f i dll.obj
 0001:00002b70       ??B?$fpos@U_Mbstatet@@@std@@QBE_JXZ 10003b70 f i dll.obj
 0001:00002ba0       ??R<lambda_1>@?1??push_back@?$basic_string@DU?$char_traits@D@std@@V?$allocator@D@2@@std@@QAEXD@Z@QBEXQADQBDID@Z 10003ba0 f i dll.obj
 0001:00002c00       ??R?$default_delete@V_Facet_base@std@@@std@@QBEXPAV_Facet_base@1@@Z 10003c00 f i dll.obj
 0001:00002c40       ??_G?$basic_filebuf@DU?$char_traits@D@std@@@std@@UAEPAXI@Z 10003c40 f i dll.obj
 0001:00002c40       ??_E?$basic_filebuf@DU?$char_traits@D@std@@@std@@UAEPAXI@Z 10003c40 f i dll.obj
 0001:00002c70       ??_Eruntime_error@std@@UAEPAXI@Z 10003c70 f i c_menu.obj
 0001:00002c70       ??_Gruntime_error@std@@UAEPAXI@Z 10003c70 f i c_menu.obj
 0001:00002c70       ??_Gbad_cast@std@@UAEPAXI@Z 10003c70 f i dll.obj
 0001:00002c70       ??_Ebad_alloc@std@@UAEPAXI@Z 10003c70 f i dll.obj
 0001:00002c70       ??_Gbad_alloc@std@@UAEPAXI@Z 10003c70 f i dll.obj
 0001:00002c70       ??_Gbad_optional_access@std@@UAEPAXI@Z 10003c70 f i aimbot_recode.obj
 0001:00002c70       ??_Ebad_cast@std@@UAEPAXI@Z 10003c70 f i dll.obj
 0001:00002c70       ??_Ebad_optional_access@std@@UAEPAXI@Z 10003c70 f i aimbot_recode.obj
 0001:00002ca0       ??_Gbad_array_new_length@std@@UAEPAXI@Z 10003ca0 f i dll.obj
 0001:00002ca0       ??_Ebad_array_new_length@std@@UAEPAXI@Z 10003ca0 f i dll.obj
 0001:00002cd0       ??_Eexception@std@@UAEPAXI@Z 10003cd0 f i dll.obj
 0001:00002cd0       ??_Gexception@std@@UAEPAXI@Z 10003cd0 f i dll.obj
 0001:00002d00       ?GetProcAddressFromMemory@CLoad@@QAEP6GHXZPAXPBD@Z 10003d00 f   dll.obj
 0001:00002e90       ?_Adjust_manually_vector_aligned@std@@YAXAAPAXAAI@Z 10003e90 f i dll.obj
 0001:00002f00       ?_Verify_offset@?$_String_const_iterator@V?$_String_val@U?$_Simple_types@D@std@@@std@@@std@@QBEXH@Z 10003f00 f i aimbot_recode.obj
 0001:00002f00       ?_Verify_offset@?$_Vector_const_iterator@V?$_Vector_val@U?$_Simple_types@Uimpact_info@@@std@@@std@@@std@@QBEXH@Z 10003f00 f i c_hitmarker.obj
 0001:00002f00       ?_Compat@?$_Vector_const_iterator@V?$_Vector_val@U?$_Simple_types@H@std@@@std@@@std@@QBEXABV12@@Z 10003f00 f i grenade_prediction.obj
 0001:00002f00       ?_Compat@?$_Deque_const_iterator@V?$_Deque_val@U?$_Deque_simple_types@Uanimation@c_animation_system@@@std@@@std@@@std@@QBEXABV12@@Z 10003f00 f i c_animation_system.obj
 0001:00002f00       ?_Verify_offset@?$_Deque_const_iterator@V?$_Deque_val@U?$_Deque_simple_types@Uanimation@c_animation_system@@@std@@@std@@@std@@QBEXH@Z 10003f00 f i c_animation_system.obj
 0001:00002f00       ?_Compat@?$_Vector_const_iterator@V?$_Vector_val@U?$_Simple_types@V?$basic_json@Vmap@std@@Vvector@2@V?$basic_string@DU?$char_traits@D@std@@V?$allocator@D@2@@2@_N_J_KNVallocator@2@Uadl_serializer@nlohmann@@@nlohmann@@@std@@@std@@@std@@QBEXABV12@@Z 10003f00 f i c_menu.obj
 0001:00002f00       ?_Verify_offset@?$_Deque_const_iterator@V?$_Deque_val@U?$_Deque_simple_types@Ushot@resolver@@@std@@@std@@@std@@QBEXH@Z 10003f00 f i c_resolver.obj
 0001:00002f00       ?_Verify_offset@?$_Vector_const_iterator@V?$_Vector_val@U?$_Simple_types@Uhitmarker_info@@@std@@@std@@@std@@QBEXH@Z 10003f00 f i c_hitmarker.obj
 0001:00002f00       ?_Swap_proxy_and_iterators@_Container_base0@std@@QAEXAAU12@@Z 10003f00 f i aimbot_recode.obj
 0001:00002f00       ?_Compat@?$_String_const_iterator@V?$_String_val@U?$_Simple_types@D@std@@@std@@@std@@QBEXABV12@@Z 10003f00 f i c_menu.obj
 0001:00002f00       ?_Compat@?$_Deque_const_iterator@V?$_Deque_val@U?$_Deque_simple_types@Ushot@resolver@@@std@@@std@@@std@@QBEXABV12@@Z 10003f00 f i c_resolver.obj
 0001:00002f00       ?_Alloc_proxy@_Container_base0@std@@QAEXABU_Fake_allocator@2@@Z 10003f00 f i dll.obj
 0001:00002f00       ?_Orphan_ptr2@?$_List_val@U?$_List_simple_types@U?$pair@$$CBIUanimation_info@c_animation_system@@@std@@@std@@@std@@QAEXPAU?$_List_node@U?$pair@$$CBIUanimation_info@c_animation_system@@@std@@PAX@2@@Z 10003f00 f i c_animation_system.obj
 0001:00002f00       ?_Adopt@_Iterator_base0@std@@QAEXPBX@Z 10003f00 f i aimbot_recode.obj
 0001:00002f00       ?_Verify_offset@?$_Vector_const_iterator@V?$_Vector_val@U?$_Simple_types@V?$basic_json@Vmap@std@@Vvector@2@V?$basic_string@DU?$char_traits@D@std@@V?$allocator@D@2@@2@_N_J_KNVallocator@2@Uadl_serializer@nlohmann@@@nlohmann@@@std@@@std@@@std@@QBEXH@Z 10003f00 f i c_menu.obj
 0001:00002f00       ?_Orphan_ptr@?$_Tree_val@U?$_Tree_simple_types@U?$pair@$$CBV?$basic_string@DU?$char_traits@D@std@@V?$allocator@D@2@@std@@V?$basic_json@Vmap@std@@Vvector@2@V?$basic_string@DU?$char_traits@D@std@@V?$allocator@D@2@@2@_N_J_KNVallocator@2@Uadl_serializer@nlohmann@@@nlohmann@@@std@@@std@@@std@@QAEXQAU?$_Tree_node@U?$pair@$$CBV?$basic_string@DU?$char_traits@D@std@@V?$allocator@D@2@@std@@V?$basic_json@Vmap@std@@Vvector@2@V?$basic_string@DU?$char_traits@D@std@@V?$allocator@D@2@@2@_N_J_KNVallocator@2@Uadl_serializer@nlohmann@@@nlohmann@@@std@@PAX@2@@Z 10003f00 f i c_menu.obj
 0001:00002f10       ?_Allocate@_Default_allocate_traits@std@@SAPAXI@Z 10003f10 f i dll.obj
 0001:00002f30       ?_Calculate_growth@?$basic_string@DU?$char_traits@D@std@@V?$allocator@D@2@@std@@ABEII@Z 10003f30 f i dll.obj
 0001:00002f70       ?_Calculate_growth@?$basic_string@DU?$char_traits@D@std@@V?$allocator@D@2@@std@@CAIIII@Z 10003f70 f i dll.obj
 0001:00002fd0       ?_Check_offset@?$_String_val@U?$_Simple_types@D@std@@@std@@QBEXI@Z 10003fd0 f i dll.obj
 0001:00002ff0       ?_Clamp_suffix_size@?$_String_val@U?$_Simple_types@D@std@@@std@@QBEIII@Z 10003ff0 f i dll.obj
 0001:00003020       ?_Endwrite@?$basic_filebuf@DU?$char_traits@D@std@@@std@@IAE_NXZ 10004020 f i dll.obj
 0001:00003150       ?_Max_bucket_size@?$_Hash@V?$_Umap_traits@PAVc_hotkey_select@@V?$function@$$A6AXI@Z@std@@V?$_Uhash_compare@PAVc_hotkey_select@@U?$hash@PAVc_hotkey_select@@@std@@U?$equal_to@PAVc_hotkey_select@@@3@@3@V?$allocator@U?$pair@QAVc_hotkey_select@@V?$function@$$A6AXI@Z@std@@@std@@@3@$0A@@std@@@std@@IAEAAMXZ 10004150 f i c_hotkeys.obj
 0001:00003150       ?_Getal@?$basic_string@DU?$char_traits@D@std@@V?$allocator@D@2@@std@@AAEAAV?$allocator@D@2@XZ 10004150 f i dll.obj
 0001:00003150       ?_Getal@?$vector@PAUanimation@c_animation_system@@V?$allocator@PAUanimation@c_animation_system@@@std@@@std@@AAEAAV?$allocator@PAUanimation@c_animation_system@@@2@XZ 10004150 f i c_aimhelper.obj
 0001:00003150       ?_Getal@?$vector@Uimpact_info@@V?$allocator@Uimpact_info@@@std@@@std@@ABEABV?$allocator@Uimpact_info@@@2@XZ 10004150 f i c_hitmarker.obj
 0001:00003150       ?_Getal@?$vector@U?$pair@PAVc_cs_player@@M@std@@V?$allocator@U?$pair@PAVc_cs_player@@M@std@@@2@@std@@ABEABV?$allocator@U?$pair@PAVc_cs_player@@M@std@@@2@XZ 10004150 f i c_chams.obj
 0001:00003150       ?_Getal@?$vector@Vc_vector2d@@V?$allocator@Vc_vector2d@@@std@@@std@@ABEABV?$allocator@Vc_vector2d@@@2@XZ 10004150 f i c_renderer.obj
 0001:00003150       ?_Getal@?$list@U?$pair@$$CBIV?$unordered_map@IUnetvar@c_netvar@@U?$hash@I@std@@U?$equal_to@I@4@V?$allocator@U?$pair@$$CBIUnetvar@c_netvar@@@std@@@4@@std@@@std@@V?$allocator@U?$pair@$$CBIV?$unordered_map@IUnetvar@c_netvar@@U?$hash@I@std@@U?$equal_to@I@4@V?$allocator@U?$pair@$$CBIUnetvar@c_netvar@@@std@@@4@@std@@@std@@@2@@std@@AAEAAV?$allocator@U?$_List_node@U?$pair@$$CBIV?$unordered_map@IUnetvar@c_netvar@@U?$hash@I@std@@U?$equal_to@I@4@V?$allocator@U?$pair@$$CBIUnetvar@c_netvar@@@std@@@4@@std@@@std@@PAX@std@@@2@XZ 10004150 f i DLLMain.obj
 0001:00003150       ?_Getal@?$basic_string@DU?$char_traits@D@std@@V?$allocator@D@2@@std@@ABEABV?$allocator@D@2@XZ 10004150 f i dll.obj
 0001:00003150       ?_Getal@?$vector@Uimpact_info@@V?$allocator@Uimpact_info@@@std@@@std@@AAEAAV?$allocator@Uimpact_info@@@2@XZ 10004150 f i c_hitmarker.obj
 0001:00003150       ?_Max_bucket_size@?$_Hash@V?$_Umap_traits@IVc_font@@V?$_Uhash_compare@IU?$hash@I@std@@U?$equal_to@I@2@@std@@V?$allocator@U?$pair@$$CBIVc_font@@@std@@@3@$0A@@std@@@std@@IAEAAMXZ 10004150 f i c_renderer.obj
 0001:00003150       ?_Getal@?$list@U?$pair@$$CBIPAVCD3DFont@@@std@@V?$allocator@U?$pair@$$CBIPAVCD3DFont@@@std@@@2@@std@@AAEAAV?$allocator@U?$_List_node@U?$pair@$$CBIPAVCD3DFont@@@std@@PAX@std@@@2@XZ 10004150 f i c_damageesp.obj
 0001:00003150       ?_Getal@?$vector@V?$function@$$A6AXI@Z@std@@V?$allocator@V?$function@$$A6AXI@Z@std@@@2@@std@@ABEABV?$allocator@V?$function@$$A6AXI@Z@std@@@2@XZ 10004150 f i c_hotkeys.obj
 0001:00003150       ?_Getal@?$vector@V?$vector@MV?$allocator@M@std@@@std@@V?$allocator@V?$vector@MV?$allocator@M@std@@@std@@@2@@std@@ABEABV?$allocator@V?$vector@MV?$allocator@M@std@@@std@@@2@XZ 10004150 f i c_font.obj
 0001:00003150       ?_Getal@?$list@U?$pair@$$CBIV?$unordered_map@IUnetvar@c_netvar@@U?$hash@I@std@@U?$equal_to@I@4@V?$allocator@U?$pair@$$CBIUnetvar@c_netvar@@@std@@@4@@std@@@std@@V?$allocator@U?$pair@$$CBIV?$unordered_map@IUnetvar@c_netvar@@U?$hash@I@std@@U?$equal_to@I@4@V?$allocator@U?$pair@$$CBIUnetvar@c_netvar@@@std@@@4@@std@@@std@@@2@@std@@ABEABV?$allocator@U?$_List_node@U?$pair@$$CBIV?$unordered_map@IUnetvar@c_netvar@@U?$hash@I@std@@U?$equal_to@I@4@V?$allocator@U?$pair@$$CBIUnetvar@c_netvar@@@std@@@4@@std@@@std@@PAX@std@@@2@XZ 10004150 f i aimbot_recode.obj
 0001:00003150       ?_Getal@?$list@U?$pair@$$CBIUanimation_info@c_animation_system@@@std@@V?$allocator@U?$pair@$$CBIUanimation_info@c_animation_system@@@std@@@2@@std@@AAEAAV?$allocator@U?$_List_node@U?$pair@$$CBIUanimation_info@c_animation_system@@@std@@PAX@std@@@2@XZ 10004150 f i aimbot_recode.obj
 0001:00003150       ?_Getal@?$vector@Vc_vector3d@@V?$allocator@Vc_vector3d@@@std@@@std@@AAEAAV?$allocator@Vc_vector3d@@@2@XZ 10004150 f i aimbot_recode.obj
 0001:00003150       ?_Getal@?$vector@Unade_info@c_esp@@V?$allocator@Unade_info@c_esp@@@std@@@std@@AAEAAV?$allocator@Unade_info@c_esp@@@2@XZ 10004150 f i aimbot_recode.obj
 0001:00003150       ?_Getal@?$vector@PAUanimation@c_animation_system@@V?$allocator@PAUanimation@c_animation_system@@@std@@@std@@ABEABV?$allocator@PAUanimation@c_animation_system@@@2@XZ 10004150 f i c_aimhelper.obj
 0001:00003150       ?_Getal@?$vector@Udamage_infos@@V?$allocator@Udamage_infos@@@std@@@std@@ABEABV?$allocator@Udamage_infos@@@2@XZ 10004150 f i c_esp.obj
 0001:00003150       ?_Max_bucket_size@?$_Hash@V?$_Umap_traits@IVc_font@@V?$_Uhash_compare@IU?$hash@I@std@@U?$equal_to@I@2@@std@@V?$allocator@U?$pair@$$CBIVc_font@@@std@@@3@$0A@@std@@@std@@IBEABMXZ 10004150 f i c_renderer.obj
 0001:00003150       ?_Getal@?$_Tree@V?$_Tmap_traits@HHU?$less@H@std@@V?$allocator@U?$pair@$$CBHH@std@@@2@$0A@@std@@@std@@IBEABV?$allocator@U?$_Tree_node@U?$pair@$$CBHH@std@@PAX@std@@@2@XZ 10004150 f i c_prediction_.obj
 0001:00003150       ?_Getal@?$vector@Uhitmarker_info@@V?$allocator@Uhitmarker_info@@@std@@@std@@AAEAAV?$allocator@Uhitmarker_info@@@2@XZ 10004150 f i c_hitmarker.obj
 0001:00003150       ?_Getal@?$deque@UCIncomingSequence@@V?$allocator@UCIncomingSequence@@@std@@@std@@ABEABV?$allocator@UCIncomingSequence@@@2@XZ 10004150 f i c_net_channel_.obj
 0001:00003150       ?_Getal@?$vector@U?$pair@V?$shared_ptr@Vc_drawable@@@std@@U?$pair@Vc_vector2d@@V1@@2@@std@@V?$allocator@U?$pair@V?$shared_ptr@Vc_drawable@@@std@@U?$pair@Vc_vector2d@@V1@@2@@std@@@2@@std@@ABEABV?$allocator@U?$pair@V?$shared_ptr@Vc_drawable@@@std@@U?$pair@Vc_vector2d@@V1@@2@@std@@@2@XZ 10004150 f i c_checkbox.obj
 0001:00003150       ?_Getal@?$vector@V?$function@$$A6AXI@Z@std@@V?$allocator@V?$function@$$A6AXI@Z@std@@@2@@std@@AAEAAV?$allocator@V?$function@$$A6AXI@Z@std@@@2@XZ 10004150 f i c_fake_ping.obj
 0001:00003150       ?_Getal@?$_Tree@V?$_Tmap_traits@V?$basic_string@DU?$char_traits@D@std@@V?$allocator@D@2@@std@@V?$basic_json@Vmap@std@@Vvector@2@V?$basic_string@DU?$char_traits@D@std@@V?$allocator@D@2@@2@_N_J_KNVallocator@2@Uadl_serializer@nlohmann@@@nlohmann@@U?$less@X@2@V?$allocator@U?$pair@$$CBV?$basic_string@DU?$char_traits@D@std@@V?$allocator@D@2@@std@@V?$basic_json@Vmap@std@@Vvector@2@V?$basic_string@DU?$char_traits@D@std@@V?$allocator@D@2@@2@_N_J_KNVallocator@2@Uadl_serializer@nlohmann@@@nlohmann@@@std@@@2@$0A@@std@@@std@@IAEAAV?$allocator@U?$_Tree_node@U?$pair@$$CBV?$basic_string@DU?$char_traits@D@std@@V?$allocator@D@2@@std@@V?$basic_json@Vmap@std@@Vvector@2@V?$basic_string@DU?$char_traits@D@std@@V?$allocator@D@2@@2@_N_J_KNVallocator@2@Uadl_serializer@nlohmann@@@nlohmann@@@std@@PAX@std@@@2@XZ 10004150 f i c_menu.obj
 0001:00003150       ?_Getal@?$vector@U?$pair@PAVc_cs_player@@M@std@@V?$allocator@U?$pair@PAVc_cs_player@@M@std@@@2@@std@@AAEAAV?$allocator@U?$pair@PAVc_cs_player@@M@std@@@2@XZ 10004150 f i c_chams.obj
 0001:00003150       ?_Getal@?$list@U?$pair@$$CBIUnetvar@c_netvar@@@std@@V?$allocator@U?$pair@$$CBIUnetvar@c_netvar@@@std@@@2@@std@@ABEABV?$allocator@U?$_List_node@U?$pair@$$CBIUnetvar@c_netvar@@@std@@PAX@std@@@2@XZ 10004150 f i aimbot_recode.obj
 0001:00003150       ?_Max_bucket_size@?$_Hash@V?$_Umap_traits@IV?$unordered_map@IUnetvar@c_netvar@@U?$hash@I@std@@U?$equal_to@I@4@V?$allocator@U?$pair@$$CBIUnetvar@c_netvar@@@std@@@4@@std@@V?$_Uhash_compare@IU?$hash@I@std@@U?$equal_to@I@2@@2@V?$allocator@U?$pair@$$CBIV?$unordered_map@IUnetvar@c_netvar@@U?$hash@I@std@@U?$equal_to@I@4@V?$allocator@U?$pair@$$CBIUnetvar@c_netvar@@@std@@@4@@std@@@std@@@2@$0A@@std@@@std@@IAEAAMXZ 10004150 f i c_netvar.obj
 0001:00003150       ?_Getal@?$vector@V?$basic_string@DU?$char_traits@D@std@@V?$allocator@D@2@@std@@V?$allocator@V?$basic_string@DU?$char_traits@D@std@@V?$allocator@D@2@@std@@@2@@std@@ABEABV?$allocator@V?$basic_string@DU?$char_traits@D@std@@V?$allocator@D@2@@std@@@2@XZ 10004150 f i c_miscellaneous.obj
 0001:00003150       ?_Max_bucket_size@?$_Hash@V?$_Umap_traits@IUanimation_info@c_animation_system@@V?$_Uhash_compare@IU?$hash@I@std@@U?$equal_to@I@2@@std@@V?$allocator@U?$pair@$$CBIUanimation_info@c_animation_system@@@std@@@4@$0A@@std@@@std@@IAEAAMXZ 10004150 f i aimbot_recode.obj
 0001:00003150       ?_Getal@?$list@U?$pair@$$CBIVc_font@@@std@@V?$allocator@U?$pair@$$CBIVc_font@@@std@@@2@@std@@ABEABV?$allocator@U?$_List_node@U?$pair@$$CBIVc_font@@@std@@PAX@std@@@2@XZ 10004150 f i c_renderer.obj
 0001:00003150       ?_Max_bucket_size@?$_Hash@V?$_Umap_traits@IUnetvar@c_netvar@@V?$_Uhash_compare@IU?$hash@I@std@@U?$equal_to@I@2@@std@@V?$allocator@U?$pair@$$CBIUnetvar@c_netvar@@@std@@@4@$0A@@std@@@std@@IBEABMXZ 10004150 f i aimbot_recode.obj
 0001:00003150       ?_Getal@?$vector@MV?$allocator@M@std@@@std@@ABEABV?$allocator@M@2@XZ 10004150 f i c_font.obj
 0001:00003150       ?_Max_bucket_size@?$_Hash@V?$_Umap_traits@IUanimation_info@c_animation_system@@V?$_Uhash_compare@IU?$hash@I@std@@U?$equal_to@I@2@@std@@V?$allocator@U?$pair@$$CBIUanimation_info@c_animation_system@@@std@@@4@$0A@@std@@@std@@IBEABMXZ 10004150 f i c_animation_system.obj
 0001:00003150       ?_Getal@?$vector@Uaim_info@c_aimhelper@@V?$allocator@Uaim_info@c_aimhelper@@@std@@@std@@ABEABV?$allocator@Uaim_info@c_aimhelper@@@2@XZ 10004150 f i c_aimhelper.obj
 0001:00003150       ?_Getal@?$vector@VImConsoleTextItem@@V?$allocator@VImConsoleTextItem@@@std@@@std@@ABEABV?$allocator@VImConsoleTextItem@@@2@XZ 10004150 f i ImConsole.obj
 0001:00003150       ?_Getal@?$list@U?$pair@QAVc_hotkey_select@@V?$function@$$A6AXI@Z@std@@@std@@V?$allocator@U?$pair@QAVc_hotkey_select@@V?$function@$$A6AXI@Z@std@@@std@@@2@@std@@AAEAAV?$allocator@U?$_List_node@U?$pair@QAVc_hotkey_select@@V?$function@$$A6AXI@Z@std@@@std@@PAX@std@@@2@XZ 10004150 f i c_fake_ping.obj
 0001:00003150       ?_Getal@?$vector@Udamage_infos@@V?$allocator@Udamage_infos@@@std@@@std@@AAEAAV?$allocator@Udamage_infos@@@2@XZ 10004150 f i c_esp.obj
 0001:00003150       ?_Getal@?$vector@V?$vector@MV?$allocator@M@std@@@std@@V?$allocator@V?$vector@MV?$allocator@M@std@@@std@@@2@@std@@AAEAAV?$allocator@V?$vector@MV?$allocator@M@std@@@std@@@2@XZ 10004150 f i c_font.obj
 0001:00003150       ?_Getal@?$deque@Uanimation@c_animation_system@@V?$allocator@Uanimation@c_animation_system@@@std@@@std@@AAEAAV?$allocator@Uanimation@c_animation_system@@@2@XZ 10004150 f i aimbot_recode.obj
 0001:00003150       ?_Getal@?$vector@Uaim_info@c_aimhelper@@V?$allocator@Uaim_info@c_aimhelper@@@std@@@std@@AAEAAV?$allocator@Uaim_info@c_aimhelper@@@2@XZ 10004150 f i c_aimhelper.obj
 0001:00003150       ?_Getal@?$vector@HV?$allocator@H@std@@@std@@AAEAAV?$allocator@H@2@XZ 10004150 f i aimbot_recode.obj
 0001:00003150       ?_Getal@?$vector@Uplayer_info@c_esp@@V?$allocator@Uplayer_info@c_esp@@@std@@@std@@ABEABV?$allocator@Uplayer_info@c_esp@@@2@XZ 10004150 f i c_esp.obj
 0001:00003150       ?_Getal@?$deque@Ushot@resolver@@V?$allocator@Ushot@resolver@@@std@@@std@@AAEAAV?$allocator@Ushot@resolver@@@2@XZ 10004150 f i aimbot_recode.obj
 0001:00003150       ?_Max_bucket_size@?$_Hash@V?$_Umap_traits@IUnetvar@c_netvar@@V?$_Uhash_compare@IU?$hash@I@std@@U?$equal_to@I@2@@std@@V?$allocator@U?$pair@$$CBIUnetvar@c_netvar@@@std@@@4@$0A@@std@@@std@@IAEAAMXZ 10004150 f i aimbot_recode.obj
 0001:00003150       ?_Getal@?$vector@Vc_vector3d@@V?$allocator@Vc_vector3d@@@std@@@std@@ABEABV?$allocator@Vc_vector3d@@@2@XZ 10004150 f i aimbot_recode.obj
 0001:00003150       ?_Getcomp@?$_Tree@V?$_Tmap_traits@V?$basic_string@DU?$char_traits@D@std@@V?$allocator@D@2@@std@@V?$basic_json@Vmap@std@@Vvector@2@V?$basic_string@DU?$char_traits@D@std@@V?$allocator@D@2@@2@_N_J_KNVallocator@2@Uadl_serializer@nlohmann@@@nlohmann@@U?$less@X@2@V?$allocator@U?$pair@$$CBV?$basic_string@DU?$char_traits@D@std@@V?$allocator@D@2@@std@@V?$basic_json@Vmap@std@@Vvector@2@V?$basic_string@DU?$char_traits@D@std@@V?$allocator@D@2@@2@_N_J_KNVallocator@2@Uadl_serializer@nlohmann@@@nlohmann@@@std@@@2@$0A@@std@@@std@@IBEABU?$less@X@2@XZ 10004150 f i c_menu.obj
 0001:00003150       ?_Getal@?$vector@Unade_info@c_esp@@V?$allocator@Unade_info@c_esp@@@std@@@std@@ABEABV?$allocator@Unade_info@c_esp@@@2@XZ 10004150 f i c_esp.obj
 0001:00003150       ?_Getal@?$vector@HV?$allocator@H@std@@@std@@ABEABV?$allocator@H@2@XZ 10004150 f i aimbot_recode.obj
 0001:00003150       ?_Max_bucket_size@?$_Hash@V?$_Umap_traits@IV?$unordered_map@IUnetvar@c_netvar@@U?$hash@I@std@@U?$equal_to@I@4@V?$allocator@U?$pair@$$CBIUnetvar@c_netvar@@@std@@@4@@std@@V?$_Uhash_compare@IU?$hash@I@std@@U?$equal_to@I@2@@2@V?$allocator@U?$pair@$$CBIV?$unordered_map@IUnetvar@c_netvar@@U?$hash@I@std@@U?$equal_to@I@4@V?$allocator@U?$pair@$$CBIUnetvar@c_netvar@@@std@@@4@@std@@@std@@@2@$0A@@std@@@std@@IBEABMXZ 10004150 f i aimbot_recode.obj
 0001:00003150       ?_Getal@?$vector@V?$basic_json@Vmap@std@@Vvector@2@V?$basic_string@DU?$char_traits@D@std@@V?$allocator@D@2@@2@_N_J_KNVallocator@2@Uadl_serializer@nlohmann@@@nlohmann@@V?$allocator@V?$basic_json@Vmap@std@@Vvector@2@V?$basic_string@DU?$char_traits@D@std@@V?$allocator@D@2@@2@_N_J_KNVallocator@2@Uadl_serializer@nlohmann@@@nlohmann@@@std@@@std@@ABEABV?$allocator@V?$basic_json@Vmap@std@@Vvector@2@V?$basic_string@DU?$char_traits@D@std@@V?$allocator@D@2@@2@_N_J_KNVallocator@2@Uadl_serializer@nlohmann@@@nlohmann@@@2@XZ 10004150 f i c_menu.obj
 0001:00003150       ?_Getal@?$vector@V?$tuple@MMM@std@@V?$allocator@V?$tuple@MMM@std@@@2@@std@@ABEABV?$allocator@V?$tuple@MMM@std@@@2@XZ 10004150 f i c_aimhelper.obj
 0001:00003150       ?_Getal@?$vector@U?$pair@V?$shared_ptr@Vc_drawable@@@std@@U?$pair@Vc_vector2d@@V1@@2@@std@@V?$allocator@U?$pair@V?$shared_ptr@Vc_drawable@@@std@@U?$pair@Vc_vector2d@@V1@@2@@std@@@2@@std@@AAEAAV?$allocator@U?$pair@V?$shared_ptr@Vc_drawable@@@std@@U?$pair@Vc_vector2d@@V1@@2@@std@@@2@XZ 10004150 f i DLLMain.obj
 0001:00003150       ?_Getal@?$list@U?$pair@$$CBIUanimation_info@c_animation_system@@@std@@V?$allocator@U?$pair@$$CBIUanimation_info@c_animation_system@@@std@@@2@@std@@ABEABV?$allocator@U?$_List_node@U?$pair@$$CBIUanimation_info@c_animation_system@@@std@@PAX@std@@@2@XZ 10004150 f i c_animation_system.obj
 0001:00003150       ?_Getal@?$vector@Uplayer_info@c_esp@@V?$allocator@Uplayer_info@c_esp@@@std@@@std@@AAEAAV?$allocator@Uplayer_info@c_esp@@@2@XZ 10004150 f i aimbot_recode.obj
 0001:00003150       ?_Getal@?$deque@UCIncomingSequence@@V?$allocator@UCIncomingSequence@@@std@@@std@@AAEAAV?$allocator@UCIncomingSequence@@@2@XZ 10004150 f i c_fake_ping.obj
 0001:00003150       ?_Getal@?$vector@W4hitbox@c_cs_player@@V?$allocator@W4hitbox@c_cs_player@@@std@@@std@@ABEABV?$allocator@W4hitbox@c_cs_player@@@2@XZ 10004150 f i aimbot_recode.obj
 0001:00003150       ?_Getal@?$_Tree@V?$_Tmap_traits@V?$basic_string@DU?$char_traits@D@std@@V?$allocator@D@2@@std@@V?$basic_json@Vmap@std@@Vvector@2@V?$basic_string@DU?$char_traits@D@std@@V?$allocator@D@2@@2@_N_J_KNVallocator@2@Uadl_serializer@nlohmann@@@nlohmann@@U?$less@X@2@V?$allocator@U?$pair@$$CBV?$basic_string@DU?$char_traits@D@std@@V?$allocator@D@2@@std@@V?$basic_json@Vmap@std@@Vvector@2@V?$basic_string@DU?$char_traits@D@std@@V?$allocator@D@2@@2@_N_J_KNVallocator@2@Uadl_serializer@nlohmann@@@nlohmann@@@std@@@2@$0A@@std@@@std@@IBEABV?$allocator@U?$_Tree_node@U?$pair@$$CBV?$basic_string@DU?$char_traits@D@std@@V?$allocator@D@2@@std@@V?$basic_json@Vmap@std@@Vvector@2@V?$basic_string@DU?$char_traits@D@std@@V?$allocator@D@2@@2@_N_J_KNVallocator@2@Uadl_serializer@nlohmann@@@nlohmann@@@std@@PAX@std@@@2@XZ 10004150 f i c_menu.obj
 0001:00003150       ?_Getal@?$vector@MV?$allocator@M@std@@@std@@AAEAAV?$allocator@M@2@XZ 10004150 f i c_font.obj
 0001:00003150       ?_Getal@?$vector@PAVLua_Hook@@V?$allocator@PAVLua_Hook@@@std@@@std@@AAEAAV?$allocator@PAVLua_Hook@@@2@XZ 10004150 f i LuaAPI.obj
 0001:00003150       ?_Max_bucket_size@?$_Hash@V?$_Umap_traits@IPAVCD3DFont@@V?$_Uhash_compare@IU?$hash@I@std@@U?$equal_to@I@2@@std@@V?$allocator@U?$pair@$$CBIPAVCD3DFont@@@std@@@3@$0A@@std@@@std@@IAEAAMXZ 10004150 f i c_renderer.obj
 0001:00003150       ?_Getal@?$vector@V?$tuple@MMM@std@@V?$allocator@V?$tuple@MMM@std@@@2@@std@@AAEAAV?$allocator@V?$tuple@MMM@std@@@2@XZ 10004150 f i c_aimhelper.obj
 0001:00003150       ?_Getal@?$deque@Uanimation@c_animation_system@@V?$allocator@Uanimation@c_animation_system@@@std@@@std@@ABEABV?$allocator@Uanimation@c_animation_system@@@2@XZ 10004150 f i c_animation_system.obj
 0001:00003150       ?_Getal@?$vector@VImConsoleTextItem@@V?$allocator@VImConsoleTextItem@@@std@@@std@@AAEAAV?$allocator@VImConsoleTextItem@@@2@XZ 10004150 f i ImConsole.obj
 0001:00003150       ?_Getal@?$vector@Vc_vector2d@@V?$allocator@Vc_vector2d@@@std@@@std@@AAEAAV?$allocator@Vc_vector2d@@@2@XZ 10004150 f i c_damageesp.obj
 0001:00003150       ?_Getal@?$vector@W4hitbox@c_cs_player@@V?$allocator@W4hitbox@c_cs_player@@@std@@@std@@AAEAAV?$allocator@W4hitbox@c_cs_player@@@2@XZ 10004150 f i aimbot_recode.obj
 0001:00003150       ?_Getal@?$vector@DV?$allocator@D@std@@@std@@AAEAAV?$allocator@D@2@XZ 10004150 f i c_menu.obj
 0001:00003150       ?_Getal@?$vector@V?$basic_string@DU?$char_traits@D@std@@V?$allocator@D@2@@std@@V?$allocator@V?$basic_string@DU?$char_traits@D@std@@V?$allocator@D@2@@std@@@2@@std@@AAEAAV?$allocator@V?$basic_string@DU?$char_traits@D@std@@V?$allocator@D@2@@std@@@2@XZ 10004150 f i c_miscellaneous.obj
 0001:00003150       ?_Getal@?$vector@V?$basic_json@Vmap@std@@Vvector@2@V?$basic_string@DU?$char_traits@D@std@@V?$allocator@D@2@@2@_N_J_KNVallocator@2@Uadl_serializer@nlohmann@@@nlohmann@@V?$allocator@V?$basic_json@Vmap@std@@Vvector@2@V?$basic_string@DU?$char_traits@D@std@@V?$allocator@D@2@@2@_N_J_KNVallocator@2@Uadl_serializer@nlohmann@@@nlohmann@@@std@@@std@@AAEAAV?$allocator@V?$basic_json@Vmap@std@@Vvector@2@V?$basic_string@DU?$char_traits@D@std@@V?$allocator@D@2@@2@_N_J_KNVallocator@2@Uadl_serializer@nlohmann@@@nlohmann@@@2@XZ 10004150 f i c_menu.obj
 0001:00003150       ?_Getcomp@?$_Tree@V?$_Tmap_traits@HHU?$less@H@std@@V?$allocator@U?$pair@$$CBHH@std@@@2@$0A@@std@@@std@@IBEABU?$less@H@2@XZ 10004150 f i c_prediction_.obj
 0001:00003150       ?_Getal@?$deque@Ushot@resolver@@V?$allocator@Ushot@resolver@@@std@@@std@@ABEABV?$allocator@Ushot@resolver@@@2@XZ 10004150 f i c_resolver.obj
 0001:00003150       ?_Getal@?$_Tree@V?$_Tmap_traits@HHU?$less@H@std@@V?$allocator@U?$pair@$$CBHH@std@@@2@$0A@@std@@@std@@IAEAAV?$allocator@U?$_Tree_node@U?$pair@$$CBHH@std@@PAX@std@@@2@XZ 10004150 f i c_prediction_.obj
 0001:00003150       ?_Getal@?$vector@DV?$allocator@D@std@@@std@@ABEABV?$allocator@D@2@XZ 10004150 f i c_menu.obj
 0001:00003150       ?_Getal@?$vector@PAVLua_Hook@@V?$allocator@PAVLua_Hook@@@std@@@std@@ABEABV?$allocator@PAVLua_Hook@@@2@XZ 10004150 f i LuaAPI.obj
 0001:00003150       ?_Getal@?$list@U?$pair@$$CBIUnetvar@c_netvar@@@std@@V?$allocator@U?$pair@$$CBIUnetvar@c_netvar@@@std@@@2@@std@@AAEAAV?$allocator@U?$_List_node@U?$pair@$$CBIUnetvar@c_netvar@@@std@@PAX@std@@@2@XZ 10004150 f i DLLMain.obj
 0001:00003150       ?_Getal@?$list@U?$pair@$$CBIVc_font@@@std@@V?$allocator@U?$pair@$$CBIVc_font@@@std@@@2@@std@@AAEAAV?$allocator@U?$_List_node@U?$pair@$$CBIVc_font@@@std@@PAX@std@@@2@XZ 10004150 f i c_damageesp.obj
 0001:00003150       ?_Getal@?$vector@V?$function@$$A6AXXZ@std@@V?$allocator@V?$function@$$A6AXXZ@std@@@2@@std@@AAEAAV?$allocator@V?$function@$$A6AXXZ@std@@@2@XZ 10004150 f i c_damageesp.obj
 0001:00003150       ?_Getal@?$vector@Uhitmarker_info@@V?$allocator@Uhitmarker_info@@@std@@@std@@ABEABV?$allocator@Uhitmarker_info@@@2@XZ 10004150 f i c_hitmarker.obj
 0001:00003170       ?_Getfacet@locale@std@@QBEPBVfacet@12@I@Z 10004170 f i dll.obj
 0001:000031f0       ?_Init@?$basic_filebuf@DU?$char_traits@D@std@@@std@@IAEXPAU_iobuf@@W4_Initfl@12@@Z 100041f0 f i dll.obj
 0001:000032c0       ?_Initcvt@?$basic_filebuf@DU?$char_traits@D@std@@@std@@IAEXABV?$codecvt@DDU_Mbstatet@@@2@@Z 100042c0 f i dll.obj
 0001:00003310       ?_Large_string_engaged@?$_String_val@U?$_Simple_types@D@std@@@std@@QBE_NXZ 10004310 f i dll.obj
 0001:00003340       ?_Lock@?$basic_filebuf@DU?$char_traits@D@std@@@std@@UAEXXZ 10004340 f i dll.obj
 0001:00003370       ?_Myptr@?$_String_val@U?$_Simple_types@D@std@@@std@@QBEPBDXZ 10004370 f i aimbot_recode.obj
 0001:00003370       ?_Myptr@?$_String_val@U?$_Simple_types@D@std@@@std@@QAEPADXZ 10004370 f i dll.obj
 0001:000033b0       ?_Reset_back@?$basic_filebuf@DU?$char_traits@D@std@@@std@@AAEXXZ 100043b0 f i dll.obj
 0001:000033f0       ?_Set_back@?$basic_filebuf@DU?$char_traits@D@std@@@std@@AAEXXZ 100043f0 f i dll.obj
 0001:00003450       ?_Throw_bad_array_new_length@std@@YAXXZ 10004450 f i dll.obj
 0001:00003470       ?_Throw_bad_cast@std@@YAXXZ 10004470 f i dll.obj
 0001:00003490       ?_Tidy_deallocate@?$basic_string@DU?$char_traits@D@std@@V?$allocator@D@2@@std@@AAEXXZ 10004490 f i dll.obj
 0001:00003550       ?_Tidy_init@?$basic_string@DU?$char_traits@D@std@@V?$allocator@D@2@@std@@AAEXXZ 10004550 f i dll.obj
 0001:00003590       ?_Unlock@?$basic_filebuf@DU?$char_traits@D@std@@@std@@UAEXXZ 10004590 f i dll.obj
 0001:000035c0       ?_Xlen@?$basic_string@DU?$char_traits@D@std@@V?$allocator@D@2@@std@@CAXXZ 100045c0 f i dll.obj
 0001:000035d0       ?_Xran@?$_String_val@U?$_Simple_types@D@std@@@std@@SAXXZ 100045d0 f i dll.obj
 0001:000035e0       ?allocate@?$allocator@D@std@@QAEPADI@Z 100045e0 f i dll.obj
 0001:00003610       ?assign@?$_Narrow_char_traits@DH@std@@SAXAADABD@Z 10004610 f i dll.obj
 0001:00003620       ?close@?$basic_filebuf@DU?$char_traits@D@std@@@std@@QAEPAV12@XZ 10004620 f i dll.obj
 0001:00003690       ?copy@?$_Narrow_char_traits@DH@std@@SAPADQADQBDI@Z 10004690 f i dll.obj
 0001:000036b0       ?_Unchecked_begin@?$basic_string@DU?$char_traits@D@std@@V?$allocator@D@2@@std@@QAEPADXZ 100046b0 f i c_float_select.obj
 0001:000036b0       ?data@?$basic_string@DU?$char_traits@D@std@@V?$allocator@D@2@@std@@QAEPADXZ 100046b0 f i dll.obj
 0001:000036b0       ?c_str@?$basic_string@DU?$char_traits@D@std@@V?$allocator@D@2@@std@@QBEPBDXZ 100046b0 f i aimbot_recode.obj
 0001:000036b0       ?data@?$basic_string@DU?$char_traits@D@std@@V?$allocator@D@2@@std@@QBEPBDXZ 100046b0 f i c_menu.obj
 0001:000036f0       ?deallocate@?$allocator@D@std@@QAEXQADI@Z 100046f0 f i dll.obj
 0001:00003710       ?max@?$mersenne_twister_engine@I$0CA@$0CHA@$0BIN@$0BP@$0JJAILANP@$0L@$0PPPPPPPP@$06$0JNCMFGIA@$0P@$0OPMGAAAA@$0BC@$0GMAHIJGF@@std@@SAIXZ 10004710 f i c_resolver.obj
 0001:00003710       ?eof@?$_Narrow_char_traits@DH@std@@SAHXZ 10004710 f i dll.obj
 0001:00003710       ?max_size@?$_Default_allocator_traits@V?$allocator@D@std@@@std@@SAIABV?$allocator@D@2@@Z 10004710 f i dll.obj
 0001:00003720       ?eq_int_type@?$_Narrow_char_traits@DH@std@@SA_NABH0@Z 10004720 f i dll.obj
 0001:00003750       ?erase@?$basic_string@DU?$char_traits@D@std@@V?$allocator@D@2@@std@@QAEAAV12@II@Z 10004750 f i dll.obj
 0001:000037e0       ?front@?$basic_string@DU?$char_traits@D@std@@V?$allocator@D@2@@std@@QAEAADXZ 100047e0 f i dll.obj
 0001:00003830       ?imbue@?$basic_filebuf@DU?$char_traits@D@std@@@std@@MAEXABVlocale@2@@Z 10004830 f i dll.obj
 0001:00003860       ?max@?$numeric_limits@H@std@@SAHXZ 10004860 f i dll.obj
 0001:00003870       ?max_size@?$basic_string@DU?$char_traits@D@std@@V?$allocator@D@2@@std@@QBEIXZ 10004870 f i dll.obj
 0001:000038d0       ?move@?$_Narrow_char_traits@DH@std@@SAPADQADQBDI@Z 100048d0 f i dll.obj
 0001:000038f0       ?not_eof@?$_Narrow_char_traits@DH@std@@SAHABH@Z 100048f0 f i dll.obj
 0001:00003940       ?open@?$basic_filebuf@DU?$char_traits@D@std@@@std@@QAEPAV12@PBDHH@Z 10004940 f i dll.obj
 0001:00003a00       ?overflow@?$basic_filebuf@DU?$char_traits@D@std@@@std@@MAEHH@Z 10004a00 f i dll.obj
 0001:00003bf0       ?pbackfail@?$basic_filebuf@DU?$char_traits@D@std@@@std@@MAEHH@Z 10004bf0 f i dll.obj
 0001:00003d50       ?push_back@?$basic_string@DU?$char_traits@D@std@@V?$allocator@D@2@@std@@QAEXD@Z 10004d50 f i dll.obj
 0001:00003dd0       ?release@?$unique_ptr@$$BY0A@IU?$default_delete@$$BY0A@I@std@@@std@@QAEPAIXZ 10004dd0 f i cte_effects.obj
 0001:00003dd0       ?release@?$unique_ptr@V?$c_hook@I@@U?$default_delete@V?$c_hook@I@@@std@@@std@@QAEPAV?$c_hook@I@@XZ 10004dd0 f i c_cs_player_.obj
 0001:00003dd0       ?release@?$unique_ptr@V_Facet_base@std@@U?$default_delete@V_Facet_base@std@@@2@@std@@QAEPAV_Facet_base@2@XZ 10004dd0 f i dll.obj
 0001:00003e20       ?seekoff@?$basic_filebuf@DU?$char_traits@D@std@@@std@@MAE?AV?$fpos@U_Mbstatet@@@2@_JHH@Z 10004e20 f i dll.obj
 0001:00003f00       ?seekpos@?$basic_filebuf@DU?$char_traits@D@std@@@std@@MAE?AV?$fpos@U_Mbstatet@@@2@V32@H@Z 10004f00 f i dll.obj
 0001:00003fa0       ?setbuf@?$basic_filebuf@DU?$char_traits@D@std@@@std@@MAEPAV?$basic_streambuf@DU?$char_traits@D@std@@@2@PAD_J@Z 10004fa0 f i dll.obj
 0001:00004020       ??C?$json_ref@V?$basic_json@Vmap@std@@Vvector@2@V?$basic_string@DU?$char_traits@D@std@@V?$allocator@D@2@@2@_N_J_KNVallocator@2@Uadl_serializer@nlohmann@@@nlohmann@@@detail@nlohmann@@QBEPBV?$basic_json@Vmap@std@@Vvector@2@V?$basic_string@DU?$char_traits@D@std@@V?$allocator@D@2@@2@_N_J_KNVallocator@2@Uadl_serializer@nlohmann@@@2@XZ 10005020 f i c_menu.obj
 0001:00004020       ?size@?$basic_string@DU?$char_traits@D@std@@V?$allocator@D@2@@std@@QBEIXZ 10005020 f i dll.obj
 0001:00004020       ??D?$json_ref@V?$basic_json@Vmap@std@@Vvector@2@V?$basic_string@DU?$char_traits@D@std@@V?$allocator@D@2@@2@_N_J_KNVallocator@2@Uadl_serializer@nlohmann@@@nlohmann@@@detail@nlohmann@@QBEABV?$basic_json@Vmap@std@@Vvector@2@V?$basic_string@DU?$char_traits@D@std@@V?$allocator@D@2@@2@_N_J_KNVallocator@2@Uadl_serializer@nlohmann@@@2@XZ 10005020 f i c_menu.obj
 0001:00004040       ?state@?$fpos@U_Mbstatet@@@std@@QBE?AU_Mbstatet@@XZ 10005040 f i dll.obj
 0001:00004070       ?sync@?$basic_filebuf@DU?$char_traits@D@std@@@std@@MAEHXZ 10005070 f i dll.obj
 0001:000040e0       ?to_char_type@?$_Narrow_char_traits@DH@std@@SADABH@Z 100050e0 f i dll.obj
 0001:000040f0       ?to_int_type@?$_Narrow_char_traits@DH@std@@SAHABD@Z 100050f0 f i dll.obj
 0001:00004100       ?uflow@?$basic_filebuf@DU?$char_traits@D@std@@@std@@MAEHXZ 10005100 f i dll.obj
 0001:00004390       ?underflow@?$basic_filebuf@DU?$char_traits@D@std@@@std@@MAEHXZ 10005390 f i dll.obj
 0001:00004430       ?what@exception@std@@UBEPBDXZ 10005430 f i dll.obj
 0001:00004460       ?xsgetn@?$basic_filebuf@DU?$char_traits@D@std@@@std@@MAE_JPAD_J@Z 10005460 f i dll.obj
 0001:000045d0       ?xsputn@?$basic_filebuf@DU?$char_traits@D@std@@@std@@MAE_JPBD_J@Z 100055d0 f i dll.obj
 0001:000046f0       ??0_Clear_guard@?$_Hash@V?$_Umap_traits@IVc_font@@V?$_Uhash_compare@IU?$hash@I@std@@U?$equal_to@I@2@@std@@V?$allocator@U?$pair@$$CBIVc_font@@@std@@@3@$0A@@std@@@std@@QAE@QAV12@@Z 100056f0 f   c_renderer.obj
 0001:000046f0       ??0<lambda_1>@?1???$create@V?$vector@V?$basic_json@Vmap@std@@Vvector@2@V?$basic_string@DU?$char_traits@D@std@@V?$allocator@D@2@@2@_N_J_KNVallocator@2@Uadl_serializer@nlohmann@@@nlohmann@@V?$allocator@V?$basic_json@Vmap@std@@Vvector@2@V?$basic_string@DU?$char_traits@D@std@@V?$allocator@D@2@@2@_N_J_KNVallocator@2@Uadl_serializer@nlohmann@@@nlohmann@@@std@@@std@@PBV?$json_ref@V?$basic_json@Vmap@std@@Vvector@2@V?$basic_string@DU?$char_traits@D@std@@V?$allocator@D@2@@2@_N_J_KNVallocator@2@Uadl_serializer@nlohmann@@@nlohmann@@@detail@nlohmann@@PBV345@@?$basic_json@Vmap@std@@Vvector@2@V?$basic_string@DU?$char_traits@D@std@@V?$allocator@D@2@@2@_N_J_KNVallocator@2@Uadl_serializer@nlohmann@@@nlohmann@@CAPAV?$vector@V?$basic_json@Vmap@std@@Vvector@2@V?$basic_string@DU?$char_traits@D@std@@V?$allocator@D@2@@2@_N_J_KNVallocator@2@Uadl_serializer@nlohmann@@@nlohmann@@V?$allocator@V?$basic_json@Vmap@std@@Vvector@2@V?$basic_string@DU?$char_traits@D@std@@V?$allocator@D@2@@2@_N_J_KNVallocator@2@Uadl_serializer@nlohmann@@@nlohmann@@@std@@@std@@$$QAPBV?$json_ref@V?$basic_json@Vmap@std@@Vvector@2@V?$basic_string@DU?$char_traits@D@std@@V?$allocator@D@2@@2@_N_J_KNVallocator@2@Uadl_serializer@nlohmann@@@nlohmann@@@detail@2@0@Z@QAE@AAV?$allocator@V?$vector@V?$basic_json@Vmap@std@@Vvector@2@V?$basic_string@DU?$char_traits@D@std@@V?$allocator@D@2@@2@_N_J_KNVallocator@2@Uadl_serializer@nlohmann@@@nlohmann@@V?$allocator@V?$basic_json@Vmap@std@@Vvector@2@V?$basic_string@DU?$char_traits@D@std@@V?$allocator@D@2@@2@_N_J_KNVallocator@2@Uadl_serializer@nlohmann@@@nlohmann@@@std@@@std@@@4@@Z 100056f0 f   c_menu.obj
 0001:000046f0       ??0<lambda_1>@?1???$create@V?$basic_string@DU?$char_traits@D@std@@V?$allocator@D@2@@std@@ABV12@@?$basic_json@Vmap@std@@Vvector@2@V?$basic_string@DU?$char_traits@D@std@@V?$allocator@D@2@@2@_N_J_KNVallocator@2@Uadl_serializer@nlohmann@@@nlohmann@@CAPAV?$basic_string@DU?$char_traits@D@std@@V?$allocator@D@2@@std@@ABV34@@Z@QAE@AAV?$allocator@V?$basic_string@DU?$char_traits@D@std@@V?$allocator@D@2@@std@@@4@@Z 100056f0 f   c_menu.obj
 0001:000046f0       ??0<lambda_1>@?1???$create@V?$map@V?$basic_string@DU?$char_traits@D@std@@V?$allocator@D@2@@std@@V?$basic_json@Vmap@std@@Vvector@2@V?$basic_string@DU?$char_traits@D@std@@V?$allocator@D@2@@2@_N_J_KNVallocator@2@Uadl_serializer@nlohmann@@@nlohmann@@U?$less@X@2@V?$allocator@U?$pair@$$CBV?$basic_string@DU?$char_traits@D@std@@V?$allocator@D@2@@std@@V?$basic_json@Vmap@std@@Vvector@2@V?$basic_string@DU?$char_traits@D@std@@V?$allocator@D@2@@2@_N_J_KNVallocator@2@Uadl_serializer@nlohmann@@@nlohmann@@@std@@@2@@std@@ABV12@@?$basic_json@Vmap@std@@Vvector@2@V?$basic_string@DU?$char_traits@D@std@@V?$allocator@D@2@@2@_N_J_KNVallocator@2@Uadl_serializer@nlohmann@@@nlohmann@@CAPAV?$map@V?$basic_string@DU?$char_traits@D@std@@V?$allocator@D@2@@std@@V?$basic_json@Vmap@std@@Vvector@2@V?$basic_string@DU?$char_traits@D@std@@V?$allocator@D@2@@2@_N_J_KNVallocator@2@Uadl_serializer@nlohmann@@@nlohmann@@U?$less@X@2@V?$allocator@U?$pair@$$CBV?$basic_string@DU?$char_traits@D@std@@V?$allocator@D@2@@std@@V?$basic_json@Vmap@std@@Vvector@2@V?$basic_string@DU?$char_traits@D@std@@V?$allocator@D@2@@2@_N_J_KNVallocator@2@Uadl_serializer@nlohmann@@@nlohmann@@@std@@@2@@std@@ABV34@@Z@QAE@AAV?$allocator@V?$map@V?$basic_string@DU?$char_traits@D@std@@V?$allocator@D@2@@std@@V?$basic_json@Vmap@std@@Vvector@2@V?$basic_string@DU?$char_traits@D@std@@V?$allocator@D@2@@2@_N_J_KNVallocator@2@Uadl_serializer@nlohmann@@@nlohmann@@U?$less@X@2@V?$allocator@U?$pair@$$CBV?$basic_string@DU?$char_traits@D@std@@V?$allocator@D@2@@std@@V?$basic_json@Vmap@std@@Vvector@2@V?$basic_string@DU?$char_traits@D@std@@V?$allocator@D@2@@2@_N_J_KNVallocator@2@Uadl_serializer@nlohmann@@@nlohmann@@@std@@@2@@std@@@4@@Z 100056f0 f   c_menu.obj
 0001:000046f0       ??0<lambda_1>@?1???$create@V?$vector@V?$basic_json@Vmap@std@@Vvector@2@V?$basic_string@DU?$char_traits@D@std@@V?$allocator@D@2@@2@_N_J_KNVallocator@2@Uadl_serializer@nlohmann@@@nlohmann@@V?$allocator@V?$basic_json@Vmap@std@@Vvector@2@V?$basic_string@DU?$char_traits@D@std@@V?$allocator@D@2@@2@_N_J_KNVallocator@2@Uadl_serializer@nlohmann@@@nlohmann@@@std@@@std@@ABV12@@?$basic_json@Vmap@std@@Vvector@2@V?$basic_string@DU?$char_traits@D@std@@V?$allocator@D@2@@2@_N_J_KNVallocator@2@Uadl_serializer@nlohmann@@@nlohmann@@CAPAV?$vector@V?$basic_json@Vmap@std@@Vvector@2@V?$basic_string@DU?$char_traits@D@std@@V?$allocator@D@2@@2@_N_J_KNVallocator@2@Uadl_serializer@nlohmann@@@nlohmann@@V?$allocator@V?$basic_json@Vmap@std@@Vvector@2@V?$basic_string@DU?$char_traits@D@std@@V?$allocator@D@2@@2@_N_J_KNVallocator@2@Uadl_serializer@nlohmann@@@nlohmann@@@std@@@std@@ABV34@@Z@QAE@AAV?$allocator@V?$vector@V?$basic_json@Vmap@std@@Vvector@2@V?$basic_string@DU?$char_traits@D@std@@V?$allocator@D@2@@2@_N_J_KNVallocator@2@Uadl_serializer@nlohmann@@@nlohmann@@V?$allocator@V?$basic_json@Vmap@std@@Vvector@2@V?$basic_string@DU?$char_traits@D@std@@V?$allocator@D@2@@2@_N_J_KNVallocator@2@Uadl_serializer@nlohmann@@@nlohmann@@@std@@@std@@@4@@Z 100056f0 f   c_menu.obj
 0001:000046f0       ??0_Clear_guard@?$_Hash@V?$_Umap_traits@IV?$unordered_map@IUnetvar@c_netvar@@U?$hash@I@std@@U?$equal_to@I@4@V?$allocator@U?$pair@$$CBIUnetvar@c_netvar@@@std@@@4@@std@@V?$_Uhash_compare@IU?$hash@I@std@@U?$equal_to@I@2@@2@V?$allocator@U?$pair@$$CBIV?$unordered_map@IUnetvar@c_netvar@@U?$hash@I@std@@U?$equal_to@I@4@V?$allocator@U?$pair@$$CBIUnetvar@c_netvar@@@std@@@4@@std@@@std@@@2@$0A@@std@@@std@@QAE@QAV12@@Z 100056f0 f   aimbot_recode.obj
 0001:000046f0       ??0<lambda_1>@?1???$create@V?$basic_string@DU?$char_traits@D@std@@V?$allocator@D@2@@std@@AAY00$$CBD@?$basic_json@Vmap@std@@Vvector@2@V?$basic_string@DU?$char_traits@D@std@@V?$allocator@D@2@@2@_N_J_KNVallocator@2@Uadl_serializer@nlohmann@@@nlohmann@@CAPAV?$basic_string@DU?$char_traits@D@std@@V?$allocator@D@2@@std@@AAY00$$CBD@Z@QAE@AAV?$allocator@V?$basic_string@DU?$char_traits@D@std@@V?$allocator@D@2@@std@@@4@@Z 100056f0 f   c_menu.obj
 0001:000046f0       ??0<lambda_2>@?O@???0?$basic_json@Vmap@std@@Vvector@2@V?$basic_string@DU?$char_traits@D@std@@V?$allocator@D@2@@2@_N_J_KNVallocator@2@Uadl_serializer@nlohmann@@@nlohmann@@QAE@V?$initializer_list@V?$json_ref@V?$basic_json@Vmap@std@@Vvector@2@V?$basic_string@DU?$char_traits@D@std@@V?$allocator@D@2@@2@_N_J_KNVallocator@2@Uadl_serializer@nlohmann@@@nlohmann@@@detail@nlohmann@@@std@@_NW4value_t@detail@2@@Z@QAE@PAV12@@Z 100056f0 f   c_menu.obj
 0001:000046f0       ??0_Clear_guard@?$_Hash@V?$_Umap_traits@IUanimation_info@c_animation_system@@V?$_Uhash_compare@IU?$hash@I@std@@U?$equal_to@I@2@@std@@V?$allocator@U?$pair@$$CBIUanimation_info@c_animation_system@@@std@@@4@$0A@@std@@@std@@QAE@QAV12@@Z 100056f0 f   c_animation_system.obj
 0001:000046f0       ??0<lambda_1>@?1???$create@V?$vector@V?$basic_json@Vmap@std@@Vvector@2@V?$basic_string@DU?$char_traits@D@std@@V?$allocator@D@2@@2@_N_J_KNVallocator@2@Uadl_serializer@nlohmann@@@nlohmann@@V?$allocator@V?$basic_json@Vmap@std@@Vvector@2@V?$basic_string@DU?$char_traits@D@std@@V?$allocator@D@2@@2@_N_J_KNVallocator@2@Uadl_serializer@nlohmann@@@nlohmann@@@std@@@std@@$$V@?$basic_json@Vmap@std@@Vvector@2@V?$basic_string@DU?$char_traits@D@std@@V?$allocator@D@2@@2@_N_J_KNVallocator@2@Uadl_serializer@nlohmann@@@nlohmann@@CAPAV?$vector@V?$basic_json@Vmap@std@@Vvector@2@V?$basic_string@DU?$char_traits@D@std@@V?$allocator@D@2@@2@_N_J_KNVallocator@2@Uadl_serializer@nlohmann@@@nlohmann@@V?$allocator@V?$basic_json@Vmap@std@@Vvector@2@V?$basic_string@DU?$char_traits@D@std@@V?$allocator@D@2@@2@_N_J_KNVallocator@2@Uadl_serializer@nlohmann@@@nlohmann@@@std@@@std@@XZ@QAE@AAV?$allocator@V?$vector@V?$basic_json@Vmap@std@@Vvector@2@V?$basic_string@DU?$char_traits@D@std@@V?$allocator@D@2@@2@_N_J_KNVallocator@2@Uadl_serializer@nlohmann@@@nlohmann@@V?$allocator@V?$basic_json@Vmap@std@@Vvector@2@V?$basic_string@DU?$char_traits@D@std@@V?$allocator@D@2@@2@_N_J_KNVallocator@2@Uadl_serializer@nlohmann@@@nlohmann@@@std@@@std@@@4@@Z 100056f0 f   c_menu.obj
 0001:000046f0       ??0<lambda_1>@?1???$create@V?$map@V?$basic_string@DU?$char_traits@D@std@@V?$allocator@D@2@@std@@V?$basic_json@Vmap@std@@Vvector@2@V?$basic_string@DU?$char_traits@D@std@@V?$allocator@D@2@@2@_N_J_KNVallocator@2@Uadl_serializer@nlohmann@@@nlohmann@@U?$less@X@2@V?$allocator@U?$pair@$$CBV?$basic_string@DU?$char_traits@D@std@@V?$allocator@D@2@@std@@V?$basic_json@Vmap@std@@Vvector@2@V?$basic_string@DU?$char_traits@D@std@@V?$allocator@D@2@@2@_N_J_KNVallocator@2@Uadl_serializer@nlohmann@@@nlohmann@@@std@@@2@@std@@$$V@?$basic_json@Vmap@std@@Vvector@2@V?$basic_string@DU?$char_traits@D@std@@V?$allocator@D@2@@2@_N_J_KNVallocator@2@Uadl_serializer@nlohmann@@@nlohmann@@CAPAV?$map@V?$basic_string@DU?$char_traits@D@std@@V?$allocator@D@2@@std@@V?$basic_json@Vmap@std@@Vvector@2@V?$basic_string@DU?$char_traits@D@std@@V?$allocator@D@2@@2@_N_J_KNVallocator@2@Uadl_serializer@nlohmann@@@nlohmann@@U?$less@X@2@V?$allocator@U?$pair@$$CBV?$basic_string@DU?$char_traits@D@std@@V?$allocator@D@2@@std@@V?$basic_json@Vmap@std@@Vvector@2@V?$basic_string@DU?$char_traits@D@std@@V?$allocator@D@2@@2@_N_J_KNVallocator@2@Uadl_serializer@nlohmann@@@nlohmann@@@std@@@2@@std@@XZ@QAE@AAV?$allocator@V?$map@V?$basic_string@DU?$char_traits@D@std@@V?$allocator@D@2@@std@@V?$basic_json@Vmap@std@@Vvector@2@V?$basic_string@DU?$char_traits@D@std@@V?$allocator@D@2@@2@_N_J_KNVallocator@2@Uadl_serializer@nlohmann@@@nlohmann@@U?$less@X@2@V?$allocator@U?$pair@$$CBV?$basic_string@DU?$char_traits@D@std@@V?$allocator@D@2@@std@@V?$basic_json@Vmap@std@@Vvector@2@V?$basic_string@DU?$char_traits@D@std@@V?$allocator@D@2@@2@_N_J_KNVallocator@2@Uadl_serializer@nlohmann@@@nlohmann@@@std@@@2@@std@@@4@@Z 100056f0 f   c_menu.obj
 0001:000046f0       ??0_Clear_guard@?$_Hash@V?$_Umap_traits@IUnetvar@c_netvar@@V?$_Uhash_compare@IU?$hash@I@std@@U?$equal_to@I@2@@std@@V?$allocator@U?$pair@$$CBIUnetvar@c_netvar@@@std@@@4@$0A@@std@@@std@@QAE@QAV12@@Z 100056f0 f   aimbot_recode.obj
 0001:000046f0       ??0<lambda_1>@?1???$create@V?$basic_string@DU?$char_traits@D@std@@V?$allocator@D@2@@std@@V12@@?$basic_json@Vmap@std@@Vvector@2@V?$basic_string@DU?$char_traits@D@std@@V?$allocator@D@2@@2@_N_J_KNVallocator@2@Uadl_serializer@nlohmann@@@nlohmann@@CAPAV?$basic_string@DU?$char_traits@D@std@@V?$allocator@D@2@@std@@$$QAV34@@Z@QAE@AAV?$allocator@V?$basic_string@DU?$char_traits@D@std@@V?$allocator@D@2@@std@@@4@@Z 100056f0 f   c_menu.obj
 0001:00004710       ??0ImVec4@@QAE@MMMM@Z      10005710 f i ImConsole.obj
 0001:00004710       ??0D3DXVECTOR4@@QAE@MMMM@Z 10005710 f i D3DFont.obj
 0001:00004790       ?GetTextExtent@CD3DFont@@QAEJPBDPAUtagSIZE@@@Z 10005790 f   D3DFont.obj
 0001:00004980       ?InitDeviceObjects@CD3DFont@@QAEJPAUIDirect3DDevice9@@@Z 10005980 f   D3DFont.obj
 0001:00005410       ?InvalidateDeviceObjects@CD3DFont@@QAEJXZ 10006410 f   D3DFont.obj
 0001:000054b0       ?RestoreDeviceObjects@CD3DFont@@QAEJXZ 100064b0 f   D3DFont.obj
 0001:00005b50       ?ceil@@YAMM@Z              10006b50 f i D3DFont.obj
 0001:00005b70       _ceilf                     10006b70 f i D3DFont.obj
 0001:00005bb0       ??$_Destroy_range@V?$allocator@U?$pair@V?$shared_ptr@Vc_drawable@@@std@@U?$pair@Vc_vector2d@@V1@@2@@std@@@std@@@std@@YAXPAU?$pair@V?$shared_ptr@Vc_drawable@@@std@@U?$pair@Vc_vector2d@@V1@@2@@0@QAU10@AAV?$allocator@U?$pair@V?$shared_ptr@Vc_drawable@@@std@@U?$pair@Vc_vector2d@@V1@@2@@std@@@0@@Z 10006bb0 f i DLLMain.obj
 0001:00005c10       ??$_Free_non_head@V?$allocator@U?$_List_node@U?$pair@$$CBIUnetvar@c_netvar@@@std@@PAX@std@@@std@@@?$_List_node@U?$pair@$$CBIUnetvar@c_netvar@@@std@@PAX@std@@SAXAAV?$allocator@U?$_List_node@U?$pair@$$CBIUnetvar@c_netvar@@@std@@PAX@std@@@1@PAU01@@Z 10006c10 f i DLLMain.obj
 0001:00005c60       ??$_Free_non_head@V?$allocator@U?$_List_node@U?$pair@$$CBIV?$unordered_map@IUnetvar@c_netvar@@U?$hash@I@std@@U?$equal_to@I@4@V?$allocator@U?$pair@$$CBIUnetvar@c_netvar@@@std@@@4@@std@@@std@@PAX@std@@@std@@@?$_List_node@U?$pair@$$CBIV?$unordered_map@IUnetvar@c_netvar@@U?$hash@I@std@@U?$equal_to@I@4@V?$allocator@U?$pair@$$CBIUnetvar@c_netvar@@@std@@@4@@std@@@std@@PAX@std@@SAXAAV?$allocator@U?$_List_node@U?$pair@$$CBIV?$unordered_map@IUnetvar@c_netvar@@U?$hash@I@std@@U?$equal_to@I@4@V?$allocator@U?$pair@$$CBIUnetvar@c_netvar@@@std@@@4@@std@@@std@@PAX@std@@@1@PAU01@@Z 10006c60 f i DLLMain.obj
 0001:00005cb0       ??$_Freenode0@V?$allocator@U?$_List_node@U?$pair@$$CBIUnetvar@c_netvar@@@std@@PAX@std@@@std@@@?$_List_node@U?$pair@$$CBIUnetvar@c_netvar@@@std@@PAX@std@@SAXAAV?$allocator@U?$_List_node@U?$pair@$$CBIUnetvar@c_netvar@@@std@@PAX@std@@@1@PAU01@@Z 10006cb0 f i DLLMain.obj
 0001:00005d10       ??$_Freenode0@V?$allocator@U?$_List_node@U?$pair@$$CBIV?$unordered_map@IUnetvar@c_netvar@@U?$hash@I@std@@U?$equal_to@I@4@V?$allocator@U?$pair@$$CBIUnetvar@c_netvar@@@std@@@4@@std@@@std@@PAX@std@@@std@@@?$_List_node@U?$pair@$$CBIV?$unordered_map@IUnetvar@c_netvar@@U?$hash@I@std@@U?$equal_to@I@4@V?$allocator@U?$pair@$$CBIUnetvar@c_netvar@@@std@@@4@@std@@@std@@PAX@std@@SAXAAV?$allocator@U?$_List_node@U?$pair@$$CBIV?$unordered_map@IUnetvar@c_netvar@@U?$hash@I@std@@U?$equal_to@I@4@V?$allocator@U?$pair@$$CBIUnetvar@c_netvar@@@std@@@4@@std@@@std@@PAX@std@@@1@PAU01@@Z 10006d10 f i DLLMain.obj
 0001:00005d70       ??$_Freenode@V?$allocator@U?$_List_node@U?$pair@$$CBIUnetvar@c_netvar@@@std@@PAX@std@@@std@@@?$_List_node@U?$pair@$$CBIUnetvar@c_netvar@@@std@@PAX@std@@SAXAAV?$allocator@U?$_List_node@U?$pair@$$CBIUnetvar@c_netvar@@@std@@PAX@std@@@1@PAU01@@Z 10006d70 f i DLLMain.obj
 0001:00005dd0       ??$_Freenode@V?$allocator@U?$_List_node@U?$pair@$$CBIV?$unordered_map@IUnetvar@c_netvar@@U?$hash@I@std@@U?$equal_to@I@4@V?$allocator@U?$pair@$$CBIUnetvar@c_netvar@@@std@@@4@@std@@@std@@PAX@std@@@std@@@?$_List_node@U?$pair@$$CBIV?$unordered_map@IUnetvar@c_netvar@@U?$hash@I@std@@U?$equal_to@I@4@V?$allocator@U?$pair@$$CBIUnetvar@c_netvar@@@std@@@4@@std@@@std@@PAX@std@@SAXAAV?$allocator@U?$_List_node@U?$pair@$$CBIV?$unordered_map@IUnetvar@c_netvar@@U?$hash@I@std@@U?$equal_to@I@4@V?$allocator@U?$pair@$$CBIUnetvar@c_netvar@@@std@@@4@@std@@@std@@PAX@std@@@1@PAU01@@Z 10006dd0 f i DLLMain.obj
 0001:00005e30       ??$destroy@U?$pair@$$CBIV?$unordered_map@IUnetvar@c_netvar@@U?$hash@I@std@@U?$equal_to@I@4@V?$allocator@U?$pair@$$CBIUnetvar@c_netvar@@@std@@@4@@std@@@std@@@?$_Default_allocator_traits@V?$allocator@U?$_List_node@U?$pair@$$CBIV?$unordered_map@IUnetvar@c_netvar@@U?$hash@I@std@@U?$equal_to@I@4@V?$allocator@U?$pair@$$CBIUnetvar@c_netvar@@@std@@@4@@std@@@std@@PAX@std@@@std@@@std@@SAXAAV?$allocator@U?$_List_node@U?$pair@$$CBIV?$unordered_map@IUnetvar@c_netvar@@U?$hash@I@std@@U?$equal_to@I@4@V?$allocator@U?$pair@$$CBIUnetvar@c_netvar@@@std@@@4@@std@@@std@@PAX@std@@@1@QAU?$pair@$$CBIV?$unordered_map@IUnetvar@c_netvar@@U?$hash@I@std@@U?$equal_to@I@4@V?$allocator@U?$pair@$$CBIUnetvar@c_netvar@@@std@@@4@@std@@@1@@Z 10006e30 f i DLLMain.obj
 0001:00005e40       ??$destroy@U?$pair@V?$shared_ptr@Vc_drawable@@@std@@U?$pair@Vc_vector2d@@V1@@2@@std@@@?$_Default_allocator_traits@V?$allocator@U?$pair@V?$shared_ptr@Vc_drawable@@@std@@U?$pair@Vc_vector2d@@V1@@2@@std@@@std@@@std@@SAXAAV?$allocator@U?$pair@V?$shared_ptr@Vc_drawable@@@std@@U?$pair@Vc_vector2d@@V1@@2@@std@@@1@QAU?$pair@V?$shared_ptr@Vc_drawable@@@std@@U?$pair@Vc_vector2d@@V1@@2@@1@@Z 10006e40 f i DLLMain.obj
 0001:00005e50       ??$instance@$$V@?$c_singleton@Vc_menu@@@@SAPAVc_menu@@XZ 10006e50 f i DLLMain.obj
 0001:00005ef0       ??$instance@$$V@?$c_singleton@Vc_netvar@@@@SAPAVc_netvar@@XZ 10006ef0 f i DLLMain.obj
 0001:00005f90       ??1?$_Hash@V?$_Umap_traits@IUnetvar@c_netvar@@V?$_Uhash_compare@IU?$hash@I@std@@U?$equal_to@I@2@@std@@V?$allocator@U?$pair@$$CBIUnetvar@c_netvar@@@std@@@4@$0A@@std@@@std@@QAE@XZ 10006f90 f i DLLMain.obj
 0001:00005fc0       ??1?$_Hash@V?$_Umap_traits@IV?$unordered_map@IUnetvar@c_netvar@@U?$hash@I@std@@U?$equal_to@I@4@V?$allocator@U?$pair@$$CBIUnetvar@c_netvar@@@std@@@4@@std@@V?$_Uhash_compare@IU?$hash@I@std@@U?$equal_to@I@2@@2@V?$allocator@U?$pair@$$CBIV?$unordered_map@IUnetvar@c_netvar@@U?$hash@I@std@@U?$equal_to@I@4@V?$allocator@U?$pair@$$CBIUnetvar@c_netvar@@@std@@@4@@std@@@std@@@2@$0A@@std@@@std@@QAE@XZ 10006fc0 f i DLLMain.obj
 0001:00005ff0       ??1?$_Hash_vec@V?$allocator@V?$_List_unchecked_iterator@V?$_List_val@U?$_List_simple_types@U?$pair@$$CBIV?$unordered_map@IUnetvar@c_netvar@@U?$hash@I@std@@U?$equal_to@I@4@V?$allocator@U?$pair@$$CBIUnetvar@c_netvar@@@std@@@4@@std@@@std@@@std@@@std@@@std@@@std@@@std@@QAE@XZ 10006ff0 f i DLLMain.obj
 0001:00005ff0       ??1?$_Hash_vec@V?$allocator@V?$_List_unchecked_iterator@V?$_List_val@U?$_List_simple_types@U?$pair@QAVc_hotkey_select@@V?$function@$$A6AXI@Z@std@@@std@@@std@@@std@@@std@@@std@@@std@@QAE@XZ 10006ff0 f i c_fake_ping.obj
 0001:00005ff0       ??1?$_Hash_vec@V?$allocator@V?$_List_unchecked_iterator@V?$_List_val@U?$_List_simple_types@U?$pair@$$CBIVc_font@@@std@@@std@@@std@@@std@@@std@@@std@@QAE@XZ 10006ff0 f i c_damageesp.obj
 0001:00005ff0       ??1?$_Hash_vec@V?$allocator@V?$_List_unchecked_iterator@V?$_List_val@U?$_List_simple_types@U?$pair@$$CBIPAVCD3DFont@@@std@@@std@@@std@@@std@@@std@@@std@@QAE@XZ 10006ff0 f i c_damageesp.obj
 0001:00005ff0       ??1?$_Hash_vec@V?$allocator@V?$_List_unchecked_iterator@V?$_List_val@U?$_List_simple_types@U?$pair@$$CBIUnetvar@c_netvar@@@std@@@std@@@std@@@std@@@std@@@std@@QAE@XZ 10006ff0 f i DLLMain.obj
 0001:00005ff0       ??1?$_Hash_vec@V?$allocator@V?$_List_unchecked_iterator@V?$_List_val@U?$_List_simple_types@U?$pair@$$CBIUanimation_info@c_animation_system@@@std@@@std@@@std@@@std@@@std@@@std@@QAE@XZ 10006ff0 f i aimbot_recode.obj
 0001:00006010       ??1?$list@U?$pair@$$CBIUnetvar@c_netvar@@@std@@V?$allocator@U?$pair@$$CBIUnetvar@c_netvar@@@std@@@2@@std@@QAE@XZ 10007010 f i DLLMain.obj
 0001:00006030       ??1?$list@U?$pair@$$CBIV?$unordered_map@IUnetvar@c_netvar@@U?$hash@I@std@@U?$equal_to@I@4@V?$allocator@U?$pair@$$CBIUnetvar@c_netvar@@@std@@@4@@std@@@std@@V?$allocator@U?$pair@$$CBIV?$unordered_map@IUnetvar@c_netvar@@U?$hash@I@std@@U?$equal_to@I@4@V?$allocator@U?$pair@$$CBIUnetvar@c_netvar@@@std@@@4@@std@@@std@@@2@@std@@QAE@XZ 10007030 f i DLLMain.obj
 0001:00006050       ??1?$pair@$$CBIV?$unordered_map@IUnetvar@c_netvar@@U?$hash@I@std@@U?$equal_to@I@4@V?$allocator@U?$pair@$$CBIUnetvar@c_netvar@@@std@@@4@@std@@@std@@QAE@XZ 10007050 f i DLLMain.obj
 0001:00006070       ??1?$output_adapter@DV?$basic_string@DU?$char_traits@D@std@@V?$allocator@D@2@@std@@@detail@nlohmann@@QAE@XZ 10007070 f i c_menu.obj
 0001:00006070       ??1?$pair@V?$shared_ptr@Vc_drawable@@@std@@U?$pair@Vc_vector2d@@V1@@2@@std@@QAE@XZ 10007070 f i DLLMain.obj
 0001:00006070       ??1input_adapter@detail@nlohmann@@QAE@XZ 10007070 f i c_menu.obj
 0001:00006090       ??1?$shared_ptr@Vc_drawable@@@std@@QAE@XZ 10007090 f i DLLMain.obj
 0001:00006090       ??1?$shared_ptr@Vinput_buffer_adapter@detail@nlohmann@@@std@@QAE@XZ 10007090 f i c_menu.obj
 0001:00006090       ??1?$shared_ptr@Uinput_adapter_protocol@detail@nlohmann@@@std@@QAE@XZ 10007090 f i c_menu.obj
 0001:00006090       ??1?$shared_ptr@U?$output_adapter_protocol@D@detail@nlohmann@@@std@@QAE@XZ 10007090 f i c_menu.obj
 0001:00006090       ??1?$shared_ptr@V?$output_string_adapter@DV?$basic_string@DU?$char_traits@D@std@@V?$allocator@D@2@@std@@@detail@nlohmann@@@std@@QAE@XZ 10007090 f i c_menu.obj
 0001:000060b0       ??1?$unordered_map@IUnetvar@c_netvar@@U?$hash@I@std@@U?$equal_to@I@4@V?$allocator@U?$pair@$$CBIUnetvar@c_netvar@@@std@@@4@@std@@QAE@XZ 100070b0 f i DLLMain.obj
 0001:000060d0       ??1?$unordered_map@IV?$unordered_map@IUnetvar@c_netvar@@U?$hash@I@std@@U?$equal_to@I@4@V?$allocator@U?$pair@$$CBIUnetvar@c_netvar@@@std@@@4@@std@@U?$hash@I@2@U?$equal_to@I@2@V?$allocator@U?$pair@$$CBIV?$unordered_map@IUnetvar@c_netvar@@U?$hash@I@std@@U?$equal_to@I@4@V?$allocator@U?$pair@$$CBIUnetvar@c_netvar@@@std@@@4@@std@@@std@@@2@@std@@QAE@XZ 100070d0 f i DLLMain.obj
 0001:000060f0       ??1?$vector@U?$pair@V?$shared_ptr@Vc_drawable@@@std@@U?$pair@Vc_vector2d@@V1@@2@@std@@V?$allocator@U?$pair@V?$shared_ptr@Vc_drawable@@@std@@U?$pair@Vc_vector2d@@V1@@2@@std@@@2@@std@@QAE@XZ 100070f0 f i DLLMain.obj
 0001:00006110       ??1c_drawable@@UAE@XZ      10007110 f i DLLMain.obj
 0001:00006130       ??1c_flow_layout@@UAE@XZ   10007130 f i DLLMain.obj
 0001:00006150       ??1c_menu@@UAE@XZ          10007150 f i DLLMain.obj
 0001:00006170       ??1c_netvar@@QAE@XZ        10007170 f i DLLMain.obj
 0001:00006190       ??_G?$pair@$$CBIV?$unordered_map@IUnetvar@c_netvar@@U?$hash@I@std@@U?$equal_to@I@4@V?$allocator@U?$pair@$$CBIUnetvar@c_netvar@@@std@@@4@@std@@@std@@QAEPAXI@Z 10007190 f i DLLMain.obj
 0001:000061c0       ??_G?$pair@V?$shared_ptr@Vc_drawable@@@std@@U?$pair@Vc_vector2d@@V1@@2@@std@@QAEPAXI@Z 100071c0 f i DLLMain.obj
 0001:000061f0       ?_Decref@?$_Ptr_base@Uinput_adapter_protocol@detail@nlohmann@@@std@@IAEXXZ 100071f0 f i c_menu.obj
 0001:000061f0       ?_Decref@?$_Ptr_base@V?$output_string_adapter@DV?$basic_string@DU?$char_traits@D@std@@V?$allocator@D@2@@std@@@detail@nlohmann@@@std@@IAEXXZ 100071f0 f i c_menu.obj
 0001:000061f0       ?_Decref@?$_Ptr_base@Vc_drawable@@@std@@IAEXXZ 100071f0 f i DLLMain.obj
 0001:000061f0       ?_Decref@?$_Ptr_base@U?$output_adapter_protocol@D@detail@nlohmann@@@std@@IAEXXZ 100071f0 f i c_menu.obj
 0001:000061f0       ?_Decref@?$_Ptr_base@Vinput_buffer_adapter@detail@nlohmann@@@std@@IAEXXZ 100071f0 f i c_menu.obj
 0001:00006210       ?_Decref@_Ref_count_base@std@@QAEXXZ 10007210 f i DLLMain.obj
 0001:00006240       ?_Decwref@_Ref_count_base@std@@QAEXXZ 10007240 f i DLLMain.obj
 0001:00006270       ?_Destroy@?$vector@U?$pair@V?$shared_ptr@Vc_drawable@@@std@@U?$pair@Vc_vector2d@@V1@@2@@std@@V?$allocator@U?$pair@V?$shared_ptr@Vc_drawable@@@std@@U?$pair@Vc_vector2d@@V1@@2@@std@@@2@@std@@AAEXPAU?$pair@V?$shared_ptr@Vc_drawable@@@std@@U?$pair@Vc_vector2d@@V1@@2@@2@0@Z 10007270 f i DLLMain.obj
 0001:000062a0       ?_Tidy@?$_Hash_vec@V?$allocator@V?$_List_unchecked_iterator@V?$_List_val@U?$_List_simple_types@U?$pair@$$CBIUnetvar@c_netvar@@@std@@@std@@@std@@@std@@@std@@@std@@QAEXXZ 100072a0 f i DLLMain.obj
 0001:000062a0       ?_Tidy@?$_Hash_vec@V?$allocator@V?$_List_unchecked_iterator@V?$_List_val@U?$_List_simple_types@U?$pair@$$CBIPAVCD3DFont@@@std@@@std@@@std@@@std@@@std@@@std@@QAEXXZ 100072a0 f i c_damageesp.obj
 0001:000062a0       ?_Tidy@?$_Hash_vec@V?$allocator@V?$_List_unchecked_iterator@V?$_List_val@U?$_List_simple_types@U?$pair@QAVc_hotkey_select@@V?$function@$$A6AXI@Z@std@@@std@@@std@@@std@@@std@@@std@@@std@@QAEXXZ 100072a0 f i c_fake_ping.obj
 0001:000062a0       ?_Tidy@?$_Hash_vec@V?$allocator@V?$_List_unchecked_iterator@V?$_List_val@U?$_List_simple_types@U?$pair@$$CBIVc_font@@@std@@@std@@@std@@@std@@@std@@@std@@QAEXXZ 100072a0 f i c_damageesp.obj
 0001:000062a0       ?_Tidy@?$_Hash_vec@V?$allocator@V?$_List_unchecked_iterator@V?$_List_val@U?$_List_simple_types@U?$pair@$$CBIUanimation_info@c_animation_system@@@std@@@std@@@std@@@std@@@std@@@std@@QAEXXZ 100072a0 f i aimbot_recode.obj
 0001:000062a0       ?_Tidy@?$_Hash_vec@V?$allocator@V?$_List_unchecked_iterator@V?$_List_val@U?$_List_simple_types@U?$pair@$$CBIV?$unordered_map@IUnetvar@c_netvar@@U?$hash@I@std@@U?$equal_to@I@4@V?$allocator@U?$pair@$$CBIUnetvar@c_netvar@@@std@@@4@@std@@@std@@@std@@@std@@@std@@@std@@@std@@QAEXXZ 100072a0 f i DLLMain.obj
 0001:00006340       ?_Tidy@?$list@U?$pair@$$CBIUnetvar@c_netvar@@@std@@V?$allocator@U?$pair@$$CBIUnetvar@c_netvar@@@std@@@2@@std@@AAEXXZ 10007340 f i DLLMain.obj
 0001:00006390       ?_Tidy@?$list@U?$pair@$$CBIV?$unordered_map@IUnetvar@c_netvar@@U?$hash@I@std@@U?$equal_to@I@4@V?$allocator@U?$pair@$$CBIUnetvar@c_netvar@@@std@@@4@@std@@@std@@V?$allocator@U?$pair@$$CBIV?$unordered_map@IUnetvar@c_netvar@@U?$hash@I@std@@U?$equal_to@I@4@V?$allocator@U?$pair@$$CBIUnetvar@c_netvar@@@std@@@4@@std@@@std@@@2@@std@@AAEXXZ 10007390 f i DLLMain.obj
 0001:000063e0       ?_Tidy@?$vector@U?$pair@V?$shared_ptr@Vc_drawable@@@std@@U?$pair@Vc_vector2d@@V1@@2@@std@@V?$allocator@U?$pair@V?$shared_ptr@Vc_drawable@@@std@@U?$pair@Vc_vector2d@@V1@@2@@std@@@2@@std@@AAEXXZ 100073e0 f i DLLMain.obj
 0001:000064b0       ?deallocate@?$_Default_allocator_traits@V?$allocator@U?$_List_node@U?$pair@$$CBIUnetvar@c_netvar@@@std@@PAX@std@@@std@@@std@@SAXAAV?$allocator@U?$_List_node@U?$pair@$$CBIUnetvar@c_netvar@@@std@@PAX@std@@@2@QAU?$_List_node@U?$pair@$$CBIUnetvar@c_netvar@@@std@@PAX@2@I@Z 100074b0 f i DLLMain.obj
 0001:000064d0       ?deallocate@?$_Default_allocator_traits@V?$allocator@U?$_List_node@U?$pair@$$CBIV?$unordered_map@IUnetvar@c_netvar@@U?$hash@I@std@@U?$equal_to@I@4@V?$allocator@U?$pair@$$CBIUnetvar@c_netvar@@@std@@@4@@std@@@std@@PAX@std@@@std@@@std@@SAXAAV?$allocator@U?$_List_node@U?$pair@$$CBIV?$unordered_map@IUnetvar@c_netvar@@U?$hash@I@std@@U?$equal_to@I@4@V?$allocator@U?$pair@$$CBIUnetvar@c_netvar@@@std@@@4@@std@@@std@@PAX@std@@@2@QAU?$_List_node@U?$pair@$$CBIV?$unordered_map@IUnetvar@c_netvar@@U?$hash@I@std@@U?$equal_to@I@4@V?$allocator@U?$pair@$$CBIUnetvar@c_netvar@@@std@@@4@@std@@@std@@PAX@2@I@Z 100074d0 f i DLLMain.obj
 0001:000064f0       ?deallocate@?$allocator@V?$basic_string@DU?$char_traits@D@std@@V?$allocator@D@2@@std@@@std@@QAEXQAV?$basic_string@DU?$char_traits@D@std@@V?$allocator@D@2@@2@I@Z 100074f0 f i c_miscellaneous.obj
 0001:000064f0       ?deallocate@?$allocator@U?$_Tree_node@U?$pair@$$CBHH@std@@PAX@std@@@std@@QAEXQAU?$_Tree_node@U?$pair@$$CBHH@std@@PAX@2@I@Z 100074f0 f i c_prediction_.obj
 0001:000064f0       ?deallocate@?$allocator@U?$pair@V?$shared_ptr@Vc_drawable@@@std@@U?$pair@Vc_vector2d@@V1@@2@@std@@@std@@QAEXQAU?$pair@V?$shared_ptr@Vc_drawable@@@std@@U?$pair@Vc_vector2d@@V1@@2@@2@I@Z 100074f0 f i DLLMain.obj
 0001:00006510       ?deallocate@?$allocator@H@std@@QAEXQAHI@Z 10007510 f i aimbot_recode.obj
 0001:00006510       ?deallocate@?$allocator@V?$_List_unchecked_iterator@V?$_List_val@U?$_List_simple_types@U?$pair@$$CBIPAVCD3DFont@@@std@@@std@@@std@@@std@@@std@@QAEXQAV?$_List_unchecked_iterator@V?$_List_val@U?$_List_simple_types@U?$pair@$$CBIPAVCD3DFont@@@std@@@std@@@std@@@2@I@Z 10007510 f i c_damageesp.obj
 0001:00006510       ?deallocate@?$allocator@W4hitbox@c_cs_player@@@std@@QAEXQAW4hitbox@c_cs_player@@I@Z 10007510 f i aimbot_recode.obj
 0001:00006510       ?deallocate@?$allocator@V?$_List_unchecked_iterator@V?$_List_val@U?$_List_simple_types@U?$pair@$$CBIUnetvar@c_netvar@@@std@@@std@@@std@@@std@@@std@@QAEXQAV?$_List_unchecked_iterator@V?$_List_val@U?$_List_simple_types@U?$pair@$$CBIUnetvar@c_netvar@@@std@@@std@@@std@@@2@I@Z 10007510 f i DLLMain.obj
 0001:00006510       ?deallocate@?$allocator@M@std@@QAEXQAMI@Z 10007510 f i c_font.obj
 0001:00006510       ?deallocate@?$allocator@V?$_List_unchecked_iterator@V?$_List_val@U?$_List_simple_types@U?$pair@$$CBIUanimation_info@c_animation_system@@@std@@@std@@@std@@@std@@@std@@QAEXQAV?$_List_unchecked_iterator@V?$_List_val@U?$_List_simple_types@U?$pair@$$CBIUanimation_info@c_animation_system@@@std@@@std@@@std@@@2@I@Z 10007510 f i aimbot_recode.obj
 0001:00006510       ?deallocate@?$allocator@V?$_List_unchecked_iterator@V?$_List_val@U?$_List_simple_types@U?$pair@$$CBIVc_font@@@std@@@std@@@std@@@std@@@std@@QAEXQAV?$_List_unchecked_iterator@V?$_List_val@U?$_List_simple_types@U?$pair@$$CBIVc_font@@@std@@@std@@@std@@@2@I@Z 10007510 f i c_damageesp.obj
 0001:00006510       ?deallocate@?$allocator@PAUCIncomingSequence@@@std@@QAEXQAPAUCIncomingSequence@@I@Z 10007510 f i c_fake_ping.obj
 0001:00006510       ?deallocate@?$allocator@PAUanimation@c_animation_system@@@std@@QAEXQAPAUanimation@c_animation_system@@I@Z 10007510 f i aimbot_recode.obj
 0001:00006510       ?deallocate@?$allocator@V?$_List_unchecked_iterator@V?$_List_val@U?$_List_simple_types@U?$pair@$$CBIV?$unordered_map@IUnetvar@c_netvar@@U?$hash@I@std@@U?$equal_to@I@4@V?$allocator@U?$pair@$$CBIUnetvar@c_netvar@@@std@@@4@@std@@@std@@@std@@@std@@@std@@@std@@QAEXQAV?$_List_unchecked_iterator@V?$_List_val@U?$_List_simple_types@U?$pair@$$CBIV?$unordered_map@IUnetvar@c_netvar@@U?$hash@I@std@@U?$equal_to@I@4@V?$allocator@U?$pair@$$CBIUnetvar@c_netvar@@@std@@@4@@std@@@std@@@std@@@std@@@2@I@Z 10007510 f i DLLMain.obj
 0001:00006510       ?deallocate@?$allocator@PAVLua_Hook@@@std@@QAEXQAPAVLua_Hook@@I@Z 10007510 f i LuaAPI.obj
 0001:00006510       ?deallocate@?$allocator@V?$_List_unchecked_iterator@V?$_List_val@U?$_List_simple_types@U?$pair@QAVc_hotkey_select@@V?$function@$$A6AXI@Z@std@@@std@@@std@@@std@@@std@@@std@@QAEXQAV?$_List_unchecked_iterator@V?$_List_val@U?$_List_simple_types@U?$pair@QAVc_hotkey_select@@V?$function@$$A6AXI@Z@std@@@std@@@std@@@std@@@2@I@Z 10007510 f i c_fake_ping.obj
 0001:00006510       ?deallocate@?$allocator@PAUshot@resolver@@@std@@QAEXQAPAUshot@resolver@@I@Z 10007510 f i aimbot_recode.obj
 0001:00006530       ?entry@@YGKPAX@Z           10007530 f   DLLMain.obj
 0001:000065d0       ?size@?$_Hash_vec@V?$allocator@V?$_List_unchecked_iterator@V?$_List_val@U?$_List_simple_types@U?$pair@$$CBIUnetvar@c_netvar@@@std@@@std@@@std@@@std@@@std@@@std@@QBEIXZ 100075d0 f i DLLMain.obj
 0001:000065d0       ?size@?$_Hash_vec@V?$allocator@V?$_List_unchecked_iterator@V?$_List_val@U?$_List_simple_types@U?$pair@$$CBIPAVCD3DFont@@@std@@@std@@@std@@@std@@@std@@@std@@QBEIXZ 100075d0 f i c_damageesp.obj
 0001:000065d0       ?size@?$_Hash_vec@V?$allocator@V?$_List_unchecked_iterator@V?$_List_val@U?$_List_simple_types@U?$pair@QAVc_hotkey_select@@V?$function@$$A6AXI@Z@std@@@std@@@std@@@std@@@std@@@std@@@std@@QBEIXZ 100075d0 f i c_fake_ping.obj
 0001:000065d0       ?size@?$_Hash_vec@V?$allocator@V?$_List_unchecked_iterator@V?$_List_val@U?$_List_simple_types@U?$pair@$$CBIUanimation_info@c_animation_system@@@std@@@std@@@std@@@std@@@std@@@std@@QBEIXZ 100075d0 f i aimbot_recode.obj
 0001:000065d0       ?size@?$_Hash_vec@V?$allocator@V?$_List_unchecked_iterator@V?$_List_val@U?$_List_simple_types@U?$pair@$$CBIVc_font@@@std@@@std@@@std@@@std@@@std@@@std@@QBEIXZ 100075d0 f i c_damageesp.obj
 0001:000065d0       ?size@?$_Hash_vec@V?$allocator@V?$_List_unchecked_iterator@V?$_List_val@U?$_List_simple_types@U?$pair@$$CBIV?$unordered_map@IUnetvar@c_netvar@@U?$hash@I@std@@U?$equal_to@I@4@V?$allocator@U?$pair@$$CBIUnetvar@c_netvar@@@std@@@4@@std@@@std@@@std@@@std@@@std@@@std@@@std@@QBEIXZ 100075d0 f i DLLMain.obj
 0001:000065f0       _DllMain@12                100075f0 f   DLLMain.obj
 0001:00006640       ??$?0$$QAI$$Z$$V@?$pair@$$CBIUnetvar@c_netvar@@@std@@QAE@Upiecewise_construct_t@1@V?$tuple@$$QAI@1@V?$tuple@$$V@1@@Z 10007640 f i aimbot_recode.obj
 0001:00006670       ??$?0$$QAI$$Z$$V@?$pair@$$CBIV?$unordered_map@IUnetvar@c_netvar@@U?$hash@I@std@@U?$equal_to@I@4@V?$allocator@U?$pair@$$CBIUnetvar@c_netvar@@@std@@@4@@std@@@std@@QAE@Upiecewise_construct_t@1@V?$tuple@$$QAI@1@V?$tuple@$$V@1@@Z 10007670 f i aimbot_recode.obj
 0001:000066a0       ??$?0$$V@?$_Compressed_pair@V?$allocator@PAVLua_Hook@@@std@@V?$_Vector_val@U?$_Simple_types@PAVLua_Hook@@@std@@@2@$00@std@@QAE@U_Zero_then_variadic_args_t@1@@Z 100076a0 f i LuaAPI.obj
 0001:000066a0       ??$?0$$V@?$_Compressed_pair@V?$allocator@V?$tuple@MMM@std@@@std@@V?$_Vector_val@U?$_Simple_types@V?$tuple@MMM@std@@@std@@@2@$00@std@@QAE@U_Zero_then_variadic_args_t@1@@Z 100076a0 f i c_aimhelper.obj
 0001:000066a0       ??$?0$$V@?$_Compressed_pair@V?$allocator@V?$function@$$A6AXI@Z@std@@@std@@V?$_Vector_val@U?$_Simple_types@V?$function@$$A6AXI@Z@std@@@std@@@2@$00@std@@QAE@U_Zero_then_variadic_args_t@1@@Z 100076a0 f i c_hotkeys.obj
 0001:000066a0       ??$?0$$V@?$_Compressed_pair@V?$allocator@V?$vector@MV?$allocator@M@std@@@std@@@std@@V?$_Vector_val@U?$_Simple_types@V?$vector@MV?$allocator@M@std@@@std@@@std@@@2@$00@std@@QAE@U_Zero_then_variadic_args_t@1@@Z 100076a0 f i c_font.obj
 0001:000066a0       ??$?0$$V@?$_Compressed_pair@V?$allocator@Unade_info@c_esp@@@std@@V?$_Vector_val@U?$_Simple_types@Unade_info@c_esp@@@std@@@2@$00@std@@QAE@U_Zero_then_variadic_args_t@1@@Z 100076a0 f i aimbot_recode.obj
 0001:000066a0       ??$?0$$V@?$_Compressed_pair@V?$allocator@V?$basic_string@DU?$char_traits@D@std@@V?$allocator@D@2@@std@@@std@@V?$_Vector_val@U?$_Simple_types@V?$basic_string@DU?$char_traits@D@std@@V?$allocator@D@2@@std@@@std@@@2@$00@std@@QAE@U_Zero_then_variadic_args_t@1@@Z 100076a0 f i ImConsole.obj
 0001:000066a0       ??$?0$$V@?$_Compressed_pair@V?$allocator@W4hitbox@c_cs_player@@@std@@V?$_Vector_val@U?$_Simple_types@W4hitbox@c_cs_player@@@std@@@2@$00@std@@QAE@U_Zero_then_variadic_args_t@1@@Z 100076a0 f i aimbot_recode.obj
 0001:000066a0       ??$?0$$V@?$_Compressed_pair@V?$allocator@PAUanimation@c_animation_system@@@std@@V?$_Vector_val@U?$_Simple_types@PAUanimation@c_animation_system@@@std@@@2@$00@std@@QAE@U_Zero_then_variadic_args_t@1@@Z 100076a0 f i c_animation_system.obj
 0001:000066a0       ??$?0$$V@?$_Compressed_pair@V?$allocator@D@std@@V?$_Vector_val@U?$_Simple_types@D@std@@@2@$00@std@@QAE@U_Zero_then_variadic_args_t@1@@Z 100076a0 f i c_menu.obj
 0001:000066a0       ??$?0$$V@?$_Compressed_pair@V?$allocator@U?$pair@PAVc_cs_player@@M@std@@@std@@V?$_Vector_val@U?$_Simple_types@U?$pair@PAVc_cs_player@@M@std@@@std@@@2@$00@std@@QAE@U_Zero_then_variadic_args_t@1@@Z 100076a0 f i c_chams.obj
 0001:000066a0       ??$?0$$V@?$_Compressed_pair@V?$allocator@VImConsoleTextItem@@@std@@V?$_Vector_val@U?$_Simple_types@VImConsoleTextItem@@@std@@@2@$00@std@@QAE@U_Zero_then_variadic_args_t@1@@Z 100076a0 f i ImConsole.obj
 0001:000066a0       ??$?0$$V@?$_Compressed_pair@V?$allocator@V?$function@$$A6AXXZ@std@@@std@@V?$_Vector_val@U?$_Simple_types@V?$function@$$A6AXXZ@std@@@std@@@2@$00@std@@QAE@U_Zero_then_variadic_args_t@1@@Z 100076a0 f i c_renderer.obj
 0001:000066a0       ??$?0$$V@?$_Compressed_pair@V?$allocator@H@std@@V?$_Vector_val@U?$_Simple_types@H@std@@@2@$00@std@@QAE@U_Zero_then_variadic_args_t@1@@Z 100076a0 f i aimbot_recode.obj
 0001:000066a0       ??$?0$$V@?$_Compressed_pair@V?$allocator@Uimpact_info@@@std@@V?$_Vector_val@U?$_Simple_types@Uimpact_info@@@std@@@2@$00@std@@QAE@U_Zero_then_variadic_args_t@1@@Z 100076a0 f i c_hitmarker.obj
 0001:000066a0       ??$?0$$V@?$_Compressed_pair@V?$allocator@Uaim_info@c_aimhelper@@@std@@V?$_Vector_val@U?$_Simple_types@Uaim_info@c_aimhelper@@@std@@@2@$00@std@@QAE@U_Zero_then_variadic_args_t@1@@Z 100076a0 f i c_aimhelper.obj
 0001:000066a0       ??$?0$$V@?$_Compressed_pair@V?$allocator@Vc_vector2d@@@std@@V?$_Vector_val@U?$_Simple_types@Vc_vector2d@@@std@@@2@$00@std@@QAE@U_Zero_then_variadic_args_t@1@@Z 100076a0 f i c_renderer.obj
 0001:000066a0       ??$?0$$V@?$_Compressed_pair@V?$allocator@Udamage_infos@@@std@@V?$_Vector_val@U?$_Simple_types@Udamage_infos@@@std@@@2@$00@std@@QAE@U_Zero_then_variadic_args_t@1@@Z 100076a0 f i c_esp.obj
 0001:000066a0       ??$?0$$V@?$_Compressed_pair@V?$allocator@Vc_vector3d@@@std@@V?$_Vector_val@U?$_Simple_types@Vc_vector3d@@@std@@@2@$00@std@@QAE@U_Zero_then_variadic_args_t@1@@Z 100076a0 f i aimbot_recode.obj
 0001:000066a0       ??$?0$$V@?$_Compressed_pair@V?$allocator@Uhitmarker_info@@@std@@V?$_Vector_val@U?$_Simple_types@Uhitmarker_info@@@std@@@2@$00@std@@QAE@U_Zero_then_variadic_args_t@1@@Z 100076a0 f i c_hitmarker.obj
 0001:000066a0       ??$?0$$V@?$_Compressed_pair@V?$allocator@Uplayer_info@c_esp@@@std@@V?$_Vector_val@U?$_Simple_types@Uplayer_info@c_esp@@@std@@@2@$00@std@@QAE@U_Zero_then_variadic_args_t@1@@Z 100076a0 f i aimbot_recode.obj
 0001:000066a0       ??$?0$$V@?$_Compressed_pair@V?$allocator@M@std@@V?$_Vector_val@U?$_Simple_types@M@std@@@2@$00@std@@QAE@U_Zero_then_variadic_args_t@1@@Z 100076a0 f i c_font.obj
 0001:000066a0       ??$?0$$V@?$_Compressed_pair@V?$allocator@V?$basic_json@Vmap@std@@Vvector@2@V?$basic_string@DU?$char_traits@D@std@@V?$allocator@D@2@@2@_N_J_KNVallocator@2@Uadl_serializer@nlohmann@@@nlohmann@@@std@@V?$_Vector_val@U?$_Simple_types@V?$basic_json@Vmap@std@@Vvector@2@V?$basic_string@DU?$char_traits@D@std@@V?$allocator@D@2@@2@_N_J_KNVallocator@2@Uadl_serializer@nlohmann@@@nlohmann@@@std@@@2@$00@std@@QAE@U_Zero_then_variadic_args_t@1@@Z 100076a0 f i c_menu.obj
 0001:000066c0       ??$?0$$V@?$_Compressed_pair@V?$allocator@UCIncomingSequence@@@std@@V?$_Deque_val@U?$_Deque_simple_types@UCIncomingSequence@@@std@@@2@$00@std@@QAE@U_Zero_then_variadic_args_t@1@@Z 100076c0 f i c_fake_ping.obj
 0001:000066c0       ??$?0$$V@?$_Compressed_pair@V?$allocator@Ushot@resolver@@@std@@V?$_Deque_val@U?$_Deque_simple_types@Ushot@resolver@@@std@@@2@$00@std@@QAE@U_Zero_then_variadic_args_t@1@@Z 100076c0 f i aimbot_recode.obj
 0001:000066c0       ??$?0$$V@?$_Compressed_pair@V?$allocator@Uanimation@c_animation_system@@@std@@V?$_Deque_val@U?$_Deque_simple_types@Uanimation@c_animation_system@@@std@@@2@$00@std@@QAE@U_Zero_then_variadic_args_t@1@@Z 100076c0 f i c_animation_system.obj
 0001:000066e0       ??$?0$0A@$00$01$02$03$04$05$06$07$08$09$0L@$0M@$0N@$0O@$0P@$0BA@$0BB@$0BC@$0BD@$0BE@$0BF@$0BG@$0BH@$0BI@$0BJ@$0BK@$0BL@$0BM@@?$xorstr@$0BN@$0HK@@@QAE@PBDU?$integer_sequence@I$0A@$00$01$02$03$04$05$06$07$08$09$0L@$0M@$0N@$0O@$0P@$0BA@$0BB@$0BC@$0BD@$0BE@$0BF@$0BG@$0BH@$0BI@$0BJ@$0BK@$0BL@$0BM@@std@@@Z 100076e0 f i aimbot_recode.obj
 0001:00006a60       ??$?0$0A@$00$01$02$03$04$05$06$07$08$09@?$xorstr@$0L@$0FA@@@QAE@PBDU?$integer_sequence@I$0A@$00$01$02$03$04$05$06$07$08$09@std@@@Z 10007a60 f i aimbot_recode.obj
 0001:00006bc0       ??$?0$0A@$00$01$02$03$04$05$06$07$08$09@?$xorstr@$0L@$0L@@@QAE@PBDU?$integer_sequence@I$0A@$00$01$02$03$04$05$06$07$08$09@std@@@Z 10007bc0 f i aimbot_recode.obj
 0001:00006d20       ??$?0AAPAU?$_List_node@U?$pair@$$CBIUnetvar@c_netvar@@@std@@PAX@std@@_N$0A@@?$pair@PAU?$_List_node@U?$pair@$$CBIUnetvar@c_netvar@@@std@@PAX@std@@_N@std@@QAE@AAPAU?$_List_node@U?$pair@$$CBIUnetvar@c_netvar@@@std@@PAX@1@$$QA_N@Z 10007d20 f i aimbot_recode.obj
 0001:00006d20       ??$?0PAU?$_List_node@U?$pair@$$CBIV?$unordered_map@IUnetvar@c_netvar@@U?$hash@I@std@@U?$equal_to@I@4@V?$allocator@U?$pair@$$CBIUnetvar@c_netvar@@@std@@@4@@std@@@std@@PAX@std@@_N$0A@@?$pair@PAU?$_List_node@U?$pair@$$CBIV?$unordered_map@IUnetvar@c_netvar@@U?$hash@I@std@@U?$equal_to@I@4@V?$allocator@U?$pair@$$CBIUnetvar@c_netvar@@@std@@@4@@std@@@std@@PAX@std@@_N@std@@QAE@$$QAPAU?$_List_node@U?$pair@$$CBIV?$unordered_map@IUnetvar@c_netvar@@U?$hash@I@std@@U?$equal_to@I@4@V?$allocator@U?$pair@$$CBIUnetvar@c_netvar@@@std@@@4@@std@@@std@@PAX@1@$$QA_N@Z 10007d20 f i aimbot_recode.obj
 0001:00006d20       ??$?0AAPAU?$_List_node@U?$pair@$$CBIV?$unordered_map@IUnetvar@c_netvar@@U?$hash@I@std@@U?$equal_to@I@4@V?$allocator@U?$pair@$$CBIUnetvar@c_netvar@@@std@@@4@@std@@@std@@PAX@std@@_N$0A@@?$pair@PAU?$_List_node@U?$pair@$$CBIV?$unordered_map@IUnetvar@c_netvar@@U?$hash@I@std@@U?$equal_to@I@4@V?$allocator@U?$pair@$$CBIUnetvar@c_netvar@@@std@@@4@@std@@@std@@PAX@std@@_N@std@@QAE@AAPAU?$_List_node@U?$pair@$$CBIV?$unordered_map@IUnetvar@c_netvar@@U?$hash@I@std@@U?$equal_to@I@4@V?$allocator@U?$pair@$$CBIUnetvar@c_netvar@@@std@@@4@@std@@@std@@PAX@1@$$QA_N@Z 10007d20 f i aimbot_recode.obj
 0001:00006d20       ??$?0PAU?$_List_node@U?$pair@$$CBIUnetvar@c_netvar@@@std@@PAX@std@@_N$0A@@?$pair@PAU?$_List_node@U?$pair@$$CBIUnetvar@c_netvar@@@std@@PAX@std@@_N@std@@QAE@$$QAPAU?$_List_node@U?$pair@$$CBIUnetvar@c_netvar@@@std@@PAX@1@$$QA_N@Z 10007d20 f i aimbot_recode.obj
 0001:00006d20       ??$?0PAU?$_List_node@U?$pair@$$CBIVc_font@@@std@@PAX@std@@_N$0A@@?$pair@PAU?$_List_node@U?$pair@$$CBIVc_font@@@std@@PAX@std@@_N@std@@QAE@$$QAPAU?$_List_node@U?$pair@$$CBIVc_font@@@std@@PAX@1@$$QA_N@Z 10007d20 f i c_renderer.obj
 0001:00006d20       ??$?0AAPAU?$_Tree_node@U?$pair@$$CBV?$basic_string@DU?$char_traits@D@std@@V?$allocator@D@2@@std@@V?$basic_json@Vmap@std@@Vvector@2@V?$basic_string@DU?$char_traits@D@std@@V?$allocator@D@2@@2@_N_J_KNVallocator@2@Uadl_serializer@nlohmann@@@nlohmann@@@std@@PAX@std@@_N$0A@@?$pair@PAU?$_Tree_node@U?$pair@$$CBV?$basic_string@DU?$char_traits@D@std@@V?$allocator@D@2@@std@@V?$basic_json@Vmap@std@@Vvector@2@V?$basic_string@DU?$char_traits@D@std@@V?$allocator@D@2@@2@_N_J_KNVallocator@2@Uadl_serializer@nlohmann@@@nlohmann@@@std@@PAX@std@@_N@std@@QAE@AAPAU?$_Tree_node@U?$pair@$$CBV?$basic_string@DU?$char_traits@D@std@@V?$allocator@D@2@@std@@V?$basic_json@Vmap@std@@Vvector@2@V?$basic_string@DU?$char_traits@D@std@@V?$allocator@D@2@@2@_N_J_KNVallocator@2@Uadl_serializer@nlohmann@@@nlohmann@@@std@@PAX@1@$$QA_N@Z 10007d20 f i c_menu.obj
 0001:00006d20       ??$?0AAPAU?$_List_node@U?$pair@$$CBIVc_font@@@std@@PAX@std@@_N$0A@@?$pair@PAU?$_List_node@U?$pair@$$CBIVc_font@@@std@@PAX@std@@_N@std@@QAE@AAPAU?$_List_node@U?$pair@$$CBIVc_font@@@std@@PAX@1@$$QA_N@Z 10007d20 f i c_renderer.obj
 0001:00006d20       ??$?0PAU?$_Tree_node@U?$pair@$$CBV?$basic_string@DU?$char_traits@D@std@@V?$allocator@D@2@@std@@V?$basic_json@Vmap@std@@Vvector@2@V?$basic_string@DU?$char_traits@D@std@@V?$allocator@D@2@@2@_N_J_KNVallocator@2@Uadl_serializer@nlohmann@@@nlohmann@@@std@@PAX@std@@_N$0A@@?$pair@PAU?$_Tree_node@U?$pair@$$CBV?$basic_string@DU?$char_traits@D@std@@V?$allocator@D@2@@std@@V?$basic_json@Vmap@std@@Vvector@2@V?$basic_string@DU?$char_traits@D@std@@V?$allocator@D@2@@2@_N_J_KNVallocator@2@Uadl_serializer@nlohmann@@@nlohmann@@@std@@PAX@std@@_N@std@@QAE@$$QAPAU?$_Tree_node@U?$pair@$$CBV?$basic_string@DU?$char_traits@D@std@@V?$allocator@D@2@@std@@V?$basic_json@Vmap@std@@Vvector@2@V?$basic_string@DU?$char_traits@D@std@@V?$allocator@D@2@@2@_N_J_KNVallocator@2@Uadl_serializer@nlohmann@@@nlohmann@@@std@@PAX@1@$$QA_N@Z 10007d20 f i c_menu.obj
 0001:00006d60       ??$?0PAUanimation@c_animation_system@@$0A@@?$optional@PAUanimation@c_animation_system@@@std@@QAE@$$QAPAUanimation@c_animation_system@@@Z 10007d60 f i c_animation_system.obj
 0001:00006d60       ??$?0ABM$0A@@?$optional@M@std@@QAE@ABM@Z 10007d60 f i aimbot_recode.obj
 0001:00006d60       ??$?0PAVc_drawable@@$0A@@?$optional@PAVc_drawable@@@std@@QAE@$$QAPAVc_drawable@@@Z 10007d60 f i c_button.obj
 0001:00006d60       ??$?0W4hitbox@c_cs_player@@$0A@@?$optional@W4hitbox@c_cs_player@@@std@@QAE@$$QAW4hitbox@c_cs_player@@@Z 10007d60 f i c_antiaim.obj
 0001:00006da0       ??$?0ABM@?$_Optional_construct_base@M@std@@QAE@Uin_place_t@1@ABM@Z 10007da0 f i aimbot_recode.obj
 0001:00006da0       ??$?0PAUanimation@c_animation_system@@@?$_Optional_construct_base@PAUanimation@c_animation_system@@@std@@QAE@Uin_place_t@1@$$QAPAUanimation@c_animation_system@@@Z 10007da0 f i c_animation_system.obj
 0001:00006da0       ??$?0W4hitbox@c_cs_player@@@?$_Optional_construct_base@W4hitbox@c_cs_player@@@std@@QAE@Uin_place_t@1@$$QAW4hitbox@c_cs_player@@@Z 10007da0 f i c_antiaim.obj
 0001:00006da0       ??$?0PAVc_drawable@@@?$_Optional_construct_base@PAVc_drawable@@@std@@QAE@Uin_place_t@1@$$QAPAVc_drawable@@@Z 10007da0 f i c_button.obj
 0001:00006dd0       ??$?0W4hitbox@c_cs_player@@@?$_Optional_destruct_base@W4hitbox@c_cs_player@@$00@std@@QAE@Uin_place_t@1@$$QAW4hitbox@c_cs_player@@@Z 10007dd0 f i c_antiaim.obj
 0001:00006dd0       ??$?0PAUanimation@c_animation_system@@@?$_Optional_destruct_base@PAUanimation@c_animation_system@@$00@std@@QAE@Uin_place_t@1@$$QAPAUanimation@c_animation_system@@@Z 10007dd0 f i c_animation_system.obj
 0001:00006dd0       ??$?0PAVc_drawable@@@?$_Optional_destruct_base@PAVc_drawable@@$00@std@@QAE@Uin_place_t@1@$$QAPAVc_drawable@@@Z 10007dd0 f i c_button.obj
 0001:00006dd0       ??$?0ABM@?$_Optional_destruct_base@M$00@std@@QAE@Uin_place_t@1@ABM@Z 10007dd0 f i aimbot_recode.obj
 0001:00006e00       ??$?0ABUpiecewise_construct_t@std@@V?$tuple@$$QAI@1@V?$tuple@$$V@1@@?$_List_node_emplace_op2@V?$allocator@U?$_List_node@U?$pair@$$CBIUnetvar@c_netvar@@@std@@PAX@std@@@std@@@std@@QAE@AAV?$allocator@U?$_List_node@U?$pair@$$CBIUnetvar@c_netvar@@@std@@PAX@std@@@1@ABUpiecewise_construct_t@1@$$QAV?$tuple@$$QAI@1@$$QAV?$tuple@$$V@1@@Z 10007e00 f i aimbot_recode.obj
 0001:00006ed0       ??$?0ABUpiecewise_construct_t@std@@V?$tuple@$$QAI@1@V?$tuple@$$V@1@@?$_List_node_emplace_op2@V?$allocator@U?$_List_node@U?$pair@$$CBIV?$unordered_map@IUnetvar@c_netvar@@U?$hash@I@std@@U?$equal_to@I@4@V?$allocator@U?$pair@$$CBIUnetvar@c_netvar@@@std@@@4@@std@@@std@@PAX@std@@@std@@@std@@QAE@AAV?$allocator@U?$_List_node@U?$pair@$$CBIV?$unordered_map@IUnetvar@c_netvar@@U?$hash@I@std@@U?$equal_to@I@4@V?$allocator@U?$pair@$$CBIUnetvar@c_netvar@@@std@@@4@@std@@@std@@PAX@std@@@1@ABUpiecewise_construct_t@1@$$QAV?$tuple@$$QAI@1@$$QAV?$tuple@$$V@1@@Z 10007ed0 f i aimbot_recode.obj
 0001:00006fa0       ??$?0V?$allocator@D@std@@$$V@?$_Compressed_pair@V?$allocator@D@std@@V?$_String_val@U?$_Simple_types@D@std@@@2@$00@std@@QAE@U_One_then_variadic_args_t@1@$$QAV?$allocator@D@1@@Z 10007fa0 f i aimbot_recode.obj
 0001:00006fa0       ??$?0ABV?$allocator@D@std@@$$V@?$_Compressed_pair@V?$allocator@D@std@@V?$_String_val@U?$_Simple_types@D@std@@@2@$00@std@@QAE@U_One_then_variadic_args_t@1@ABV?$allocator@D@1@@Z 10007fa0 f i aimbot_recode.obj
 0001:00006fd0       ??$?0ABV?$allocator@U?$pair@$$CBIUnetvar@c_netvar@@@std@@@std@@$$V@?$_Compressed_pair@V?$allocator@U?$_List_node@U?$pair@$$CBIUnetvar@c_netvar@@@std@@PAX@std@@@std@@V?$_List_val@U?$_List_simple_types@U?$pair@$$CBIUnetvar@c_netvar@@@std@@@std@@@2@$00@std@@QAE@U_One_then_variadic_args_t@1@ABV?$allocator@U?$pair@$$CBIUnetvar@c_netvar@@@std@@@1@@Z 10007fd0 f i aimbot_recode.obj
 0001:00006fd0       ??$?0ABV?$allocator@U?$pair@$$CBIPAVCD3DFont@@@std@@@std@@$$V@?$_Compressed_pair@V?$allocator@U?$_List_node@U?$pair@$$CBIPAVCD3DFont@@@std@@PAX@std@@@std@@V?$_List_val@U?$_List_simple_types@U?$pair@$$CBIPAVCD3DFont@@@std@@@std@@@2@$00@std@@QAE@U_One_then_variadic_args_t@1@ABV?$allocator@U?$pair@$$CBIPAVCD3DFont@@@std@@@1@@Z 10007fd0 f i c_renderer.obj
 0001:00006fd0       ??$?0ABV?$allocator@U?$pair@QAVc_hotkey_select@@V?$function@$$A6AXI@Z@std@@@std@@@std@@$$V@?$_Compressed_pair@V?$allocator@U?$_List_node@U?$pair@QAVc_hotkey_select@@V?$function@$$A6AXI@Z@std@@@std@@PAX@std@@@std@@V?$_List_val@U?$_List_simple_types@U?$pair@QAVc_hotkey_select@@V?$function@$$A6AXI@Z@std@@@std@@@std@@@2@$00@std@@QAE@U_One_then_variadic_args_t@1@ABV?$allocator@U?$pair@QAVc_hotkey_select@@V?$function@$$A6AXI@Z@std@@@std@@@1@@Z 10007fd0 f i c_hotkeys.obj
 0001:00006fd0       ??$?0ABV?$allocator@U?$pair@$$CBIUanimation_info@c_animation_system@@@std@@@std@@$$V@?$_Compressed_pair@V?$allocator@U?$_List_node@U?$pair@$$CBIUanimation_info@c_animation_system@@@std@@PAX@std@@@std@@V?$_List_val@U?$_List_simple_types@U?$pair@$$CBIUanimation_info@c_animation_system@@@std@@@std@@@2@$00@std@@QAE@U_One_then_variadic_args_t@1@ABV?$allocator@U?$pair@$$CBIUanimation_info@c_animation_system@@@std@@@1@@Z 10007fd0 f i aimbot_recode.obj
 0001:00006fd0       ??$?0ABV?$allocator@U?$pair@$$CBIVc_font@@@std@@@std@@$$V@?$_Compressed_pair@V?$allocator@U?$_List_node@U?$pair@$$CBIVc_font@@@std@@PAX@std@@@std@@V?$_List_val@U?$_List_simple_types@U?$pair@$$CBIVc_font@@@std@@@std@@@2@$00@std@@QAE@U_One_then_variadic_args_t@1@ABV?$allocator@U?$pair@$$CBIVc_font@@@std@@@1@@Z 10007fd0 f i c_renderer.obj
 0001:00006fd0       ??$?0ABV?$allocator@U?$pair@$$CBIV?$unordered_map@IUnetvar@c_netvar@@U?$hash@I@std@@U?$equal_to@I@4@V?$allocator@U?$pair@$$CBIUnetvar@c_netvar@@@std@@@4@@std@@@std@@@std@@$$V@?$_Compressed_pair@V?$allocator@U?$_List_node@U?$pair@$$CBIV?$unordered_map@IUnetvar@c_netvar@@U?$hash@I@std@@U?$equal_to@I@4@V?$allocator@U?$pair@$$CBIUnetvar@c_netvar@@@std@@@4@@std@@@std@@PAX@std@@@std@@V?$_List_val@U?$_List_simple_types@U?$pair@$$CBIV?$unordered_map@IUnetvar@c_netvar@@U?$hash@I@std@@U?$equal_to@I@4@V?$allocator@U?$pair@$$CBIUnetvar@c_netvar@@@std@@@4@@std@@@std@@@std@@@2@$00@std@@QAE@U_One_then_variadic_args_t@1@ABV?$allocator@U?$pair@$$CBIV?$unordered_map@IUnetvar@c_netvar@@U?$hash@I@std@@U?$equal_to@I@4@V?$allocator@U?$pair@$$CBIUnetvar@c_netvar@@@std@@@4@@std@@@std@@@1@@Z 10007fd0 f i c_netvar.obj
 0001:00007000       ??$?0ABV?$allocator@U?$pair@QAVc_hotkey_select@@V?$function@$$A6AXI@Z@std@@@std@@@std@@$$V@?$_Compressed_pair@V?$allocator@V?$_List_unchecked_iterator@V?$_List_val@U?$_List_simple_types@U?$pair@QAVc_hotkey_select@@V?$function@$$A6AXI@Z@std@@@std@@@std@@@std@@@std@@@std@@V?$_Vector_val@U?$_Simple_types@V?$_List_unchecked_iterator@V?$_List_val@U?$_List_simple_types@U?$pair@QAVc_hotkey_select@@V?$function@$$A6AXI@Z@std@@@std@@@std@@@std@@@std@@@std@@@2@$00@std@@QAE@U_One_then_variadic_args_t@1@ABV?$allocator@U?$pair@QAVc_hotkey_select@@V?$function@$$A6AXI@Z@std@@@std@@@1@@Z 10008000 f i c_hotkeys.obj
 0001:00007000       ??$?0ABV?$allocator@U?$pair@$$CBIUnetvar@c_netvar@@@std@@@std@@$$V@?$_Compressed_pair@V?$allocator@V?$_List_unchecked_iterator@V?$_List_val@U?$_List_simple_types@U?$pair@$$CBIUnetvar@c_netvar@@@std@@@std@@@std@@@std@@@std@@V?$_Vector_val@U?$_Simple_types@V?$_List_unchecked_iterator@V?$_List_val@U?$_List_simple_types@U?$pair@$$CBIUnetvar@c_netvar@@@std@@@std@@@std@@@std@@@std@@@2@$00@std@@QAE@U_One_then_variadic_args_t@1@ABV?$allocator@U?$pair@$$CBIUnetvar@c_netvar@@@std@@@1@@Z 10008000 f i aimbot_recode.obj
 0001:00007000       ??$?0ABV?$allocator@U?$pair@$$CBIPAVCD3DFont@@@std@@@std@@$$V@?$_Compressed_pair@V?$allocator@V?$_List_unchecked_iterator@V?$_List_val@U?$_List_simple_types@U?$pair@$$CBIPAVCD3DFont@@@std@@@std@@@std@@@std@@@std@@V?$_Vector_val@U?$_Simple_types@V?$_List_unchecked_iterator@V?$_List_val@U?$_List_simple_types@U?$pair@$$CBIPAVCD3DFont@@@std@@@std@@@std@@@std@@@std@@@2@$00@std@@QAE@U_One_then_variadic_args_t@1@ABV?$allocator@U?$pair@$$CBIPAVCD3DFont@@@std@@@1@@Z 10008000 f i c_renderer.obj
 0001:00007000       ??$?0ABV?$allocator@U?$pair@$$CBIV?$unordered_map@IUnetvar@c_netvar@@U?$hash@I@std@@U?$equal_to@I@4@V?$allocator@U?$pair@$$CBIUnetvar@c_netvar@@@std@@@4@@std@@@std@@@std@@$$V@?$_Compressed_pair@V?$allocator@V?$_List_unchecked_iterator@V?$_List_val@U?$_List_simple_types@U?$pair@$$CBIV?$unordered_map@IUnetvar@c_netvar@@U?$hash@I@std@@U?$equal_to@I@4@V?$allocator@U?$pair@$$CBIUnetvar@c_netvar@@@std@@@4@@std@@@std@@@std@@@std@@@std@@@std@@V?$_Vector_val@U?$_Simple_types@V?$_List_unchecked_iterator@V?$_List_val@U?$_List_simple_types@U?$pair@$$CBIV?$unordered_map@IUnetvar@c_netvar@@U?$hash@I@std@@U?$equal_to@I@4@V?$allocator@U?$pair@$$CBIUnetvar@c_netvar@@@std@@@4@@std@@@std@@@std@@@std@@@std@@@std@@@2@$00@std@@QAE@U_One_then_variadic_args_t@1@ABV?$allocator@U?$pair@$$CBIV?$unordered_map@IUnetvar@c_netvar@@U?$hash@I@std@@U?$equal_to@I@4@V?$allocator@U?$pair@$$CBIUnetvar@c_netvar@@@std@@@4@@std@@@std@@@1@@Z 10008000 f i c_netvar.obj
 0001:00007000       ??$?0ABV?$allocator@U?$pair@$$CBIUanimation_info@c_animation_system@@@std@@@std@@$$V@?$_Compressed_pair@V?$allocator@V?$_List_unchecked_iterator@V?$_List_val@U?$_List_simple_types@U?$pair@$$CBIUanimation_info@c_animation_system@@@std@@@std@@@std@@@std@@@std@@V?$_Vector_val@U?$_Simple_types@V?$_List_unchecked_iterator@V?$_List_val@U?$_List_simple_types@U?$pair@$$CBIUanimation_info@c_animation_system@@@std@@@std@@@std@@@std@@@std@@@2@$00@std@@QAE@U_One_then_variadic_args_t@1@ABV?$allocator@U?$pair@$$CBIUanimation_info@c_animation_system@@@std@@@1@@Z 10008000 f i aimbot_recode.obj
 0001:00007000       ??$?0ABV?$allocator@U?$pair@$$CBIVc_font@@@std@@@std@@$$V@?$_Compressed_pair@V?$allocator@V?$_List_unchecked_iterator@V?$_List_val@U?$_List_simple_types@U?$pair@$$CBIVc_font@@@std@@@std@@@std@@@std@@@std@@V?$_Vector_val@U?$_Simple_types@V?$_List_unchecked_iterator@V?$_List_val@U?$_List_simple_types@U?$pair@$$CBIVc_font@@@std@@@std@@@std@@@std@@@std@@@2@$00@std@@QAE@U_One_then_variadic_args_t@1@ABV?$allocator@U?$pair@$$CBIVc_font@@@std@@@1@@Z 10008000 f i c_renderer.obj
 0001:00007030       ??$?0ABV?$allocator@U?$pair@QAVc_hotkey_select@@V?$function@$$A6AXI@Z@std@@@std@@@std@@$0A@@?$_Hash_vec@V?$allocator@V?$_List_unchecked_iterator@V?$_List_val@U?$_List_simple_types@U?$pair@QAVc_hotkey_select@@V?$function@$$A6AXI@Z@std@@@std@@@std@@@std@@@std@@@std@@@std@@QAE@ABV?$allocator@U?$pair@QAVc_hotkey_select@@V?$function@$$A6AXI@Z@std@@@std@@@1@@Z 10008030 f i c_hotkeys.obj
 0001:00007030       ??$?0ABV?$allocator@U?$pair@$$CBIUanimation_info@c_animation_system@@@std@@@std@@$0A@@?$_Hash_vec@V?$allocator@V?$_List_unchecked_iterator@V?$_List_val@U?$_List_simple_types@U?$pair@$$CBIUanimation_info@c_animation_system@@@std@@@std@@@std@@@std@@@std@@@std@@QAE@ABV?$allocator@U?$pair@$$CBIUanimation_info@c_animation_system@@@std@@@1@@Z 10008030 f i aimbot_recode.obj
 0001:00007030       ??$?0ABV?$allocator@U?$pair@$$CBIUnetvar@c_netvar@@@std@@@std@@$0A@@?$_Hash_vec@V?$allocator@V?$_List_unchecked_iterator@V?$_List_val@U?$_List_simple_types@U?$pair@$$CBIUnetvar@c_netvar@@@std@@@std@@@std@@@std@@@std@@@std@@QAE@ABV?$allocator@U?$pair@$$CBIUnetvar@c_netvar@@@std@@@1@@Z 10008030 f i aimbot_recode.obj
 0001:00007030       ??$?0ABV?$allocator@U?$pair@$$CBIPAVCD3DFont@@@std@@@std@@$0A@@?$_Hash_vec@V?$allocator@V?$_List_unchecked_iterator@V?$_List_val@U?$_List_simple_types@U?$pair@$$CBIPAVCD3DFont@@@std@@@std@@@std@@@std@@@std@@@std@@QAE@ABV?$allocator@U?$pair@$$CBIPAVCD3DFont@@@std@@@1@@Z 10008030 f i c_renderer.obj
 0001:00007030       ??$?0ABV?$allocator@U?$pair@$$CBIV?$unordered_map@IUnetvar@c_netvar@@U?$hash@I@std@@U?$equal_to@I@4@V?$allocator@U?$pair@$$CBIUnetvar@c_netvar@@@std@@@4@@std@@@std@@@std@@$0A@@?$_Hash_vec@V?$allocator@V?$_List_unchecked_iterator@V?$_List_val@U?$_List_simple_types@U?$pair@$$CBIV?$unordered_map@IUnetvar@c_netvar@@U?$hash@I@std@@U?$equal_to@I@4@V?$allocator@U?$pair@$$CBIUnetvar@c_netvar@@@std@@@4@@std@@@std@@@std@@@std@@@std@@@std@@@std@@QAE@ABV?$allocator@U?$pair@$$CBIV?$unordered_map@IUnetvar@c_netvar@@U?$hash@I@std@@U?$equal_to@I@4@V?$allocator@U?$pair@$$CBIUnetvar@c_netvar@@@std@@@4@@std@@@std@@@1@@Z 10008030 f i c_netvar.obj
 0001:00007030       ??$?0ABV?$allocator@U?$pair@$$CBIVc_font@@@std@@@std@@$0A@@?$_Hash_vec@V?$allocator@V?$_List_unchecked_iterator@V?$_List_val@U?$_List_simple_types@U?$pair@$$CBIVc_font@@@std@@@std@@@std@@@std@@@std@@@std@@QAE@ABV?$allocator@U?$pair@$$CBIVc_font@@@std@@@1@@Z 10008030 f i c_renderer.obj
 0001:00007090       ??$?0I$$V$0A@@?$tuple@$$QAI@std@@QAE@$$QAI@Z 10008090 f i aimbot_recode.obj
 0001:00007100       ??$?0I@?$_Tuple_val@$$QAI@std@@QAE@$$QAI@Z 10008100 f i aimbot_recode.obj
 0001:00007130       ??$?0U?$pair@$$CBIUnetvar@c_netvar@@@std@@@?$allocator@U?$_List_node@U?$pair@$$CBIUnetvar@c_netvar@@@std@@PAX@std@@@std@@QAE@ABV?$allocator@U?$pair@$$CBIUnetvar@c_netvar@@@std@@@1@@Z 10008130 f i aimbot_recode.obj
 0001:00007130       ??$?0U?$pair@$$CBIUnetvar@c_netvar@@@std@@@?$allocator@V?$_List_unchecked_iterator@V?$_List_val@U?$_List_simple_types@U?$pair@$$CBIUnetvar@c_netvar@@@std@@@std@@@std@@@std@@@std@@QAE@ABV?$allocator@U?$pair@$$CBIUnetvar@c_netvar@@@std@@@1@@Z 10008130 f i aimbot_recode.obj
 0001:00007130       ??$?0U?$pair@$$CBIUanimation_info@c_animation_system@@@std@@@?$allocator@U?$_List_node@U?$pair@$$CBIUanimation_info@c_animation_system@@@std@@PAX@std@@@std@@QAE@ABV?$allocator@U?$pair@$$CBIUanimation_info@c_animation_system@@@std@@@1@@Z 10008130 f i aimbot_recode.obj
 0001:00007130       ??0?$tuple@$$V@std@@QAE@ABV01@@Z 10008130 f i aimbot_recode.obj
 0001:00007130       ??$?0Uanimation@c_animation_system@@@?$allocator@PAUanimation@c_animation_system@@@std@@QAE@ABV?$allocator@Uanimation@c_animation_system@@@1@@Z 10008130 f i aimbot_recode.obj
 0001:00007130       ??$?0U?$pair@$$CBIPAVCD3DFont@@@std@@@?$allocator@V?$_List_unchecked_iterator@V?$_List_val@U?$_List_simple_types@U?$pair@$$CBIPAVCD3DFont@@@std@@@std@@@std@@@std@@@std@@QAE@ABV?$allocator@U?$pair@$$CBIPAVCD3DFont@@@std@@@1@@Z 10008130 f i c_renderer.obj
 0001:00007130       ??$?0U?$pair@$$CBIV?$unordered_map@IUnetvar@c_netvar@@U?$hash@I@std@@U?$equal_to@I@4@V?$allocator@U?$pair@$$CBIUnetvar@c_netvar@@@std@@@4@@std@@@std@@@?$allocator@U?$_List_node@U?$pair@$$CBIV?$unordered_map@IUnetvar@c_netvar@@U?$hash@I@std@@U?$equal_to@I@4@V?$allocator@U?$pair@$$CBIUnetvar@c_netvar@@@std@@@4@@std@@@std@@PAX@std@@@std@@QAE@ABV?$allocator@U?$pair@$$CBIV?$unordered_map@IUnetvar@c_netvar@@U?$hash@I@std@@U?$equal_to@I@4@V?$allocator@U?$pair@$$CBIUnetvar@c_netvar@@@std@@@4@@std@@@std@@@1@@Z 10008130 f i c_netvar.obj
 0001:00007130       ??$?0U?$pair@$$CBIPAVCD3DFont@@@std@@@?$allocator@U?$_List_node@U?$pair@$$CBIPAVCD3DFont@@@std@@PAX@std@@@std@@QAE@ABV?$allocator@U?$pair@$$CBIPAVCD3DFont@@@std@@@1@@Z 10008130 f i c_renderer.obj
 0001:00007130       ??$?0UCIncomingSequence@@@?$allocator@U_Container_proxy@std@@@std@@QAE@ABV?$allocator@UCIncomingSequence@@@1@@Z 10008130 f i c_fake_ping.obj
 0001:00007130       ??$?0U?$pair@$$CBIVc_font@@@std@@@?$allocator@U?$_List_node@U?$pair@$$CBIVc_font@@@std@@PAX@std@@@std@@QAE@ABV?$allocator@U?$pair@$$CBIVc_font@@@std@@@1@@Z 10008130 f i c_renderer.obj
 0001:00007130       ??$?0U_Exact_args_t@std@@$0A@@?$tuple@$$V@std@@QAE@U_Exact_args_t@1@@Z 10008130 f i aimbot_recode.obj
 0001:00007130       ??$?0UCIncomingSequence@@@?$allocator@PAUCIncomingSequence@@@std@@QAE@ABV?$allocator@UCIncomingSequence@@@1@@Z 10008130 f i c_fake_ping.obj
 0001:00007130       ??$?0U?$pair@$$CBIVc_font@@@std@@@?$allocator@V?$_List_unchecked_iterator@V?$_List_val@U?$_List_simple_types@U?$pair@$$CBIVc_font@@@std@@@std@@@std@@@std@@@std@@QAE@ABV?$allocator@U?$pair@$$CBIVc_font@@@std@@@1@@Z 10008130 f i c_renderer.obj
 0001:00007130       ??$?0U?$pair@QAVc_hotkey_select@@V?$function@$$A6AXI@Z@std@@@std@@@?$allocator@V?$_List_unchecked_iterator@V?$_List_val@U?$_List_simple_types@U?$pair@QAVc_hotkey_select@@V?$function@$$A6AXI@Z@std@@@std@@@std@@@std@@@std@@@std@@QAE@ABV?$allocator@U?$pair@QAVc_hotkey_select@@V?$function@$$A6AXI@Z@std@@@std@@@1@@Z 10008130 f i c_hotkeys.obj
 0001:00007130       ??$?0Ushot@resolver@@@?$allocator@PAUshot@resolver@@@std@@QAE@ABV?$allocator@Ushot@resolver@@@1@@Z 10008130 f i aimbot_recode.obj
 0001:00007130       ??$?0Uanimation@c_animation_system@@@?$allocator@U_Container_proxy@std@@@std@@QAE@ABV?$allocator@Uanimation@c_animation_system@@@1@@Z 10008130 f i aimbot_recode.obj
 0001:00007130       ??$?0U?$pair@$$CBIUanimation_info@c_animation_system@@@std@@@?$allocator@V?$_List_unchecked_iterator@V?$_List_val@U?$_List_simple_types@U?$pair@$$CBIUanimation_info@c_animation_system@@@std@@@std@@@std@@@std@@@std@@QAE@ABV?$allocator@U?$pair@$$CBIUanimation_info@c_animation_system@@@std@@@1@@Z 10008130 f i aimbot_recode.obj
 0001:00007130       ??$?0U?$pair@$$CBIV?$unordered_map@IUnetvar@c_netvar@@U?$hash@I@std@@U?$equal_to@I@4@V?$allocator@U?$pair@$$CBIUnetvar@c_netvar@@@std@@@4@@std@@@std@@@?$allocator@V?$_List_unchecked_iterator@V?$_List_val@U?$_List_simple_types@U?$pair@$$CBIV?$unordered_map@IUnetvar@c_netvar@@U?$hash@I@std@@U?$equal_to@I@4@V?$allocator@U?$pair@$$CBIUnetvar@c_netvar@@@std@@@4@@std@@@std@@@std@@@std@@@std@@@std@@QAE@ABV?$allocator@U?$pair@$$CBIV?$unordered_map@IUnetvar@c_netvar@@U?$hash@I@std@@U?$equal_to@I@4@V?$allocator@U?$pair@$$CBIUnetvar@c_netvar@@@std@@@4@@std@@@std@@@1@@Z 10008130 f i c_netvar.obj
 0001:00007130       ??$?0U?$pair@QAVc_hotkey_select@@V?$function@$$A6AXI@Z@std@@@std@@@?$allocator@U?$_List_node@U?$pair@QAVc_hotkey_select@@V?$function@$$A6AXI@Z@std@@@std@@PAX@std@@@std@@QAE@ABV?$allocator@U?$pair@QAVc_hotkey_select@@V?$function@$$A6AXI@Z@std@@@std@@@1@@Z 10008130 f i c_hotkeys.obj
 0001:00007130       ??$?0Ushot@resolver@@@?$allocator@U_Container_proxy@std@@@std@@QAE@ABV?$allocator@Ushot@resolver@@@1@@Z 10008130 f i aimbot_recode.obj
 0001:00007140       ??$?0U_Exact_args_t@std@@I$$V$0A@@?$tuple@$$QAI@std@@QAE@U_Exact_args_t@1@$$QAI@Z 10008140 f i aimbot_recode.obj
 0001:00007180       ??$?0U_Zero_then_variadic_args_t@std@@M@?$_Compressed_pair@U?$hash@PAVc_hotkey_select@@@std@@V?$_Compressed_pair@U?$equal_to@PAVc_hotkey_select@@@std@@M$00@2@$00@std@@QAE@U_Zero_then_variadic_args_t@1@$$QAU21@$$QAM@Z 10008180 f i c_hotkeys.obj
 0001:00007180       ??$?0U_Zero_then_variadic_args_t@std@@M@?$_Compressed_pair@U?$hash@I@std@@V?$_Compressed_pair@U?$equal_to@I@std@@M$00@2@$00@std@@QAE@U_Zero_then_variadic_args_t@1@$$QAU21@$$QAM@Z 10008180 f i aimbot_recode.obj
 0001:000071d0       ??$?0V?$allocator@H@std@@$$V@?$_Compressed_pair@V?$allocator@H@std@@V?$_Vector_val@U?$_Simple_types@H@std@@@2@$00@std@@QAE@U_One_then_variadic_args_t@1@$$QAV?$allocator@H@1@@Z 100081d0 f i aimbot_recode.obj
 0001:000071d0       ??$?0ABV?$allocator@V?$basic_json@Vmap@std@@Vvector@2@V?$basic_string@DU?$char_traits@D@std@@V?$allocator@D@2@@2@_N_J_KNVallocator@2@Uadl_serializer@nlohmann@@@nlohmann@@@std@@$$V@?$_Compressed_pair@V?$allocator@V?$basic_json@Vmap@std@@Vvector@2@V?$basic_string@DU?$char_traits@D@std@@V?$allocator@D@2@@2@_N_J_KNVallocator@2@Uadl_serializer@nlohmann@@@nlohmann@@@std@@V?$_Vector_val@U?$_Simple_types@V?$basic_json@Vmap@std@@Vvector@2@V?$basic_string@DU?$char_traits@D@std@@V?$allocator@D@2@@2@_N_J_KNVallocator@2@Uadl_serializer@nlohmann@@@nlohmann@@@std@@@2@$00@std@@QAE@U_One_then_variadic_args_t@1@ABV?$allocator@V?$basic_json@Vmap@std@@Vvector@2@V?$basic_string@DU?$char_traits@D@std@@V?$allocator@D@2@@2@_N_J_KNVallocator@2@Uadl_serializer@nlohmann@@@nlohmann@@@1@@Z 100081d0 f i c_menu.obj
 0001:000071d0       ??$?0ABV?$allocator@U?$pair@V?$shared_ptr@Vc_drawable@@@std@@U?$pair@Vc_vector2d@@V1@@2@@std@@@std@@$$V@?$_Compressed_pair@V?$allocator@U?$pair@V?$shared_ptr@Vc_drawable@@@std@@U?$pair@Vc_vector2d@@V1@@2@@std@@@std@@V?$_Vector_val@U?$_Simple_types@U?$pair@V?$shared_ptr@Vc_drawable@@@std@@U?$pair@Vc_vector2d@@V1@@2@@std@@@std@@@2@$00@std@@QAE@U_One_then_variadic_args_t@1@ABV?$allocator@U?$pair@V?$shared_ptr@Vc_drawable@@@std@@U?$pair@Vc_vector2d@@V1@@2@@std@@@1@@Z 100081d0 f i c_checkbox.obj
 0001:000071d0       ??$?0ABV?$allocator@H@std@@$$V@?$_Compressed_pair@V?$allocator@H@std@@V?$_Vector_val@U?$_Simple_types@H@std@@@2@$00@std@@QAE@U_One_then_variadic_args_t@1@ABV?$allocator@H@1@@Z 100081d0 f i grenade_prediction.obj
 0001:000071d0       ??$?0V?$allocator@M@std@@$$V@?$_Compressed_pair@V?$allocator@M@std@@V?$_Vector_val@U?$_Simple_types@M@std@@@2@$00@std@@QAE@U_One_then_variadic_args_t@1@$$QAV?$allocator@M@1@@Z 100081d0 f i c_font.obj
 0001:000071d0       ??$?0V?$allocator@W4hitbox@c_cs_player@@@std@@$$V@?$_Compressed_pair@V?$allocator@W4hitbox@c_cs_player@@@std@@V?$_Vector_val@U?$_Simple_types@W4hitbox@c_cs_player@@@std@@@2@$00@std@@QAE@U_One_then_variadic_args_t@1@$$QAV?$allocator@W4hitbox@c_cs_player@@@1@@Z 100081d0 f i c_legitbot_beta.obj
 0001:000071d0       ??$?0V?$allocator@Vc_vector3d@@@std@@$$V@?$_Compressed_pair@V?$allocator@Vc_vector3d@@@std@@V?$_Vector_val@U?$_Simple_types@Vc_vector3d@@@std@@@2@$00@std@@QAE@U_One_then_variadic_args_t@1@$$QAV?$allocator@Vc_vector3d@@@1@@Z 100081d0 f i c_resolver.obj
 0001:000071d0       ??$?0V?$allocator@V?$basic_string@DU?$char_traits@D@std@@V?$allocator@D@2@@std@@@std@@$$V@?$_Compressed_pair@V?$allocator@V?$basic_string@DU?$char_traits@D@std@@V?$allocator@D@2@@std@@@std@@V?$_Vector_val@U?$_Simple_types@V?$basic_string@DU?$char_traits@D@std@@V?$allocator@D@2@@std@@@std@@@2@$00@std@@QAE@U_One_then_variadic_args_t@1@$$QAV?$allocator@V?$basic_string@DU?$char_traits@D@std@@V?$allocator@D@2@@std@@@1@@Z 100081d0 f i ImConsole.obj
 0001:000071d0       ??$?0V?$allocator@V?$vector@MV?$allocator@M@std@@@std@@@std@@$$V@?$_Compressed_pair@V?$allocator@V?$vector@MV?$allocator@M@std@@@std@@@std@@V?$_Vector_val@U?$_Simple_types@V?$vector@MV?$allocator@M@std@@@std@@@std@@@2@$00@std@@QAE@U_One_then_variadic_args_t@1@$$QAV?$allocator@V?$vector@MV?$allocator@M@std@@@std@@@1@@Z 100081d0 f i c_renderer.obj
 0001:000071d0       ??$?0V?$allocator@PAUanimation@c_animation_system@@@std@@$$V@?$_Compressed_pair@V?$allocator@PAUanimation@c_animation_system@@@std@@V?$_Vector_val@U?$_Simple_types@PAUanimation@c_animation_system@@@std@@@2@$00@std@@QAE@U_One_then_variadic_args_t@1@$$QAV?$allocator@PAUanimation@c_animation_system@@@1@@Z 100081d0 f i c_aimhelper.obj
 0001:000071d0       ??$?0ABV?$allocator@V?$basic_string@DU?$char_traits@D@std@@V?$allocator@D@2@@std@@@std@@$$V@?$_Compressed_pair@V?$allocator@V?$basic_string@DU?$char_traits@D@std@@V?$allocator@D@2@@std@@@std@@V?$_Vector_val@U?$_Simple_types@V?$basic_string@DU?$char_traits@D@std@@V?$allocator@D@2@@std@@@std@@@2@$00@std@@QAE@U_One_then_variadic_args_t@1@ABV?$allocator@V?$basic_string@DU?$char_traits@D@std@@V?$allocator@D@2@@std@@@1@@Z 100081d0 f i c_miscellaneous.obj
 0001:000071d0       ??$?0V?$allocator@V?$basic_json@Vmap@std@@Vvector@2@V?$basic_string@DU?$char_traits@D@std@@V?$allocator@D@2@@2@_N_J_KNVallocator@2@Uadl_serializer@nlohmann@@@nlohmann@@@std@@$$V@?$_Compressed_pair@V?$allocator@V?$basic_json@Vmap@std@@Vvector@2@V?$basic_string@DU?$char_traits@D@std@@V?$allocator@D@2@@2@_N_J_KNVallocator@2@Uadl_serializer@nlohmann@@@nlohmann@@@std@@V?$_Vector_val@U?$_Simple_types@V?$basic_json@Vmap@std@@Vvector@2@V?$basic_string@DU?$char_traits@D@std@@V?$allocator@D@2@@2@_N_J_KNVallocator@2@Uadl_serializer@nlohmann@@@nlohmann@@@std@@@2@$00@std@@QAE@U_One_then_variadic_args_t@1@$$QAV?$allocator@V?$basic_json@Vmap@std@@Vvector@2@V?$basic_string@DU?$char_traits@D@std@@V?$allocator@D@2@@2@_N_J_KNVallocator@2@Uadl_serializer@nlohmann@@@nlohmann@@@1@@Z 100081d0 f i c_menu.obj
 0001:000071d0       ??$?0ABV?$allocator@PAUanimation@c_animation_system@@@std@@$$V@?$_Compressed_pair@V?$allocator@PAUanimation@c_animation_system@@@std@@V?$_Vector_val@U?$_Simple_types@PAUanimation@c_animation_system@@@std@@@2@$00@std@@QAE@U_One_then_variadic_args_t@1@ABV?$allocator@PAUanimation@c_animation_system@@@1@@Z 100081d0 f i c_aimhelper.obj
 0001:000071d0       ??$?0V?$allocator@Uaim_info@c_aimhelper@@@std@@$$V@?$_Compressed_pair@V?$allocator@Uaim_info@c_aimhelper@@@std@@V?$_Vector_val@U?$_Simple_types@Uaim_info@c_aimhelper@@@std@@@2@$00@std@@QAE@U_One_then_variadic_args_t@1@$$QAV?$allocator@Uaim_info@c_aimhelper@@@1@@Z 100081d0 f i c_aimhelper.obj
 0001:00007200       ??$?0V?$tuple@$$QAI@std@@V?$tuple@$$V@1@$0A@$$Z$S@?$pair@$$CBIUnetvar@c_netvar@@@std@@QAE@AAV?$tuple@$$QAI@1@AAV?$tuple@$$V@1@U?$integer_sequence@I$0A@@1@U?$integer_sequence@I$S@1@@Z 10008200 f i aimbot_recode.obj
 0001:00007240       ??$?0V?$tuple@$$QAI@std@@V?$tuple@$$V@1@$0A@$$Z$S@?$pair@$$CBIV?$unordered_map@IUnetvar@c_netvar@@U?$hash@I@std@@U?$equal_to@I@4@V?$allocator@U?$pair@$$CBIUnetvar@c_netvar@@@std@@@4@@std@@@std@@QAE@AAV?$tuple@$$QAI@1@AAV?$tuple@$$V@1@U?$integer_sequence@I$0A@@1@U?$integer_sequence@I$S@1@@Z 10008240 f i aimbot_recode.obj
 0001:00007280       ??$?RABMABM@?$less@X@std@@QBE_NABM0@Z 10008280 f i aimbot_recode.obj
 0001:000072c0       ??$?RPAVc_hotkey_select@@@?$_Uhash_compare@PAVc_hotkey_select@@U?$hash@PAVc_hotkey_select@@@std@@U?$equal_to@PAVc_hotkey_select@@@3@@std@@QBEIABQAVc_hotkey_select@@@Z 100082c0 f i c_hotkeys.obj
 0001:000072c0       ??$?RI@?$_Uhash_compare@IU?$hash@I@std@@U?$equal_to@I@2@@std@@QBEIABI@Z 100082c0 f i aimbot_recode.obj
 0001:000072f0       ??$?RII@?$_Uhash_compare@IU?$hash@I@std@@U?$equal_to@I@2@@std@@QBE_NABI0@Z 100082f0 f i aimbot_recode.obj
 0001:00007340       ??$_Alloc_proxy@V?$allocator@U_Container_proxy@std@@@std@@@_Container_base12@std@@QAEX$$QAV?$allocator@U_Container_proxy@std@@@1@@Z 10008340 f i aimbot_recode.obj
 0001:00007390       ??$_Allocate@$0BA@U_Default_allocate_traits@std@@$0A@@std@@YAPAXI@Z 10008390 f i aimbot_recode.obj
 0001:000073f0       ??$_Construct_in_place@U_Container_proxy@std@@PAU_Container_base12@2@@std@@YAXAAU_Container_proxy@0@$$QAPAU_Container_base12@0@@Z 100083f0 f i aimbot_recode.obj
 0001:00007440       ??$_Construct_in_place@V?$_List_unchecked_iterator@V?$_List_val@U?$_List_simple_types@U?$pair@$$CBIVc_font@@@std@@@std@@@std@@@std@@ABV12@@std@@YAXAAV?$_List_unchecked_iterator@V?$_List_val@U?$_List_simple_types@U?$pair@$$CBIVc_font@@@std@@@std@@@std@@@0@ABV10@@Z 10008440 f i c_renderer.obj
 0001:00007440       ??$_Construct_in_place@V?$_List_unchecked_iterator@V?$_List_val@U?$_List_simple_types@U?$pair@$$CBIUanimation_info@c_animation_system@@@std@@@std@@@std@@@std@@ABV12@@std@@YAXAAV?$_List_unchecked_iterator@V?$_List_val@U?$_List_simple_types@U?$pair@$$CBIUanimation_info@c_animation_system@@@std@@@std@@@std@@@0@ABV10@@Z 10008440 f i aimbot_recode.obj
 0001:00007440       ??$_Construct_in_place@V?$_List_unchecked_iterator@V?$_List_val@U?$_List_simple_types@U?$pair@$$CBIPAVCD3DFont@@@std@@@std@@@std@@@std@@ABV12@@std@@YAXAAV?$_List_unchecked_iterator@V?$_List_val@U?$_List_simple_types@U?$pair@$$CBIPAVCD3DFont@@@std@@@std@@@std@@@0@ABV10@@Z 10008440 f i c_renderer.obj
 0001:00007440       ??$_Construct_in_place@V?$_List_unchecked_iterator@V?$_List_val@U?$_List_simple_types@U?$pair@QAVc_hotkey_select@@V?$function@$$A6AXI@Z@std@@@std@@@std@@@std@@@std@@ABV12@@std@@YAXAAV?$_List_unchecked_iterator@V?$_List_val@U?$_List_simple_types@U?$pair@QAVc_hotkey_select@@V?$function@$$A6AXI@Z@std@@@std@@@std@@@std@@@0@ABV10@@Z 10008440 f i c_hotkeys.obj
 0001:00007440       ??$_Construct_in_place@V?$_List_unchecked_iterator@V?$_List_val@U?$_List_simple_types@U?$pair@$$CBIV?$unordered_map@IUnetvar@c_netvar@@U?$hash@I@std@@U?$equal_to@I@4@V?$allocator@U?$pair@$$CBIUnetvar@c_netvar@@@std@@@4@@std@@@std@@@std@@@std@@@std@@ABV12@@std@@YAXAAV?$_List_unchecked_iterator@V?$_List_val@U?$_List_simple_types@U?$pair@$$CBIV?$unordered_map@IUnetvar@c_netvar@@U?$hash@I@std@@U?$equal_to@I@4@V?$allocator@U?$pair@$$CBIUnetvar@c_netvar@@@std@@@4@@std@@@std@@@std@@@std@@@0@ABV10@@Z 10008440 f i aimbot_recode.obj
 0001:00007440       ??$_Construct_in_place@V?$_List_unchecked_iterator@V?$_List_val@U?$_List_simple_types@U?$pair@$$CBIUnetvar@c_netvar@@@std@@@std@@@std@@@std@@ABV12@@std@@YAXAAV?$_List_unchecked_iterator@V?$_List_val@U?$_List_simple_types@U?$pair@$$CBIUnetvar@c_netvar@@@std@@@std@@@std@@@0@ABV10@@Z 10008440 f i aimbot_recode.obj
 0001:00007480       ??$_Copy_memmove@PAPAUshot@resolver@@PAPAU12@@std@@YAPAPAUshot@resolver@@PAPAU12@00@Z 10008480 f i c_resolver.obj
 0001:00007480       ??$_Copy_memmove@PAUhitmarker_info@@PAU1@@std@@YAPAUhitmarker_info@@PAU1@00@Z 10008480 f i c_hitmarker.obj
 0001:00007480       ??$_Copy_memmove@PAW4hitbox@c_cs_player@@PAW412@@std@@YAPAW4hitbox@c_cs_player@@PAW412@00@Z 10008480 f i aimbot_recode.obj
 0001:00007480       ??$_Copy_memmove@PADPAD@std@@YAPADPAD00@Z 10008480 f i c_menu.obj
 0001:00007480       ??$_Copy_memmove@PAPAVLua_Hook@@PAPAV1@@std@@YAPAPAVLua_Hook@@PAPAV1@00@Z 10008480 f i LuaAPI.obj
 0001:00007480       ??$_Copy_memmove@PAUimpact_info@@PAU1@@std@@YAPAUimpact_info@@PAU1@00@Z 10008480 f i c_hitmarker.obj
 0001:00007480       ??$_Copy_memmove@PBQAUanimation@c_animation_system@@PAPAU12@@std@@YAPAPAUanimation@c_animation_system@@PBQAU12@0PAPAU12@@Z 10008480 f i c_aimhelper.obj
 0001:00007480       ??$_Copy_memmove@PAPAUanimation@c_animation_system@@PAPAU12@@std@@YAPAPAUanimation@c_animation_system@@PAPAU12@00@Z 10008480 f i c_animation_system.obj
 0001:00007480       ??$_Copy_memmove@PAMPAM@std@@YAPAMPAM00@Z 10008480 f i c_font.obj
 0001:00007480       ??$_Copy_memmove@PAPAUCIncomingSequence@@PAPAU1@@std@@YAPAPAUCIncomingSequence@@PAPAU1@00@Z 10008480 f i c_net_channel_.obj
 0001:00007480       ??$_Copy_memmove@PAHPAH@std@@YAPAHPAH00@Z 10008480 f i aimbot_recode.obj
 0001:00007480       ??$_Copy_memmove@PBHPAH@std@@YAPAHPBH0PAH@Z 10008480 f i grenade_prediction.obj
 0001:000074c0       ??$_Deallocate@$0BA@$0A@@std@@YAXPAXI@Z 100084c0 f i aimbot_recode.obj
 0001:00007510       ??$_Deallocate_plain@V?$allocator@U_Container_proxy@std@@@std@@@std@@YAXAAV?$allocator@U_Container_proxy@std@@@0@QAU_Container_proxy@0@@Z 10008510 f i aimbot_recode.obj
 0001:00007560       ??$_Delete_plain_internal@V?$allocator@U_Container_proxy@std@@@std@@@std@@YAXAAV?$allocator@U_Container_proxy@std@@@0@QAU_Container_proxy@0@@Z 10008560 f i aimbot_recode.obj
 0001:00007580       ??$_Emplace_back@ABV?$_List_unchecked_iterator@V?$_List_val@U?$_List_simple_types@U?$pair@$$CBIPAVCD3DFont@@@std@@@std@@@std@@@std@@@?$_Uninitialized_backout@PAV?$_List_unchecked_iterator@V?$_List_val@U?$_List_simple_types@U?$pair@$$CBIPAVCD3DFont@@@std@@@std@@@std@@@std@@@std@@QAEXABV?$_List_unchecked_iterator@V?$_List_val@U?$_List_simple_types@U?$pair@$$CBIPAVCD3DFont@@@std@@@std@@@std@@@1@@Z 10008580 f i c_renderer.obj
 0001:00007580       ??$_Emplace_back@ABV?$_List_unchecked_iterator@V?$_List_val@U?$_List_simple_types@U?$pair@$$CBIV?$unordered_map@IUnetvar@c_netvar@@U?$hash@I@std@@U?$equal_to@I@4@V?$allocator@U?$pair@$$CBIUnetvar@c_netvar@@@std@@@4@@std@@@std@@@std@@@std@@@std@@@?$_Uninitialized_backout@PAV?$_List_unchecked_iterator@V?$_List_val@U?$_List_simple_types@U?$pair@$$CBIV?$unordered_map@IUnetvar@c_netvar@@U?$hash@I@std@@U?$equal_to@I@4@V?$allocator@U?$pair@$$CBIUnetvar@c_netvar@@@std@@@4@@std@@@std@@@std@@@std@@@std@@@std@@QAEXABV?$_List_unchecked_iterator@V?$_List_val@U?$_List_simple_types@U?$pair@$$CBIV?$unordered_map@IUnetvar@c_netvar@@U?$hash@I@std@@U?$equal_to@I@4@V?$allocator@U?$pair@$$CBIUnetvar@c_netvar@@@std@@@4@@std@@@std@@@std@@@std@@@1@@Z 10008580 f i aimbot_recode.obj
 0001:00007580       ??$_Emplace_back@ABV?$_List_unchecked_iterator@V?$_List_val@U?$_List_simple_types@U?$pair@$$CBIUnetvar@c_netvar@@@std@@@std@@@std@@@std@@@?$_Uninitialized_backout@PAV?$_List_unchecked_iterator@V?$_List_val@U?$_List_simple_types@U?$pair@$$CBIUnetvar@c_netvar@@@std@@@std@@@std@@@std@@@std@@QAEXABV?$_List_unchecked_iterator@V?$_List_val@U?$_List_simple_types@U?$pair@$$CBIUnetvar@c_netvar@@@std@@@std@@@std@@@1@@Z 10008580 f i aimbot_recode.obj
 0001:00007580       ??$_Emplace_back@ABV?$_List_unchecked_iterator@V?$_List_val@U?$_List_simple_types@U?$pair@$$CBIVc_font@@@std@@@std@@@std@@@std@@@?$_Uninitialized_backout@PAV?$_List_unchecked_iterator@V?$_List_val@U?$_List_simple_types@U?$pair@$$CBIVc_font@@@std@@@std@@@std@@@std@@@std@@QAEXABV?$_List_unchecked_iterator@V?$_List_val@U?$_List_simple_types@U?$pair@$$CBIVc_font@@@std@@@std@@@std@@@1@@Z 10008580 f i c_renderer.obj
 0001:00007580       ??$_Emplace_back@ABV?$_List_unchecked_iterator@V?$_List_val@U?$_List_simple_types@U?$pair@$$CBIUanimation_info@c_animation_system@@@std@@@std@@@std@@@std@@@?$_Uninitialized_backout@PAV?$_List_unchecked_iterator@V?$_List_val@U?$_List_simple_types@U?$pair@$$CBIUanimation_info@c_animation_system@@@std@@@std@@@std@@@std@@@std@@QAEXABV?$_List_unchecked_iterator@V?$_List_val@U?$_List_simple_types@U?$pair@$$CBIUanimation_info@c_animation_system@@@std@@@std@@@std@@@1@@Z 10008580 f i aimbot_recode.obj
 0001:00007580       ??$_Emplace_back@ABV?$_List_unchecked_iterator@V?$_List_val@U?$_List_simple_types@U?$pair@QAVc_hotkey_select@@V?$function@$$A6AXI@Z@std@@@std@@@std@@@std@@@std@@@?$_Uninitialized_backout@PAV?$_List_unchecked_iterator@V?$_List_val@U?$_List_simple_types@U?$pair@QAVc_hotkey_select@@V?$function@$$A6AXI@Z@std@@@std@@@std@@@std@@@std@@@std@@QAEXABV?$_List_unchecked_iterator@V?$_List_val@U?$_List_simple_types@U?$pair@QAVc_hotkey_select@@V?$function@$$A6AXI@Z@std@@@std@@@std@@@std@@@1@@Z 10008580 f i c_hotkeys.obj
 0001:000075d0       ??$_Emplace_back@Vc_vector3d@@@?$_Uninitialized_backout_al@V?$allocator@Vc_vector3d@@@std@@@std@@QAEX$$QAVc_vector3d@@@Z 100085d0 f i aimbot_recode.obj
 0001:00007630       ??$_Emplace_back_with_unused_capacity@H@?$vector@HV?$allocator@H@std@@@std@@AAEAAH$$QAH@Z 10008630 f i aimbot_recode.obj
 0001:00007630       ??$_Emplace_back_with_unused_capacity@PAUanimation@c_animation_system@@@?$vector@PAUanimation@c_animation_system@@V?$allocator@PAUanimation@c_animation_system@@@std@@@std@@AAEAAPAUanimation@c_animation_system@@$$QAPAU23@@Z 10008630 f i c_animation_system.obj
 0001:00007630       ??$_Emplace_back_with_unused_capacity@PAVLua_Hook@@@?$vector@PAVLua_Hook@@V?$allocator@PAVLua_Hook@@@std@@@std@@AAEAAPAVLua_Hook@@$$QAPAV2@@Z 10008630 f i LuaAPI.obj
 0001:00007630       ??$_Emplace_back_with_unused_capacity@W4hitbox@c_cs_player@@@?$vector@W4hitbox@c_cs_player@@V?$allocator@W4hitbox@c_cs_player@@@std@@@std@@AAEAAW4hitbox@c_cs_player@@$$QAW423@@Z 10008630 f i aimbot_recode.obj
 0001:000076c0       ??$_Emplace_reallocate@PAUanimation@c_animation_system@@@?$vector@PAUanimation@c_animation_system@@V?$allocator@PAUanimation@c_animation_system@@@std@@@std@@QAEPAPAUanimation@c_animation_system@@QAPAU23@$$QAPAU23@@Z 100086c0 f i c_animation_system.obj
 0001:000076c0       ??$_Emplace_reallocate@PAVLua_Hook@@@?$vector@PAVLua_Hook@@V?$allocator@PAVLua_Hook@@@std@@@std@@QAEPAPAVLua_Hook@@QAPAV2@$$QAPAV2@@Z 100086c0 f i LuaAPI.obj
 0001:000076c0       ??$_Emplace_reallocate@H@?$vector@HV?$allocator@H@std@@@std@@QAEPAHQAH$$QAH@Z 100086c0 f i aimbot_recode.obj
 0001:000076c0       ??$_Emplace_reallocate@W4hitbox@c_cs_player@@@?$vector@W4hitbox@c_cs_player@@V?$allocator@W4hitbox@c_cs_player@@@std@@@std@@QAEPAW4hitbox@c_cs_player@@QAW423@$$QAW423@@Z 100086c0 f i aimbot_recode.obj
 0001:000078a0       ??$_Find_last@I@?$_Hash@V?$_Umap_traits@IUnetvar@c_netvar@@V?$_Uhash_compare@IU?$hash@I@std@@U?$equal_to@I@2@@std@@V?$allocator@U?$pair@$$CBIUnetvar@c_netvar@@@std@@@4@$0A@@std@@@std@@IBE?AU?$_Hash_find_last_result@PAU?$_List_node@U?$pair@$$CBIUnetvar@c_netvar@@@std@@PAX@std@@@1@ABII@Z 100088a0 f i aimbot_recode.obj
 0001:000078a0       ??$_Find_last@I@?$_Hash@V?$_Umap_traits@IVc_font@@V?$_Uhash_compare@IU?$hash@I@std@@U?$equal_to@I@2@@std@@V?$allocator@U?$pair@$$CBIVc_font@@@std@@@3@$0A@@std@@@std@@IBE?AU?$_Hash_find_last_result@PAU?$_List_node@U?$pair@$$CBIVc_font@@@std@@PAX@std@@@1@ABII@Z 100088a0 f i c_renderer.obj
 0001:000078a0       ??$_Find_last@I@?$_Hash@V?$_Umap_traits@IV?$unordered_map@IUnetvar@c_netvar@@U?$hash@I@std@@U?$equal_to@I@4@V?$allocator@U?$pair@$$CBIUnetvar@c_netvar@@@std@@@4@@std@@V?$_Uhash_compare@IU?$hash@I@std@@U?$equal_to@I@2@@2@V?$allocator@U?$pair@$$CBIV?$unordered_map@IUnetvar@c_netvar@@U?$hash@I@std@@U?$equal_to@I@4@V?$allocator@U?$pair@$$CBIUnetvar@c_netvar@@@std@@@4@@std@@@std@@@2@$0A@@std@@@std@@IBE?AU?$_Hash_find_last_result@PAU?$_List_node@U?$pair@$$CBIV?$unordered_map@IUnetvar@c_netvar@@U?$hash@I@std@@U?$equal_to@I@4@V?$allocator@U?$pair@$$CBIUnetvar@c_netvar@@@std@@@4@@std@@@std@@PAX@std@@@1@ABII@Z 100088a0 f i aimbot_recode.obj
 0001:00007980       ??$_Fnv1a_append_value@I@std@@YAIIABI@Z 10008980 f i aimbot_recode.obj
 0001:00007980       ??$_Fnv1a_append_value@PAVc_hotkey_select@@@std@@YAIIABQAVc_hotkey_select@@@Z 10008980 f i c_hotkeys.obj
 0001:000079a0       ??$_Free_non_head@V?$allocator@U?$_List_node@U?$pair@$$CBIUanimation_info@c_animation_system@@@std@@PAX@std@@@std@@@?$_List_node@U?$pair@$$CBIUanimation_info@c_animation_system@@@std@@PAX@std@@SAXAAV?$allocator@U?$_List_node@U?$pair@$$CBIUanimation_info@c_animation_system@@@std@@PAX@std@@@1@PAU01@@Z 100089a0 f i aimbot_recode.obj
 0001:000079f0       ??$_Freenode0@V?$allocator@U?$_List_node@U?$pair@$$CBIUanimation_info@c_animation_system@@@std@@PAX@std@@@std@@@?$_List_node@U?$pair@$$CBIUanimation_info@c_animation_system@@@std@@PAX@std@@SAXAAV?$allocator@U?$_List_node@U?$pair@$$CBIUanimation_info@c_animation_system@@@std@@PAX@std@@@1@PAU01@@Z 100089f0 f i aimbot_recode.obj
 0001:00007a50       ??$_Freenode@V?$allocator@U?$_List_node@U?$pair@$$CBIUanimation_info@c_animation_system@@@std@@PAX@std@@@std@@@?$_List_node@U?$pair@$$CBIUanimation_info@c_animation_system@@@std@@PAX@std@@SAXAAV?$allocator@U?$_List_node@U?$pair@$$CBIUanimation_info@c_animation_system@@@std@@PAX@std@@@1@PAU01@@Z 10008a50 f i aimbot_recode.obj
 0001:00007ab0       ??$_Get_size_of_n@$03@std@@YAII@Z 10008ab0 f i aimbot_recode.obj
 0001:00007ae0       ??$_Get_size_of_n@$07@std@@YAII@Z 10008ae0 f i aimbot_recode.obj
 0001:00007b10       ??$_Get_size_of_n@$0BE@@std@@YAII@Z 10008b10 f i aimbot_recode.obj
 0001:00007b40       ??$_Get_size_of_n@$0BPKA@@std@@YAII@Z 10008b40 f i aimbot_recode.obj
 0001:00007b70       ??$_Get_size_of_n@$0CM@@std@@YAII@Z 10008b70 f i aimbot_recode.obj
 0001:00007ba0       ??$_Get_size_of_n@$0M@@std@@YAII@Z 10008ba0 f i aimbot_recode.obj
 0001:00007bd0       ??$_Get_unwrapped@V?$_Vector_iterator@V?$_Vector_val@U?$_Simple_types@PAVLua_Hook@@@std@@@std@@@std@@$0A@@std@@YAPAPAVLua_Hook@@ABV?$_Vector_iterator@V?$_Vector_val@U?$_Simple_types@PAVLua_Hook@@@std@@@std@@@0@@Z 10008bd0 f i LuaAPI.obj
 0001:00007bd0       ??$_Get_unwrapped@V?$_Vector_const_iterator@V?$_Vector_val@U?$_Simple_types@H@std@@@std@@@std@@$0A@@std@@YAPBHABV?$_Vector_const_iterator@V?$_Vector_val@U?$_Simple_types@H@std@@@std@@@0@@Z 10008bd0 f i grenade_prediction.obj
 0001:00007bd0       ??$_Get_unwrapped@V?$_Vector_iterator@V?$_Vector_val@U?$_Simple_types@U?$pair@PAVc_cs_player@@M@std@@@std@@@std@@@std@@$0A@@std@@YAPAU?$pair@PAVc_cs_player@@M@0@ABV?$_Vector_iterator@V?$_Vector_val@U?$_Simple_types@U?$pair@PAVc_cs_player@@M@std@@@std@@@std@@@0@@Z 10008bd0 f i c_chams.obj
 0001:00007bd0       ??$_Get_unwrapped@V?$_String_iterator@V?$_String_val@U?$_Simple_types@D@std@@@std@@@std@@$0A@@std@@YAPADABV?$_String_iterator@V?$_String_val@U?$_Simple_types@D@std@@@std@@@0@@Z 10008bd0 f i aimbot_recode.obj
 0001:00007be0       ??$_Get_unwrapped_n@V?$_String_iterator@V?$_String_val@U?$_Simple_types@D@std@@@std@@@std@@H$0A@@std@@YAPADABV?$_String_iterator@V?$_String_val@U?$_Simple_types@D@std@@@std@@@0@H@Z 10008be0 f i aimbot_recode.obj
 0001:00007c10       ??$_Hash_representation@I@std@@YAIABI@Z 10008c10 f i aimbot_recode.obj
 0001:00007c10       ??$_Hash_representation@PAVc_hotkey_select@@@std@@YAIABQAVc_hotkey_select@@@Z 10008c10 f i c_hotkeys.obj
 0001:00007c30       ??$_Idl_distance@V?$_String_iterator@V?$_String_val@U?$_Simple_types@D@std@@@std@@@std@@PAD@std@@YAHABQAD0@Z 10008c30 f i aimbot_recode.obj
 0001:00007c40       ??$_Reallocate_for@V<lambda_1>@?1??assign@?$basic_string@DU?$char_traits@D@std@@V?$allocator@D@2@@std@@QAEAAV34@QBDI@Z@PBD@?$basic_string@DU?$char_traits@D@std@@V?$allocator@D@2@@std@@AAEAAV01@IV<lambda_1>@?1??assign@01@QAEAAV01@QBDI@Z@PBD@Z 10008c40 f i aimbot_recode.obj
 0001:00007d10       ??$_Reallocate_grow_by@V<lambda_1>@?1??append@?$basic_string@DU?$char_traits@D@std@@V?$allocator@D@2@@std@@QAEAAV34@ID@Z@ID@?$basic_string@DU?$char_traits@D@std@@V?$allocator@D@2@@std@@AAEAAV01@IV<lambda_1>@?1??append@01@QAEAAV01@ID@Z@ID@Z 10008d10 f i aimbot_recode.obj
 0001:00007e30       ??$_Seek_wrapped@V?$_String_iterator@V?$_String_val@U?$_Simple_types@D@std@@@std@@@std@@PAD@std@@YAXAAV?$_String_iterator@V?$_String_val@U?$_Simple_types@D@std@@@std@@@0@ABQAD@Z 10008e30 f i aimbot_recode.obj
 0001:00007e30       ??$_Seek_wrapped@V?$_Vector_const_iterator@V?$_Vector_val@U?$_Simple_types@H@std@@@std@@@std@@PBH@std@@YAXAAV?$_Vector_const_iterator@V?$_Vector_val@U?$_Simple_types@H@std@@@std@@@0@ABQBH@Z 10008e30 f i grenade_prediction.obj
 0001:00007e30       ??$_Seek_wrapped@V?$_Vector_iterator@V?$_Vector_val@U?$_Simple_types@PAVLua_Hook@@@std@@@std@@@std@@PAPAVLua_Hook@@@std@@YAXAAV?$_Vector_iterator@V?$_Vector_val@U?$_Simple_types@PAVLua_Hook@@@std@@@std@@@0@ABQAPAVLua_Hook@@@Z 10008e30 f i LuaAPI.obj
 0001:00007e50       ??$_Traits_find_first_not_of@U?$char_traits@D@std@@@std@@YAIQBDII0IU?$integral_constant@_N$00@0@@Z 10008e50 f i aimbot_recode.obj
 0001:00007f60       ??$_Traits_find_first_not_of@U?$char_traits@D@std@@@std@@YAIQBDII0IU?$integral_constant@_N$0A@@0@@Z 10008f60 f i aimbot_recode.obj
 0001:00007fc0       ??$_Traits_find_first_of@U?$char_traits@D@std@@@std@@YAIQBDII0IU?$integral_constant@_N$00@0@@Z 10008fc0 f i aimbot_recode.obj
 0001:000080e0       ??$_Traits_find_first_of@U?$char_traits@D@std@@@std@@YAIQBDII0IU?$integral_constant@_N$0A@@0@@Z 100090e0 f i aimbot_recode.obj
 0001:00008150       ??$_Try_emplace@I$$V@?$_Hash@V?$_Umap_traits@IUnetvar@c_netvar@@V?$_Uhash_compare@IU?$hash@I@std@@U?$equal_to@I@2@@std@@V?$allocator@U?$pair@$$CBIUnetvar@c_netvar@@@std@@@4@$0A@@std@@@std@@IAE?AU?$pair@PAU?$_List_node@U?$pair@$$CBIUnetvar@c_netvar@@@std@@PAX@std@@_N@1@$$QAI@Z 10009150 f i aimbot_recode.obj
 0001:000082c0       ??$_Try_emplace@I$$V@?$_Hash@V?$_Umap_traits@IV?$unordered_map@IUnetvar@c_netvar@@U?$hash@I@std@@U?$equal_to@I@4@V?$allocator@U?$pair@$$CBIUnetvar@c_netvar@@@std@@@4@@std@@V?$_Uhash_compare@IU?$hash@I@std@@U?$equal_to@I@2@@2@V?$allocator@U?$pair@$$CBIV?$unordered_map@IUnetvar@c_netvar@@U?$hash@I@std@@U?$equal_to@I@4@V?$allocator@U?$pair@$$CBIUnetvar@c_netvar@@@std@@@4@@std@@@std@@@2@$0A@@std@@@std@@IAE?AU?$pair@PAU?$_List_node@U?$pair@$$CBIV?$unordered_map@IUnetvar@c_netvar@@U?$hash@I@std@@U?$equal_to@I@4@V?$allocator@U?$pair@$$CBIUnetvar@c_netvar@@@std@@@4@@std@@@std@@PAX@std@@_N@1@$$QAI@Z 100092c0 f i aimbot_recode.obj
 0001:00008430       ??$_Uninitialized_move@PAW4hitbox@c_cs_player@@V?$allocator@W4hitbox@c_cs_player@@@std@@@std@@YAPAW4hitbox@c_cs_player@@QAW412@0PAW412@AAV?$allocator@W4hitbox@c_cs_player@@@0@@Z 10009430 f i aimbot_recode.obj
 0001:00008430       ??$_Uninitialized_move@PAPAVLua_Hook@@V?$allocator@PAVLua_Hook@@@std@@@std@@YAPAPAVLua_Hook@@QAPAV1@0PAPAV1@AAV?$allocator@PAVLua_Hook@@@0@@Z 10009430 f i LuaAPI.obj
 0001:00008430       ??$_Uninitialized_move@PAMV?$allocator@M@std@@@std@@YAPAMQAM0PAMAAV?$allocator@M@0@@Z 10009430 f i c_font.obj
 0001:00008430       ??$_Uninitialized_move@PAHV?$allocator@H@std@@@std@@YAPAHQAH0PAHAAV?$allocator@H@0@@Z 10009430 f i aimbot_recode.obj
 0001:00008430       ??$_Uninitialized_move@PAPAUanimation@c_animation_system@@V?$allocator@PAUanimation@c_animation_system@@@std@@@std@@YAPAPAUanimation@c_animation_system@@QAPAU12@0PAPAU12@AAV?$allocator@PAUanimation@c_animation_system@@@0@@Z 10009430 f i c_animation_system.obj
 0001:00008490       ??$_Uninitialized_move@PAVc_vector3d@@V?$allocator@Vc_vector3d@@@std@@@std@@YAPAVc_vector3d@@QAV1@0PAV1@AAV?$allocator@Vc_vector3d@@@0@@Z 10009490 f i aimbot_recode.obj
 0001:00008540       ??$c_maxes@M@@YAMABM0@Z    10009540 f i aimbot_recode.obj
 0001:000085a0       ??$clamp@M@std@@YAABMABM00@Z 100095a0 f i aimbot_recode.obj
 0001:000085d0       ??$clamp@MU?$less@X@std@@@std@@YAABMABM00U?$less@X@0@@Z 100095d0 f i aimbot_recode.obj
 0001:00008610       ??$construct@PAUanimation@c_animation_system@@PAU12@@?$_Default_allocator_traits@V?$allocator@PAUanimation@c_animation_system@@@std@@@std@@SAXAAV?$allocator@PAUanimation@c_animation_system@@@1@QAPAUanimation@c_animation_system@@$$QAPAU34@@Z 10009610 f i c_animation_system.obj
 0001:00008610       ??$construct@PAVLua_Hook@@PAV1@@?$_Default_allocator_traits@V?$allocator@PAVLua_Hook@@@std@@@std@@SAXAAV?$allocator@PAVLua_Hook@@@1@QAPAVLua_Hook@@$$QAPAV3@@Z 10009610 f i LuaAPI.obj
 0001:00008610       ??$construct@HH@?$_Default_allocator_traits@V?$allocator@H@std@@@std@@SAXAAV?$allocator@H@1@QAH$$QAH@Z 10009610 f i aimbot_recode.obj
 0001:00008610       ??$construct@W4hitbox@c_cs_player@@W412@@?$_Default_allocator_traits@V?$allocator@W4hitbox@c_cs_player@@@std@@@std@@SAXAAV?$allocator@W4hitbox@c_cs_player@@@1@QAW4hitbox@c_cs_player@@$$QAW434@@Z 10009610 f i aimbot_recode.obj
 0001:00008640       ??$construct@U?$pair@$$CBIUnetvar@c_netvar@@@std@@ABUpiecewise_construct_t@2@V?$tuple@$$QAI@2@V?$tuple@$$V@2@@?$_Default_allocator_traits@V?$allocator@U?$_List_node@U?$pair@$$CBIUnetvar@c_netvar@@@std@@PAX@std@@@std@@@std@@SAXAAV?$allocator@U?$_List_node@U?$pair@$$CBIUnetvar@c_netvar@@@std@@PAX@std@@@1@QAU?$pair@$$CBIUnetvar@c_netvar@@@1@ABUpiecewise_construct_t@1@$$QAV?$tuple@$$QAI@1@$$QAV?$tuple@$$V@1@@Z 10009640 f i aimbot_recode.obj
 0001:000086c0       ??$construct@U?$pair@$$CBIV?$unordered_map@IUnetvar@c_netvar@@U?$hash@I@std@@U?$equal_to@I@4@V?$allocator@U?$pair@$$CBIUnetvar@c_netvar@@@std@@@4@@std@@@std@@ABUpiecewise_construct_t@2@V?$tuple@$$QAI@2@V?$tuple@$$V@2@@?$_Default_allocator_traits@V?$allocator@U?$_List_node@U?$pair@$$CBIV?$unordered_map@IUnetvar@c_netvar@@U?$hash@I@std@@U?$equal_to@I@4@V?$allocator@U?$pair@$$CBIUnetvar@c_netvar@@@std@@@4@@std@@@std@@PAX@std@@@std@@@std@@SAXAAV?$allocator@U?$_List_node@U?$pair@$$CBIV?$unordered_map@IUnetvar@c_netvar@@U?$hash@I@std@@U?$equal_to@I@4@V?$allocator@U?$pair@$$CBIUnetvar@c_netvar@@@std@@@4@@std@@@std@@PAX@std@@@1@QAU?$pair@$$CBIV?$unordered_map@IUnetvar@c_netvar@@U?$hash@I@std@@U?$equal_to@I@4@V?$allocator@U?$pair@$$CBIUnetvar@c_netvar@@@std@@@4@@std@@@1@ABUpiecewise_construct_t@1@$$QAV?$tuple@$$QAI@1@$$QAV?$tuple@$$V@1@@Z 100096c0 f i aimbot_recode.obj
 0001:00008740       ??$construct@Vc_vector3d@@V1@@?$_Default_allocator_traits@V?$allocator@Vc_vector3d@@@std@@@std@@SAXAAV?$allocator@Vc_vector3d@@@1@QAVc_vector3d@@$$QAV3@@Z 10009740 f i aimbot_recode.obj
 0001:00008780       ??$destroy@U?$pair@$$CBIUanimation_info@c_animation_system@@@std@@@?$_Default_allocator_traits@V?$allocator@U?$_List_node@U?$pair@$$CBIUanimation_info@c_animation_system@@@std@@PAX@std@@@std@@@std@@SAXAAV?$allocator@U?$_List_node@U?$pair@$$CBIUanimation_info@c_animation_system@@@std@@PAX@std@@@1@QAU?$pair@$$CBIUanimation_info@c_animation_system@@@1@@Z 10009780 f i aimbot_recode.obj
 0001:00008790       ??$destroy@Ushot@resolver@@@?$_Default_allocator_traits@V?$allocator@Ushot@resolver@@@std@@@std@@SAXAAV?$allocator@Ushot@resolver@@@1@QAUshot@resolver@@@Z 10009790 f i aimbot_recode.obj
 0001:000087a0       ??$emplace_back@H@?$vector@HV?$allocator@H@std@@@std@@QAEAAH$$QAH@Z 100097a0 f i aimbot_recode.obj
 0001:000087a0       ??$emplace_back@W4hitbox@c_cs_player@@@?$vector@W4hitbox@c_cs_player@@V?$allocator@W4hitbox@c_cs_player@@@std@@@std@@QAEAAW4hitbox@c_cs_player@@$$QAW423@@Z 100097a0 f i aimbot_recode.obj
 0001:000087a0       ??$emplace_back@PAVLua_Hook@@@?$vector@PAVLua_Hook@@V?$allocator@PAVLua_Hook@@@std@@@std@@QAEAAPAVLua_Hook@@$$QAPAV2@@Z 100097a0 f i LuaAPI.obj
 0001:000087a0       ??$emplace_back@PAUanimation@c_animation_system@@@?$vector@PAUanimation@c_animation_system@@V?$allocator@PAUanimation@c_animation_system@@@std@@@std@@QAEAAPAUanimation@c_animation_system@@$$QAPAU23@@Z 100097a0 f i c_animation_system.obj
 0001:00008810       ??$fill@PAV?$_List_unchecked_iterator@V?$_List_val@U?$_List_simple_types@U?$pair@$$CBIUnetvar@c_netvar@@@std@@@std@@@std@@@std@@V12@@std@@YAXQAV?$_List_unchecked_iterator@V?$_List_val@U?$_List_simple_types@U?$pair@$$CBIUnetvar@c_netvar@@@std@@@std@@@std@@@0@0ABV10@@Z 10009810 f i aimbot_recode.obj
 0001:00008810       ??$fill@PAV?$_List_unchecked_iterator@V?$_List_val@U?$_List_simple_types@U?$pair@$$CBIVc_font@@@std@@@std@@@std@@@std@@V12@@std@@YAXQAV?$_List_unchecked_iterator@V?$_List_val@U?$_List_simple_types@U?$pair@$$CBIVc_font@@@std@@@std@@@std@@@0@0ABV10@@Z 10009810 f i c_renderer.obj
 0001:00008810       ??$fill@PAV?$_List_unchecked_iterator@V?$_List_val@U?$_List_simple_types@U?$pair@$$CBIUanimation_info@c_animation_system@@@std@@@std@@@std@@@std@@V12@@std@@YAXQAV?$_List_unchecked_iterator@V?$_List_val@U?$_List_simple_types@U?$pair@$$CBIUanimation_info@c_animation_system@@@std@@@std@@@std@@@0@0ABV10@@Z 10009810 f i aimbot_recode.obj
 0001:00008810       ??$fill@PAV?$_List_unchecked_iterator@V?$_List_val@U?$_List_simple_types@U?$pair@$$CBIPAVCD3DFont@@@std@@@std@@@std@@@std@@V12@@std@@YAXQAV?$_List_unchecked_iterator@V?$_List_val@U?$_List_simple_types@U?$pair@$$CBIPAVCD3DFont@@@std@@@std@@@std@@@0@0ABV10@@Z 10009810 f i c_renderer.obj
 0001:00008810       ??$fill@PAV?$_List_unchecked_iterator@V?$_List_val@U?$_List_simple_types@U?$pair@QAVc_hotkey_select@@V?$function@$$A6AXI@Z@std@@@std@@@std@@@std@@@std@@V12@@std@@YAXQAV?$_List_unchecked_iterator@V?$_List_val@U?$_List_simple_types@U?$pair@QAVc_hotkey_select@@V?$function@$$A6AXI@Z@std@@@std@@@std@@@std@@@0@0ABV10@@Z 10009810 f i c_hotkeys.obj
 0001:00008810       ??$fill@PAV?$_List_unchecked_iterator@V?$_List_val@U?$_List_simple_types@U?$pair@$$CBIV?$unordered_map@IUnetvar@c_netvar@@U?$hash@I@std@@U?$equal_to@I@4@V?$allocator@U?$pair@$$CBIUnetvar@c_netvar@@@std@@@4@@std@@@std@@@std@@@std@@@std@@V12@@std@@YAXQAV?$_List_unchecked_iterator@V?$_List_val@U?$_List_simple_types@U?$pair@$$CBIV?$unordered_map@IUnetvar@c_netvar@@U?$hash@I@std@@U?$equal_to@I@4@V?$allocator@U?$pair@$$CBIUnetvar@c_netvar@@@std@@@4@@std@@@std@@@std@@@std@@@0@0ABV10@@Z 10009810 f i aimbot_recode.obj
 0001:00008870       ??$forward_as_tuple@$$V@std@@YA?AV?$tuple@$$V@0@XZ 10009870 f i aimbot_recode.obj
 0001:00008880       ??$forward_as_tuple@I@std@@YA?AV?$tuple@$$QAI@0@$$QAI@Z 10009880 f i aimbot_recode.obj
 0001:000088a0       ??$get@$0A@$$QAI@std@@YA$$QAI$$QAV?$tuple@$$QAI@0@@Z 100098a0 f i aimbot_recode.obj
 0001:000088b0       ??$get_interface@Vc_engine_client@@@@YAPAVc_engine_client@@II@Z 100098b0 f i aimbot_recode.obj
 0001:000088b0       ??$get_interface@Vc_client_entity_list@@@@YAPAVc_client_entity_list@@II@Z 100098b0 f i aimbot_recode.obj
 0001:000088b0       ??$get_interface@Vc_debug_overlay@@@@YAPAVc_debug_overlay@@II@Z 100098b0 f i aimbot_recode.obj
 0001:000088b0       ??$get_interface@Vc_model_info_client@@@@YAPAVc_model_info_client@@II@Z 100098b0 f i aimbot_recode.obj
 0001:000088b0       ??$get_interface@Vc_cvar@@@@YAPAVc_cvar@@II@Z 100098b0 f i aimbot_recode.obj
 0001:00008af0       ??$instance@$$V@?$c_singleton@Vc_animation_system@@@@SAPAVc_animation_system@@XZ 10009af0 f i aimbot_recode.obj
 0001:00008ba0       ??$instance@$$V@?$c_singleton@Vc_config@@@@SAPAVc_config@@XZ 10009ba0 f i aimbot_recode.obj
 0001:00008bf0       ??$instance@$$V@?$c_singleton@Vc_trace_system@@@@SAPAVc_trace_system@@XZ 10009bf0 f i aimbot_recode.obj
 0001:00008c40       ??$isfinite@M@@YA_NM@Z     10009c40 f i aimbot_recode.obj
 0001:00008c80       ??$transform@V?$_String_iterator@V?$_String_val@U?$_Simple_types@D@std@@@std@@@std@@V12@P6AHH@Z@std@@YA?AV?$_String_iterator@V?$_String_val@U?$_Simple_types@D@std@@@std@@@0@V10@0V10@P6AHH@Z@Z 10009c80 f i aimbot_recode.obj
 0001:00008d30       ??$uninitialized_fill@PAV?$_List_unchecked_iterator@V?$_List_val@U?$_List_simple_types@U?$pair@$$CBIUanimation_info@c_animation_system@@@std@@@std@@@std@@@std@@V12@@std@@YAXQAV?$_List_unchecked_iterator@V?$_List_val@U?$_List_simple_types@U?$pair@$$CBIUanimation_info@c_animation_system@@@std@@@std@@@std@@@0@0ABV10@@Z 10009d30 f i aimbot_recode.obj
 0001:00008d30       ??$uninitialized_fill@PAV?$_List_unchecked_iterator@V?$_List_val@U?$_List_simple_types@U?$pair@$$CBIPAVCD3DFont@@@std@@@std@@@std@@@std@@V12@@std@@YAXQAV?$_List_unchecked_iterator@V?$_List_val@U?$_List_simple_types@U?$pair@$$CBIPAVCD3DFont@@@std@@@std@@@std@@@0@0ABV10@@Z 10009d30 f i c_renderer.obj
 0001:00008d30       ??$uninitialized_fill@PAV?$_List_unchecked_iterator@V?$_List_val@U?$_List_simple_types@U?$pair@$$CBIV?$unordered_map@IUnetvar@c_netvar@@U?$hash@I@std@@U?$equal_to@I@4@V?$allocator@U?$pair@$$CBIUnetvar@c_netvar@@@std@@@4@@std@@@std@@@std@@@std@@@std@@V12@@std@@YAXQAV?$_List_unchecked_iterator@V?$_List_val@U?$_List_simple_types@U?$pair@$$CBIV?$unordered_map@IUnetvar@c_netvar@@U?$hash@I@std@@U?$equal_to@I@4@V?$allocator@U?$pair@$$CBIUnetvar@c_netvar@@@std@@@4@@std@@@std@@@std@@@std@@@0@0ABV10@@Z 10009d30 f i aimbot_recode.obj
 0001:00008d30       ??$uninitialized_fill@PAV?$_List_unchecked_iterator@V?$_List_val@U?$_List_simple_types@U?$pair@QAVc_hotkey_select@@V?$function@$$A6AXI@Z@std@@@std@@@std@@@std@@@std@@V12@@std@@YAXQAV?$_List_unchecked_iterator@V?$_List_val@U?$_List_simple_types@U?$pair@QAVc_hotkey_select@@V?$function@$$A6AXI@Z@std@@@std@@@std@@@std@@@0@0ABV10@@Z 10009d30 f i c_hotkeys.obj
 0001:00008d30       ??$uninitialized_fill@PAV?$_List_unchecked_iterator@V?$_List_val@U?$_List_simple_types@U?$pair@$$CBIVc_font@@@std@@@std@@@std@@@std@@V12@@std@@YAXQAV?$_List_unchecked_iterator@V?$_List_val@U?$_List_simple_types@U?$pair@$$CBIVc_font@@@std@@@std@@@std@@@0@0ABV10@@Z 10009d30 f i c_renderer.obj
 0001:00008d30       ??$uninitialized_fill@PAV?$_List_unchecked_iterator@V?$_List_val@U?$_List_simple_types@U?$pair@$$CBIUnetvar@c_netvar@@@std@@@std@@@std@@@std@@V12@@std@@YAXQAV?$_List_unchecked_iterator@V?$_List_val@U?$_List_simple_types@U?$pair@$$CBIUnetvar@c_netvar@@@std@@@std@@@std@@@0@0ABV10@@Z 10009d30 f i aimbot_recode.obj
 0001:00008de0       ??0?$_Alloc_construct_ptr@V?$allocator@U?$_Tree_node@U?$pair@$$CBHH@std@@PAX@std@@@std@@@std@@QAE@AAV?$allocator@U?$_Tree_node@U?$pair@$$CBHH@std@@PAX@std@@@1@@Z 10009de0 f i c_prediction_.obj
 0001:00008de0       ??0?$_Alloc_construct_ptr@V?$allocator@U?$_List_node@U?$pair@$$CBIUanimation_info@c_animation_system@@@std@@PAX@std@@@std@@@std@@QAE@AAV?$allocator@U?$_List_node@U?$pair@$$CBIUanimation_info@c_animation_system@@@std@@PAX@std@@@1@@Z 10009de0 f i c_animation_system.obj
 0001:00008de0       ??0?$_Alloc_construct_ptr@V?$allocator@U?$_List_node@U?$pair@$$CBIUnetvar@c_netvar@@@std@@PAX@std@@@std@@@std@@QAE@AAV?$allocator@U?$_List_node@U?$pair@$$CBIUnetvar@c_netvar@@@std@@PAX@std@@@1@@Z 10009de0 f i aimbot_recode.obj
 0001:00008de0       ??0_Container_proxy@std@@QAE@PAU_Container_base12@1@@Z 10009de0 f i aimbot_recode.obj
 0001:00008de0       ??0?$_Alloc_construct_ptr@V?$allocator@U?$_Tree_node@U?$pair@$$CBV?$basic_string@DU?$char_traits@D@std@@V?$allocator@D@2@@std@@V?$basic_json@Vmap@std@@Vvector@2@V?$basic_string@DU?$char_traits@D@std@@V?$allocator@D@2@@2@_N_J_KNVallocator@2@Uadl_serializer@nlohmann@@@nlohmann@@@std@@PAX@std@@@std@@@std@@QAE@AAV?$allocator@U?$_Tree_node@U?$pair@$$CBV?$basic_string@DU?$char_traits@D@std@@V?$allocator@D@2@@std@@V?$basic_json@Vmap@std@@Vvector@2@V?$basic_string@DU?$char_traits@D@std@@V?$allocator@D@2@@2@_N_J_KNVallocator@2@Uadl_serializer@nlohmann@@@nlohmann@@@std@@PAX@std@@@1@@Z 10009de0 f i c_menu.obj
 0001:00008de0       ??0?$_Alloc_construct_ptr@V?$allocator@U?$_List_node@U?$pair@$$CBIV?$unordered_map@IUnetvar@c_netvar@@U?$hash@I@std@@U?$equal_to@I@4@V?$allocator@U?$pair@$$CBIUnetvar@c_netvar@@@std@@@4@@std@@@std@@PAX@std@@@std@@@std@@QAE@AAV?$allocator@U?$_List_node@U?$pair@$$CBIV?$unordered_map@IUnetvar@c_netvar@@U?$hash@I@std@@U?$equal_to@I@4@V?$allocator@U?$pair@$$CBIUnetvar@c_netvar@@@std@@@4@@std@@@std@@PAX@std@@@1@@Z 10009de0 f i aimbot_recode.obj
 0001:00008de0       ??0?$_Alloc_construct_ptr@V?$allocator@U?$_List_node@U?$pair@$$CBIVc_font@@@std@@PAX@std@@@std@@@std@@QAE@AAV?$allocator@U?$_List_node@U?$pair@$$CBIVc_font@@@std@@PAX@std@@@1@@Z 10009de0 f i c_renderer.obj
 0001:00008e10       ??0?$_Deque_val@U?$_Deque_simple_types@Uanimation@c_animation_system@@@std@@@std@@QAE@XZ 10009e10 f i c_animation_system.obj
 0001:00008e10       ??0?$_Deque_val@U?$_Deque_simple_types@Ushot@resolver@@@std@@@std@@QAE@XZ 10009e10 f i aimbot_recode.obj
 0001:00008e10       ??0?$_Deque_val@U?$_Deque_simple_types@UCIncomingSequence@@@std@@@std@@QAE@XZ 10009e10 f i c_fake_ping.obj
 0001:00008e50       ??0?$_Func_class@_NHW4parse_event_t@?$parser@V?$basic_json@Vmap@std@@Vvector@2@V?$basic_string@DU?$char_traits@D@std@@V?$allocator@D@2@@2@_N_J_KNVallocator@2@Uadl_serializer@nlohmann@@@nlohmann@@@detail@nlohmann@@AAV?$basic_json@Vmap@std@@Vvector@2@V?$basic_string@DU?$char_traits@D@std@@V?$allocator@D@2@@2@_N_J_KNVallocator@2@Uadl_serializer@nlohmann@@@4@@std@@QAE@XZ 10009e50 f i c_menu.obj
 0001:00008e50       ??0?$_Func_class@XPAVc_client_entity@@@std@@QAE@XZ 10009e50 f i c_esp.obj
 0001:00008e50       ??0?$_Func_class@XPAVc_cs_player@@@std@@QAE@XZ 10009e50 f i aimbot_recode.obj
 0001:00008e50       ??0?$_Func_class@X$$V@std@@QAE@XZ 10009e50 f i c_ragebot.obj
 0001:00008e50       ??0?$_Func_class@XI@std@@QAE@XZ 10009e50 f i c_fake_ping.obj
 0001:00008e70       ??0?$_Hash@V?$_Umap_traits@IUanimation_info@c_animation_system@@V?$_Uhash_compare@IU?$hash@I@std@@U?$equal_to@I@2@@std@@V?$allocator@U?$pair@$$CBIUanimation_info@c_animation_system@@@std@@@4@$0A@@std@@@std@@IAE@ABV?$_Uhash_compare@IU?$hash@I@std@@U?$equal_to@I@2@@1@ABV?$allocator@U?$pair@$$CBIUanimation_info@c_animation_system@@@std@@@1@@Z 10009e70 f i aimbot_recode.obj
 0001:00008f50       ??0?$_Hash@V?$_Umap_traits@IUnetvar@c_netvar@@V?$_Uhash_compare@IU?$hash@I@std@@U?$equal_to@I@2@@std@@V?$allocator@U?$pair@$$CBIUnetvar@c_netvar@@@std@@@4@$0A@@std@@@std@@IAE@ABV?$_Uhash_compare@IU?$hash@I@std@@U?$equal_to@I@2@@1@ABV?$allocator@U?$pair@$$CBIUnetvar@c_netvar@@@std@@@1@@Z 10009f50 f i aimbot_recode.obj
 0001:00009030       ??0?$_Tree_unchecked_const_iterator@V?$_Tree_val@U?$_Tree_simple_types@U?$pair@$$CBHH@std@@@std@@@std@@U_Iterator_base0@2@@std@@QAE@PAU?$_Tree_node@U?$pair@$$CBHH@std@@PAX@1@PBV?$_Tree_val@U?$_Tree_simple_types@U?$pair@$$CBHH@std@@@std@@@1@@Z 1000a030 f i c_prediction_.obj
 0001:00009030       ??0?$_Tree_unchecked_const_iterator@V?$_Tree_val@U?$_Tree_simple_types@U?$pair@$$CBV?$basic_string@DU?$char_traits@D@std@@V?$allocator@D@2@@std@@V?$basic_json@Vmap@std@@Vvector@2@V?$basic_string@DU?$char_traits@D@std@@V?$allocator@D@2@@2@_N_J_KNVallocator@2@Uadl_serializer@nlohmann@@@nlohmann@@@std@@@std@@@std@@U_Iterator_base0@2@@std@@QAE@PAU?$_Tree_node@U?$pair@$$CBV?$basic_string@DU?$char_traits@D@std@@V?$allocator@D@2@@std@@V?$basic_json@Vmap@std@@Vvector@2@V?$basic_string@DU?$char_traits@D@std@@V?$allocator@D@2@@2@_N_J_KNVallocator@2@Uadl_serializer@nlohmann@@@nlohmann@@@std@@PAX@1@PBV?$_Tree_val@U?$_Tree_simple_types@U?$pair@$$CBV?$basic_string@DU?$char_traits@D@std@@V?$allocator@D@2@@std@@V?$basic_json@Vmap@std@@Vvector@2@V?$basic_string@DU?$char_traits@D@std@@V?$allocator@D@2@@2@_N_J_KNVallocator@2@Uadl_serializer@nlohmann@@@nlohmann@@@std@@@std@@@1@@Z 1000a030 f i c_menu.obj
 0001:00009030       ??0?$_List_unchecked_const_iterator@V?$_List_val@U?$_List_simple_types@U?$pair@$$CBIUanimation_info@c_animation_system@@@std@@@std@@@std@@U_Iterator_base0@2@@std@@QAE@PAU?$_List_node@U?$pair@$$CBIUanimation_info@c_animation_system@@@std@@PAX@1@PBV?$_List_val@U?$_List_simple_types@U?$pair@$$CBIUanimation_info@c_animation_system@@@std@@@std@@@1@@Z 1000a030 f i aimbot_recode.obj
 0001:00009030       ??0?$_Vector_const_iterator@V?$_Vector_val@U?$_Simple_types@Uhitmarker_info@@@std@@@std@@@std@@QAE@PAUhitmarker_info@@PBU_Container_base0@1@@Z 1000a030 f i c_hitmarker.obj
 0001:00009030       ??0?$_List_unchecked_const_iterator@V?$_List_val@U?$_List_simple_types@U?$pair@$$CBIPAVCD3DFont@@@std@@@std@@@std@@U_Iterator_base0@2@@std@@QAE@PAU?$_List_node@U?$pair@$$CBIPAVCD3DFont@@@std@@PAX@1@PBV?$_List_val@U?$_List_simple_types@U?$pair@$$CBIPAVCD3DFont@@@std@@@std@@@1@@Z 1000a030 f i c_renderer.obj
 0001:00009030       ??0?$_List_unchecked_const_iterator@V?$_List_val@U?$_List_simple_types@U?$pair@$$CBIUnetvar@c_netvar@@@std@@@std@@@std@@U_Iterator_base0@2@@std@@QAE@PAU?$_List_node@U?$pair@$$CBIUnetvar@c_netvar@@@std@@PAX@1@PBV?$_List_val@U?$_List_simple_types@U?$pair@$$CBIUnetvar@c_netvar@@@std@@@std@@@1@@Z 1000a030 f i aimbot_recode.obj
 0001:00009030       ??0?$_Vector_const_iterator@V?$_Vector_val@U?$_Simple_types@H@std@@@std@@@std@@QAE@PAHPBU_Container_base0@1@@Z 1000a030 f i grenade_prediction.obj
 0001:00009030       ??0?$_Vector_const_iterator@V?$_Vector_val@U?$_Simple_types@V?$basic_json@Vmap@std@@Vvector@2@V?$basic_string@DU?$char_traits@D@std@@V?$allocator@D@2@@2@_N_J_KNVallocator@2@Uadl_serializer@nlohmann@@@nlohmann@@@std@@@std@@@std@@QAE@PAV?$basic_json@Vmap@std@@Vvector@2@V?$basic_string@DU?$char_traits@D@std@@V?$allocator@D@2@@2@_N_J_KNVallocator@2@Uadl_serializer@nlohmann@@@nlohmann@@PBU_Container_base0@1@@Z 1000a030 f i c_menu.obj
 0001:00009030       ??0?$_Vector_const_iterator@V?$_Vector_val@U?$_Simple_types@PAVLua_Hook@@@std@@@std@@@std@@QAE@PAPAVLua_Hook@@PBU_Container_base0@1@@Z 1000a030 f i LuaAPI.obj
 0001:00009030       ??0?$_List_unchecked_const_iterator@V?$_List_val@U?$_List_simple_types@U?$pair@QAVc_hotkey_select@@V?$function@$$A6AXI@Z@std@@@std@@@std@@@std@@U_Iterator_base0@2@@std@@QAE@PAU?$_List_node@U?$pair@QAVc_hotkey_select@@V?$function@$$A6AXI@Z@std@@@std@@PAX@1@PBV?$_List_val@U?$_List_simple_types@U?$pair@QAVc_hotkey_select@@V?$function@$$A6AXI@Z@std@@@std@@@std@@@1@@Z 1000a030 f i c_hotkeys.obj
 0001:00009030       ??0?$_Vector_const_iterator@V?$_Vector_val@U?$_Simple_types@U?$pair@PAVc_cs_player@@M@std@@@std@@@std@@@std@@QAE@PAU?$pair@PAVc_cs_player@@M@1@PBU_Container_base0@1@@Z 1000a030 f i c_chams.obj
 0001:00009030       ??0?$_Vector_const_iterator@V?$_Vector_val@U?$_Simple_types@Uimpact_info@@@std@@@std@@@std@@QAE@PAUimpact_info@@PBU_Container_base0@1@@Z 1000a030 f i c_hitmarker.obj
 0001:00009030       ??0?$_String_const_iterator@V?$_String_val@U?$_Simple_types@D@std@@@std@@@std@@QAE@PBDPBU_Container_base0@1@@Z 1000a030 f i aimbot_recode.obj
 0001:00009030       ??0?$_List_unchecked_const_iterator@V?$_List_val@U?$_List_simple_types@U?$pair@$$CBIVc_font@@@std@@@std@@@std@@U_Iterator_base0@2@@std@@QAE@PAU?$_List_node@U?$pair@$$CBIVc_font@@@std@@PAX@1@PBV?$_List_val@U?$_List_simple_types@U?$pair@$$CBIVc_font@@@std@@@std@@@1@@Z 1000a030 f i c_renderer.obj
 0001:00009030       ??0?$_List_unchecked_const_iterator@V?$_List_val@U?$_List_simple_types@U?$pair@$$CBIV?$unordered_map@IUnetvar@c_netvar@@U?$hash@I@std@@U?$equal_to@I@4@V?$allocator@U?$pair@$$CBIUnetvar@c_netvar@@@std@@@4@@std@@@std@@@std@@@std@@U_Iterator_base0@2@@std@@QAE@PAU?$_List_node@U?$pair@$$CBIV?$unordered_map@IUnetvar@c_netvar@@U?$hash@I@std@@U?$equal_to@I@4@V?$allocator@U?$pair@$$CBIUnetvar@c_netvar@@@std@@@4@@std@@@std@@PAX@1@PBV?$_List_val@U?$_List_simple_types@U?$pair@$$CBIV?$unordered_map@IUnetvar@c_netvar@@U?$hash@I@std@@U?$equal_to@I@4@V?$allocator@U?$pair@$$CBIUnetvar@c_netvar@@@std@@@4@@std@@@std@@@std@@@1@@Z 1000a030 f i aimbot_recode.obj
 0001:00009030       ??0?$_Vector_const_iterator@V?$_Vector_val@U?$_Simple_types@U?$pair@V?$shared_ptr@Vc_drawable@@@std@@U?$pair@Vc_vector2d@@V1@@2@@std@@@std@@@std@@@std@@QAE@PAU?$pair@V?$shared_ptr@Vc_drawable@@@std@@U?$pair@Vc_vector2d@@V1@@2@@1@PBU_Container_base0@1@@Z 1000a030 f i c_flow_layout.obj
 0001:00009060       ??0?$_String_iterator@V?$_String_val@U?$_Simple_types@D@std@@@std@@@std@@QAE@PBDPBU_Container_base0@1@@Z 1000a060 f i aimbot_recode.obj
 0001:00009060       ??0?$_Vector_iterator@V?$_Vector_val@U?$_Simple_types@V?$basic_json@Vmap@std@@Vvector@2@V?$basic_string@DU?$char_traits@D@std@@V?$allocator@D@2@@2@_N_J_KNVallocator@2@Uadl_serializer@nlohmann@@@nlohmann@@@std@@@std@@@std@@QAE@PAV?$basic_json@Vmap@std@@Vvector@2@V?$basic_string@DU?$char_traits@D@std@@V?$allocator@D@2@@2@_N_J_KNVallocator@2@Uadl_serializer@nlohmann@@@nlohmann@@PBU_Container_base0@1@@Z 1000a060 f i c_menu.obj
 0001:00009060       ??0?$_List_unchecked_iterator@V?$_List_val@U?$_List_simple_types@U?$pair@$$CBIV?$unordered_map@IUnetvar@c_netvar@@U?$hash@I@std@@U?$equal_to@I@4@V?$allocator@U?$pair@$$CBIUnetvar@c_netvar@@@std@@@4@@std@@@std@@@std@@@std@@@std@@QAE@PAU?$_List_node@U?$pair@$$CBIV?$unordered_map@IUnetvar@c_netvar@@U?$hash@I@std@@U?$equal_to@I@4@V?$allocator@U?$pair@$$CBIUnetvar@c_netvar@@@std@@@4@@std@@@std@@PAX@1@PBV?$_List_val@U?$_List_simple_types@U?$pair@$$CBIV?$unordered_map@IUnetvar@c_netvar@@U?$hash@I@std@@U?$equal_to@I@4@V?$allocator@U?$pair@$$CBIUnetvar@c_netvar@@@std@@@4@@std@@@std@@@std@@@1@@Z 1000a060 f i aimbot_recode.obj
 0001:00009060       ??0?$_Vector_iterator@V?$_Vector_val@U?$_Simple_types@Uimpact_info@@@std@@@std@@@std@@QAE@PAUimpact_info@@PBU_Container_base0@1@@Z 1000a060 f i c_hitmarker.obj
 0001:00009060       ??0?$_Vector_iterator@V?$_Vector_val@U?$_Simple_types@PAVLua_Hook@@@std@@@std@@@std@@QAE@PAPAVLua_Hook@@PBU_Container_base0@1@@Z 1000a060 f i LuaAPI.obj
 0001:00009060       ??0?$_Vector_iterator@V?$_Vector_val@U?$_Simple_types@U?$pair@PAVc_cs_player@@M@std@@@std@@@std@@@std@@QAE@PAU?$pair@PAVc_cs_player@@M@1@PBU_Container_base0@1@@Z 1000a060 f i c_chams.obj
 0001:00009060       ??0?$_List_unchecked_iterator@V?$_List_val@U?$_List_simple_types@U?$pair@$$CBIUnetvar@c_netvar@@@std@@@std@@@std@@@std@@QAE@PAU?$_List_node@U?$pair@$$CBIUnetvar@c_netvar@@@std@@PAX@1@PBV?$_List_val@U?$_List_simple_types@U?$pair@$$CBIUnetvar@c_netvar@@@std@@@std@@@1@@Z 1000a060 f i aimbot_recode.obj
 0001:00009060       ??0?$_List_unchecked_iterator@V?$_List_val@U?$_List_simple_types@U?$pair@$$CBIPAVCD3DFont@@@std@@@std@@@std@@@std@@QAE@PAU?$_List_node@U?$pair@$$CBIPAVCD3DFont@@@std@@PAX@1@PBV?$_List_val@U?$_List_simple_types@U?$pair@$$CBIPAVCD3DFont@@@std@@@std@@@1@@Z 1000a060 f i c_renderer.obj
 0001:00009060       ??0?$_List_unchecked_iterator@V?$_List_val@U?$_List_simple_types@U?$pair@QAVc_hotkey_select@@V?$function@$$A6AXI@Z@std@@@std@@@std@@@std@@@std@@QAE@PAU?$_List_node@U?$pair@QAVc_hotkey_select@@V?$function@$$A6AXI@Z@std@@@std@@PAX@1@PBV?$_List_val@U?$_List_simple_types@U?$pair@QAVc_hotkey_select@@V?$function@$$A6AXI@Z@std@@@std@@@std@@@1@@Z 1000a060 f i c_hotkeys.obj
 0001:00009060       ??0?$_List_const_iterator@V?$_List_val@U?$_List_simple_types@U?$pair@$$CBIUanimation_info@c_animation_system@@@std@@@std@@@std@@@std@@QAE@PAU?$_List_node@U?$pair@$$CBIUanimation_info@c_animation_system@@@std@@PAX@1@PBV?$_List_val@U?$_List_simple_types@U?$pair@$$CBIUanimation_info@c_animation_system@@@std@@@std@@@1@@Z 1000a060 f i c_animation_system.obj
 0001:00009060       ??0?$_Tree_const_iterator@V?$_Tree_val@U?$_Tree_simple_types@U?$pair@$$CBV?$basic_string@DU?$char_traits@D@std@@V?$allocator@D@2@@std@@V?$basic_json@Vmap@std@@Vvector@2@V?$basic_string@DU?$char_traits@D@std@@V?$allocator@D@2@@2@_N_J_KNVallocator@2@Uadl_serializer@nlohmann@@@nlohmann@@@std@@@std@@@std@@@std@@QAE@PAU?$_Tree_node@U?$pair@$$CBV?$basic_string@DU?$char_traits@D@std@@V?$allocator@D@2@@std@@V?$basic_json@Vmap@std@@Vvector@2@V?$basic_string@DU?$char_traits@D@std@@V?$allocator@D@2@@2@_N_J_KNVallocator@2@Uadl_serializer@nlohmann@@@nlohmann@@@std@@PAX@1@PBV?$_Tree_val@U?$_Tree_simple_types@U?$pair@$$CBV?$basic_string@DU?$char_traits@D@std@@V?$allocator@D@2@@std@@V?$basic_json@Vmap@std@@Vvector@2@V?$basic_string@DU?$char_traits@D@std@@V?$allocator@D@2@@2@_N_J_KNVallocator@2@Uadl_serializer@nlohmann@@@nlohmann@@@std@@@std@@@1@@Z 1000a060 f i c_menu.obj
 0001:00009060       ??0?$_Vector_iterator@V?$_Vector_val@U?$_Simple_types@Uhitmarker_info@@@std@@@std@@@std@@QAE@PAUhitmarker_info@@PBU_Container_base0@1@@Z 1000a060 f i c_hitmarker.obj
 0001:00009060       ??0?$_Vector_iterator@V?$_Vector_val@U?$_Simple_types@U?$pair@V?$shared_ptr@Vc_drawable@@@std@@U?$pair@Vc_vector2d@@V1@@2@@std@@@std@@@std@@@std@@QAE@PAU?$pair@V?$shared_ptr@Vc_drawable@@@std@@U?$pair@Vc_vector2d@@V1@@2@@1@PBU_Container_base0@1@@Z 1000a060 f i c_flow_layout.obj
 0001:00009060       ??0?$_List_unchecked_iterator@V?$_List_val@U?$_List_simple_types@U?$pair@$$CBIUanimation_info@c_animation_system@@@std@@@std@@@std@@@std@@QAE@PAU?$_List_node@U?$pair@$$CBIUanimation_info@c_animation_system@@@std@@PAX@1@PBV?$_List_val@U?$_List_simple_types@U?$pair@$$CBIUanimation_info@c_animation_system@@@std@@@std@@@1@@Z 1000a060 f i aimbot_recode.obj
 0001:00009060       ??0?$_Tree_const_iterator@V?$_Tree_val@U?$_Tree_simple_types@U?$pair@$$CBHH@std@@@std@@@std@@@std@@QAE@PAU?$_Tree_node@U?$pair@$$CBHH@std@@PAX@1@PBV?$_Tree_val@U?$_Tree_simple_types@U?$pair@$$CBHH@std@@@std@@@1@@Z 1000a060 f i c_prediction_.obj
 0001:00009060       ??0?$_List_unchecked_iterator@V?$_List_val@U?$_List_simple_types@U?$pair@$$CBIVc_font@@@std@@@std@@@std@@@std@@QAE@PAU?$_List_node@U?$pair@$$CBIVc_font@@@std@@PAX@1@PBV?$_List_val@U?$_List_simple_types@U?$pair@$$CBIVc_font@@@std@@@std@@@1@@Z 1000a060 f i c_renderer.obj
 0001:00009080       ??0?$_Ptr_base@U?$output_adapter_protocol@D@detail@nlohmann@@@std@@IAE@XZ 1000a080 f i c_menu.obj
 0001:00009080       ??0_Iterator_base12@std@@QAE@XZ 1000a080 f i c_animation_system.obj
 0001:00009080       ??0?$_List_val@U?$_List_simple_types@U?$pair@$$CBIUnetvar@c_netvar@@@std@@@std@@@std@@QAE@XZ 1000a080 f i aimbot_recode.obj
 0001:00009080       ??0?$_List_val@U?$_List_simple_types@U?$pair@$$CBIPAVCD3DFont@@@std@@@std@@@std@@QAE@XZ 1000a080 f i c_renderer.obj
 0001:00009080       ??0?$_Ptr_base@Vc_drawable@@@std@@IAE@XZ 1000a080 f i c_checkbox.obj
 0001:00009080       ??0?$_Ptr_base@V?$output_string_adapter@DV?$basic_string@DU?$char_traits@D@std@@V?$allocator@D@2@@std@@@detail@nlohmann@@@std@@IAE@XZ 1000a080 f i c_menu.obj
 0001:00009080       ??0?$_Ptr_base@Uinput_adapter_protocol@detail@nlohmann@@@std@@IAE@XZ 1000a080 f i c_menu.obj
 0001:00009080       ??0?$_List_val@U?$_List_simple_types@U?$pair@$$CBIV?$unordered_map@IUnetvar@c_netvar@@U?$hash@I@std@@U?$equal_to@I@4@V?$allocator@U?$pair@$$CBIUnetvar@c_netvar@@@std@@@4@@std@@@std@@@std@@@std@@QAE@XZ 1000a080 f i c_netvar.obj
 0001:00009080       ??0?$_Ptr_base@Vinput_buffer_adapter@detail@nlohmann@@@std@@IAE@XZ 1000a080 f i c_menu.obj
 0001:00009080       ??0?$_Tree_val@U?$_Tree_simple_types@U?$pair@$$CBHH@std@@@std@@@std@@QAE@XZ 1000a080 f i c_prediction_.obj
 0001:00009080       ??0?$_Tree_val@U?$_Tree_simple_types@U?$pair@$$CBV?$basic_string@DU?$char_traits@D@std@@V?$allocator@D@2@@std@@V?$basic_json@Vmap@std@@Vvector@2@V?$basic_string@DU?$char_traits@D@std@@V?$allocator@D@2@@2@_N_J_KNVallocator@2@Uadl_serializer@nlohmann@@@nlohmann@@@std@@@std@@@std@@QAE@XZ 1000a080 f i c_menu.obj
 0001:00009080       ??0?$_List_val@U?$_List_simple_types@U?$pair@$$CBIVc_font@@@std@@@std@@@std@@QAE@XZ 1000a080 f i c_renderer.obj
 0001:00009080       ??0?$initializer_list@U?$pair@V?$shared_ptr@Vc_drawable@@@std@@U?$pair@Vc_vector2d@@V1@@2@@std@@@std@@QAE@XZ 1000a080 f i c_checkbox.obj
 0001:00009080       ??0?$_List_val@U?$_List_simple_types@U?$pair@QAVc_hotkey_select@@V?$function@$$A6AXI@Z@std@@@std@@@std@@@std@@QAE@XZ 1000a080 f i c_hotkeys.obj
 0001:00009080       ??0?$_List_val@U?$_List_simple_types@U?$pair@$$CBIUanimation_info@c_animation_system@@@std@@@std@@@std@@QAE@XZ 1000a080 f i aimbot_recode.obj
 0001:000090b0       ??0?$_Optional_construct_base@H@std@@QAE@XZ 1000a0b0 f i c_color.obj
 0001:000090b0       ??0?$_Optional_construct_base@PAUanimation@c_animation_system@@@std@@QAE@XZ 1000a0b0 f i c_animation_system.obj
 0001:000090b0       ??0?$_Optional_construct_base@PAVc_drawable@@@std@@QAE@XZ 1000a0b0 f i c_menu.obj
 0001:000090b0       ??0?$_Optional_construct_base@M@std@@QAE@XZ 1000a0b0 f i aimbot_recode.obj
 0001:000090d0       ??0?$_Optional_destruct_base@PAUanimation@c_animation_system@@$00@std@@QAE@XZ 1000a0d0 f i c_animation_system.obj
 0001:000090d0       ??0?$_Optional_destruct_base@PAVc_drawable@@$00@std@@QAE@XZ 1000a0d0 f i c_menu.obj
 0001:000090d0       ??0?$_Optional_destruct_base@H$00@std@@QAE@XZ 1000a0d0 f i c_color.obj
 0001:000090d0       ??0?$_Optional_destruct_base@M$00@std@@QAE@XZ 1000a0d0 f i aimbot_recode.obj
 0001:000090f0       ??0?$_String_bitmap@D$00@std@@QAE@XZ 1000a0f0 f i aimbot_recode.obj
 0001:00009120       ??0?$_Uhash_compare@PAVc_hotkey_select@@U?$hash@PAVc_hotkey_select@@@std@@U?$equal_to@PAVc_hotkey_select@@@3@@std@@QAE@XZ 1000a120 f i c_hotkeys.obj
 0001:00009120       ??0?$_Uhash_compare@IU?$hash@I@std@@U?$equal_to@I@2@@std@@QAE@XZ 1000a120 f i aimbot_recode.obj
 0001:00009160       ??0?$_Umap_traits@IUnetvar@c_netvar@@V?$_Uhash_compare@IU?$hash@I@std@@U?$equal_to@I@2@@std@@V?$allocator@U?$pair@$$CBIUnetvar@c_netvar@@@std@@@4@$0A@@std@@QAE@ABV?$_Uhash_compare@IU?$hash@I@std@@U?$equal_to@I@2@@1@@Z 1000a160 f i aimbot_recode.obj
 0001:00009160       ??0?$_Umap_traits@IVc_font@@V?$_Uhash_compare@IU?$hash@I@std@@U?$equal_to@I@2@@std@@V?$allocator@U?$pair@$$CBIVc_font@@@std@@@3@$0A@@std@@QAE@ABV?$_Uhash_compare@IU?$hash@I@std@@U?$equal_to@I@2@@1@@Z 1000a160 f i c_renderer.obj
 0001:00009160       ??0?$_Umap_traits@PAVc_hotkey_select@@V?$function@$$A6AXI@Z@std@@V?$_Uhash_compare@PAVc_hotkey_select@@U?$hash@PAVc_hotkey_select@@@std@@U?$equal_to@PAVc_hotkey_select@@@3@@3@V?$allocator@U?$pair@QAVc_hotkey_select@@V?$function@$$A6AXI@Z@std@@@std@@@3@$0A@@std@@QAE@ABV?$_Uhash_compare@PAVc_hotkey_select@@U?$hash@PAVc_hotkey_select@@@std@@U?$equal_to@PAVc_hotkey_select@@@3@@1@@Z 1000a160 f i c_hotkeys.obj
 0001:00009160       ??0?$_Umap_traits@IV?$unordered_map@IUnetvar@c_netvar@@U?$hash@I@std@@U?$equal_to@I@4@V?$allocator@U?$pair@$$CBIUnetvar@c_netvar@@@std@@@4@@std@@V?$_Uhash_compare@IU?$hash@I@std@@U?$equal_to@I@2@@2@V?$allocator@U?$pair@$$CBIV?$unordered_map@IUnetvar@c_netvar@@U?$hash@I@std@@U?$equal_to@I@4@V?$allocator@U?$pair@$$CBIUnetvar@c_netvar@@@std@@@4@@std@@@std@@@2@$0A@@std@@QAE@ABV?$_Uhash_compare@IU?$hash@I@std@@U?$equal_to@I@2@@1@@Z 1000a160 f i c_netvar.obj
 0001:00009160       ??0?$_Umap_traits@IUanimation_info@c_animation_system@@V?$_Uhash_compare@IU?$hash@I@std@@U?$equal_to@I@2@@std@@V?$allocator@U?$pair@$$CBIUanimation_info@c_animation_system@@@std@@@4@$0A@@std@@QAE@ABV?$_Uhash_compare@IU?$hash@I@std@@U?$equal_to@I@2@@1@@Z 1000a160 f i aimbot_recode.obj
 0001:00009160       ??0?$_Umap_traits@IPAVCD3DFont@@V?$_Uhash_compare@IU?$hash@I@std@@U?$equal_to@I@2@@std@@V?$allocator@U?$pair@$$CBIPAVCD3DFont@@@std@@@3@$0A@@std@@QAE@ABV?$_Uhash_compare@IU?$hash@I@std@@U?$equal_to@I@2@@1@@Z 1000a160 f i c_renderer.obj
 0001:00009180       ??0?$_Uninitialized_backout@PAV?$_List_unchecked_iterator@V?$_List_val@U?$_List_simple_types@U?$pair@$$CBIPAVCD3DFont@@@std@@@std@@@std@@@std@@@std@@QAE@PAV?$_List_unchecked_iterator@V?$_List_val@U?$_List_simple_types@U?$pair@$$CBIPAVCD3DFont@@@std@@@std@@@std@@@1@@Z 1000a180 f i c_renderer.obj
 0001:00009180       ??0?$_Uninitialized_backout@PAV?$_List_unchecked_iterator@V?$_List_val@U?$_List_simple_types@U?$pair@$$CBIUanimation_info@c_animation_system@@@std@@@std@@@std@@@std@@@std@@QAE@PAV?$_List_unchecked_iterator@V?$_List_val@U?$_List_simple_types@U?$pair@$$CBIUanimation_info@c_animation_system@@@std@@@std@@@std@@@1@@Z 1000a180 f i aimbot_recode.obj
 0001:00009180       ??0?$_Uninitialized_backout@PAV?$_List_unchecked_iterator@V?$_List_val@U?$_List_simple_types@U?$pair@$$CBIV?$unordered_map@IUnetvar@c_netvar@@U?$hash@I@std@@U?$equal_to@I@4@V?$allocator@U?$pair@$$CBIUnetvar@c_netvar@@@std@@@4@@std@@@std@@@std@@@std@@@std@@@std@@QAE@PAV?$_List_unchecked_iterator@V?$_List_val@U?$_List_simple_types@U?$pair@$$CBIV?$unordered_map@IUnetvar@c_netvar@@U?$hash@I@std@@U?$equal_to@I@4@V?$allocator@U?$pair@$$CBIUnetvar@c_netvar@@@std@@@4@@std@@@std@@@std@@@std@@@1@@Z 1000a180 f i aimbot_recode.obj
 0001:00009180       ??0?$_Uninitialized_backout@PAV?$_List_unchecked_iterator@V?$_List_val@U?$_List_simple_types@U?$pair@QAVc_hotkey_select@@V?$function@$$A6AXI@Z@std@@@std@@@std@@@std@@@std@@@std@@QAE@PAV?$_List_unchecked_iterator@V?$_List_val@U?$_List_simple_types@U?$pair@QAVc_hotkey_select@@V?$function@$$A6AXI@Z@std@@@std@@@std@@@std@@@1@@Z 1000a180 f i c_hotkeys.obj
 0001:00009180       ??0?$_Uninitialized_backout@PAV?$_List_unchecked_iterator@V?$_List_val@U?$_List_simple_types@U?$pair@$$CBIUnetvar@c_netvar@@@std@@@std@@@std@@@std@@@std@@QAE@PAV?$_List_unchecked_iterator@V?$_List_val@U?$_List_simple_types@U?$pair@$$CBIUnetvar@c_netvar@@@std@@@std@@@std@@@1@@Z 1000a180 f i aimbot_recode.obj
 0001:00009180       ??0?$_Uninitialized_backout@PAV?$_List_unchecked_iterator@V?$_List_val@U?$_List_simple_types@U?$pair@$$CBIVc_font@@@std@@@std@@@std@@@std@@@std@@QAE@PAV?$_List_unchecked_iterator@V?$_List_val@U?$_List_simple_types@U?$pair@$$CBIVc_font@@@std@@@std@@@std@@@1@@Z 1000a180 f i c_renderer.obj
 0001:000091b0       ??0?$_Uninitialized_backout_al@V?$allocator@Unade_info@c_esp@@@std@@@std@@QAE@PAUnade_info@c_esp@@AAV?$allocator@Unade_info@c_esp@@@1@@Z 1000a1b0 f i c_esp.obj
 0001:000091b0       ??0?$_Uninitialized_backout_al@V?$allocator@U?$pair@PAVc_cs_player@@M@std@@@std@@@std@@QAE@PAU?$pair@PAVc_cs_player@@M@1@AAV?$allocator@U?$pair@PAVc_cs_player@@M@std@@@1@@Z 1000a1b0 f i c_chams.obj
 0001:000091b0       ??0?$_Uninitialized_backout_al@V?$allocator@V?$function@$$A6AXI@Z@std@@@std@@@std@@QAE@PAV?$function@$$A6AXI@Z@1@AAV?$allocator@V?$function@$$A6AXI@Z@std@@@1@@Z 1000a1b0 f i c_hotkeys.obj
 0001:000091b0       ??0?$_Uninitialized_backout_al@V?$allocator@Vc_vector2d@@@std@@@std@@QAE@PAVc_vector2d@@AAV?$allocator@Vc_vector2d@@@1@@Z 1000a1b0 f i c_renderer.obj
 0001:000091b0       ??0?$_Uninitialized_backout_al@V?$allocator@Vc_vector3d@@@std@@@std@@QAE@PAVc_vector3d@@AAV?$allocator@Vc_vector3d@@@1@@Z 1000a1b0 f i aimbot_recode.obj
 0001:000091b0       ??0?$_Uninitialized_backout_al@V?$allocator@U?$pair@V?$shared_ptr@Vc_drawable@@@std@@U?$pair@Vc_vector2d@@V1@@2@@std@@@std@@@std@@QAE@PAU?$pair@V?$shared_ptr@Vc_drawable@@@std@@U?$pair@Vc_vector2d@@V1@@2@@1@AAV?$allocator@U?$pair@V?$shared_ptr@Vc_drawable@@@std@@U?$pair@Vc_vector2d@@V1@@2@@std@@@1@@Z 1000a1b0 f i c_checkbox.obj
 0001:000091b0       ??0?$_Uninitialized_backout_al@V?$allocator@V?$vector@MV?$allocator@M@std@@@std@@@std@@@std@@QAE@PAV?$vector@MV?$allocator@M@std@@@1@AAV?$allocator@V?$vector@MV?$allocator@M@std@@@std@@@1@@Z 1000a1b0 f i c_font.obj
 0001:000091b0       ??0?$_Uninitialized_backout_al@V?$allocator@V?$basic_string@DU?$char_traits@D@std@@V?$allocator@D@2@@std@@@std@@@std@@QAE@PAV?$basic_string@DU?$char_traits@D@std@@V?$allocator@D@2@@1@AAV?$allocator@V?$basic_string@DU?$char_traits@D@std@@V?$allocator@D@2@@std@@@1@@Z 1000a1b0 f i c_miscellaneous.obj
 0001:000091b0       ??0?$_Uninitialized_backout_al@V?$allocator@V?$basic_json@Vmap@std@@Vvector@2@V?$basic_string@DU?$char_traits@D@std@@V?$allocator@D@2@@2@_N_J_KNVallocator@2@Uadl_serializer@nlohmann@@@nlohmann@@@std@@@std@@QAE@PAV?$basic_json@Vmap@std@@Vvector@2@V?$basic_string@DU?$char_traits@D@std@@V?$allocator@D@2@@2@_N_J_KNVallocator@2@Uadl_serializer@nlohmann@@@nlohmann@@AAV?$allocator@V?$basic_json@Vmap@std@@Vvector@2@V?$basic_string@DU?$char_traits@D@std@@V?$allocator@D@2@@2@_N_J_KNVallocator@2@Uadl_serializer@nlohmann@@@nlohmann@@@1@@Z 1000a1b0 f i c_menu.obj
 0001:000091b0       ??0?$_Uninitialized_backout_al@V?$allocator@Uaim_info@c_aimhelper@@@std@@@std@@QAE@PAUaim_info@c_aimhelper@@AAV?$allocator@Uaim_info@c_aimhelper@@@1@@Z 1000a1b0 f i c_aimhelper.obj
 0001:000091b0       ??0?$_Uninitialized_backout_al@V?$allocator@V?$tuple@MMM@std@@@std@@@std@@QAE@PAV?$tuple@MMM@1@AAV?$allocator@V?$tuple@MMM@std@@@1@@Z 1000a1b0 f i c_aimhelper.obj
 0001:000091b0       ??0?$_Uninitialized_backout_al@V?$allocator@Uplayer_info@c_esp@@@std@@@std@@QAE@PAUplayer_info@c_esp@@AAV?$allocator@Uplayer_info@c_esp@@@1@@Z 1000a1b0 f i c_esp.obj
 0001:000091b0       ??0?$_Uninitialized_backout_al@V?$allocator@Udamage_infos@@@std@@@std@@QAE@PAUdamage_infos@@AAV?$allocator@Udamage_infos@@@1@@Z 1000a1b0 f i c_esp.obj
 0001:000091b0       ??0?$_Uninitialized_backout_al@V?$allocator@VImConsoleTextItem@@@std@@@std@@QAE@PAVImConsoleTextItem@@AAV?$allocator@VImConsoleTextItem@@@1@@Z 1000a1b0 f i ImConsole.obj
 0001:000091e0       ??0?$_Vector_val@U?$_Simple_types@V?$_List_unchecked_iterator@V?$_List_val@U?$_List_simple_types@U?$pair@QAVc_hotkey_select@@V?$function@$$A6AXI@Z@std@@@std@@@std@@@std@@@std@@@std@@@std@@QAE@XZ 1000a1e0 f i c_hotkeys.obj
 0001:000091e0       ??0?$_Vector_val@U?$_Simple_types@V?$_List_unchecked_iterator@V?$_List_val@U?$_List_simple_types@U?$pair@$$CBIVc_font@@@std@@@std@@@std@@@std@@@std@@@std@@QAE@XZ 1000a1e0 f i c_renderer.obj
 0001:000091e0       ??0?$_Vector_val@U?$_Simple_types@V?$_List_unchecked_iterator@V?$_List_val@U?$_List_simple_types@U?$pair@$$CBIV?$unordered_map@IUnetvar@c_netvar@@U?$hash@I@std@@U?$equal_to@I@4@V?$allocator@U?$pair@$$CBIUnetvar@c_netvar@@@std@@@4@@std@@@std@@@std@@@std@@@std@@@std@@@std@@QAE@XZ 1000a1e0 f i c_netvar.obj
 0001:000091e0       ??0?$_Vector_val@U?$_Simple_types@V?$function@$$A6AXXZ@std@@@std@@@std@@QAE@XZ 1000a1e0 f i c_renderer.obj
 0001:000091e0       ??0?$_Vector_val@U?$_Simple_types@H@std@@@std@@QAE@XZ 1000a1e0 f i aimbot_recode.obj
 0001:000091e0       ??0?$_Vector_val@U?$_Simple_types@V?$function@$$A6AXI@Z@std@@@std@@@std@@QAE@XZ 1000a1e0 f i c_hotkeys.obj
 0001:000091e0       ??0?$_Vector_val@U?$_Simple_types@Uhitmarker_info@@@std@@@std@@QAE@XZ 1000a1e0 f i c_hitmarker.obj
 0001:000091e0       ??0?$_Vector_val@U?$_Simple_types@Uplayer_info@c_esp@@@std@@@std@@QAE@XZ 1000a1e0 f i aimbot_recode.obj
 0001:000091e0       ??0?$_Vector_val@U?$_Simple_types@Unade_info@c_esp@@@std@@@std@@QAE@XZ 1000a1e0 f i aimbot_recode.obj
 0001:000091e0       ??0?$_Vector_val@U?$_Simple_types@V?$basic_string@DU?$char_traits@D@std@@V?$allocator@D@2@@std@@@std@@@std@@QAE@XZ 1000a1e0 f i c_miscellaneous.obj
 0001:000091e0       ??0?$_Vector_val@U?$_Simple_types@PAUanimation@c_animation_system@@@std@@@std@@QAE@XZ 1000a1e0 f i c_aimhelper.obj
 0001:000091e0       ??0?$_Vector_val@U?$_Simple_types@U?$pair@PAVc_cs_player@@M@std@@@std@@@std@@QAE@XZ 1000a1e0 f i c_chams.obj
 0001:000091e0       ??0?$_Vector_val@U?$_Simple_types@Vc_vector2d@@@std@@@std@@QAE@XZ 1000a1e0 f i c_renderer.obj
 0001:000091e0       ??0?$_Vector_val@U?$_Simple_types@V?$_List_unchecked_iterator@V?$_List_val@U?$_List_simple_types@U?$pair@$$CBIUanimation_info@c_animation_system@@@std@@@std@@@std@@@std@@@std@@@std@@QAE@XZ 1000a1e0 f i aimbot_recode.obj
 0001:000091e0       ??0?$_Vector_val@U?$_Simple_types@U?$pair@V?$shared_ptr@Vc_drawable@@@std@@U?$pair@Vc_vector2d@@V1@@2@@std@@@std@@@std@@QAE@XZ 1000a1e0 f i c_checkbox.obj
 0001:000091e0       ??0?$_Vector_val@U?$_Simple_types@V?$vector@MV?$allocator@M@std@@@std@@@std@@@std@@QAE@XZ 1000a1e0 f i c_font.obj
 0001:000091e0       ??0?$_Vector_val@U?$_Simple_types@V?$tuple@MMM@std@@@std@@@std@@QAE@XZ 1000a1e0 f i c_aimhelper.obj
 0001:000091e0       ??0?$_Vector_val@U?$_Simple_types@V?$basic_json@Vmap@std@@Vvector@2@V?$basic_string@DU?$char_traits@D@std@@V?$allocator@D@2@@2@_N_J_KNVallocator@2@Uadl_serializer@nlohmann@@@nlohmann@@@std@@@std@@QAE@XZ 1000a1e0 f i c_menu.obj
 0001:000091e0       ??0?$_Vector_val@U?$_Simple_types@V?$_List_unchecked_iterator@V?$_List_val@U?$_List_simple_types@U?$pair@$$CBIPAVCD3DFont@@@std@@@std@@@std@@@std@@@std@@@std@@QAE@XZ 1000a1e0 f i c_renderer.obj
 0001:000091e0       ??0?$_Vector_val@U?$_Simple_types@M@std@@@std@@QAE@XZ 1000a1e0 f i c_font.obj
 0001:000091e0       ??0?$_Vector_val@U?$_Simple_types@Uaim_info@c_aimhelper@@@std@@@std@@QAE@XZ 1000a1e0 f i c_aimhelper.obj
 0001:000091e0       ??0?$_Vector_val@U?$_Simple_types@V?$_List_unchecked_iterator@V?$_List_val@U?$_List_simple_types@U?$pair@$$CBIUnetvar@c_netvar@@@std@@@std@@@std@@@std@@@std@@@std@@QAE@XZ 1000a1e0 f i aimbot_recode.obj
 0001:000091e0       ??0?$_Vector_val@U?$_Simple_types@PAVLua_Hook@@@std@@@std@@QAE@XZ 1000a1e0 f i LuaAPI.obj
 0001:000091e0       ??0?$_Vector_val@U?$_Simple_types@Udamage_infos@@@std@@@std@@QAE@XZ 1000a1e0 f i c_esp.obj
 0001:000091e0       ??0?$_Vector_val@U?$_Simple_types@Uimpact_info@@@std@@@std@@QAE@XZ 1000a1e0 f i c_hitmarker.obj
 0001:000091e0       ??0?$_Vector_val@U?$_Simple_types@VImConsoleTextItem@@@std@@@std@@QAE@XZ 1000a1e0 f i ImConsole.obj
 0001:000091e0       ??0?$_Vector_val@U?$_Simple_types@D@std@@@std@@QAE@XZ 1000a1e0 f i c_menu.obj
 0001:000091e0       ??0?$_Vector_val@U?$_Simple_types@W4hitbox@c_cs_player@@@std@@@std@@QAE@XZ 1000a1e0 f i aimbot_recode.obj
 0001:000091e0       ??0?$_Vector_val@U?$_Simple_types@Vc_vector3d@@@std@@@std@@QAE@XZ 1000a1e0 f i aimbot_recode.obj
 0001:00009210       ??0?$basic_string@DU?$char_traits@D@std@@V?$allocator@D@2@@std@@QAE@$$QAV01@@Z 1000a210 f i aimbot_recode.obj
 0001:000092b0       ??0?$basic_string@DU?$char_traits@D@std@@V?$allocator@D@2@@std@@QAE@ABV01@IIABV?$allocator@D@1@@Z 1000a2b0 f i aimbot_recode.obj
 0001:00009350       ??0?$basic_string@DU?$char_traits@D@std@@V?$allocator@D@2@@std@@QAE@QBD@Z 1000a350 f i aimbot_recode.obj
 0001:000093e0       ??0?$deque@Uanimation@c_animation_system@@V?$allocator@Uanimation@c_animation_system@@@std@@@std@@QAE@XZ 1000a3e0 f i c_animation_system.obj
 0001:000093e0       ??0?$deque@Ushot@resolver@@V?$allocator@Ushot@resolver@@@std@@@std@@QAE@XZ 1000a3e0 f i aimbot_recode.obj
 0001:000093e0       ??0?$deque@UCIncomingSequence@@V?$allocator@UCIncomingSequence@@@std@@@std@@QAE@XZ 1000a3e0 f i c_fake_ping.obj
 0001:00009430       ??0?$list@U?$pair@$$CBIUanimation_info@c_animation_system@@@std@@V?$allocator@U?$pair@$$CBIUanimation_info@c_animation_system@@@std@@@2@@std@@QAE@ABV?$allocator@U?$pair@$$CBIUanimation_info@c_animation_system@@@std@@@1@@Z 1000a430 f i aimbot_recode.obj
 0001:00009470       ??0?$list@U?$pair@$$CBIUnetvar@c_netvar@@@std@@V?$allocator@U?$pair@$$CBIUnetvar@c_netvar@@@std@@@2@@std@@QAE@ABV?$allocator@U?$pair@$$CBIUnetvar@c_netvar@@@std@@@1@@Z 1000a470 f i aimbot_recode.obj
 0001:000094b0       ??0?$optional@PAUanimation@c_animation_system@@@std@@QAE@Unullopt_t@1@@Z 1000a4b0 f i c_animation_system.obj
 0001:000094b0       ??0?$optional@PAVc_drawable@@@std@@QAE@Unullopt_t@1@@Z 1000a4b0 f i c_menu.obj
 0001:000094b0       ??0?$optional@H@std@@QAE@Unullopt_t@1@@Z 1000a4b0 f i c_color.obj
 0001:000094b0       ??0?$optional@M@std@@QAE@Unullopt_t@1@@Z 1000a4b0 f i aimbot_recode.obj
 0001:000094e0       ??0?$tuple@PAUanimation@c_animation_system@@@std@@QAE@$$QAV01@@Z 1000a4e0 f i c_aimhelper.obj
 0001:000094e0       ??0?$tuple@$$QAI@std@@QAE@$$QAV01@@Z 1000a4e0 f i aimbot_recode.obj
 0001:000094e0       ??0?$tuple@M@std@@QAE@$$QAV01@@Z 1000a4e0 f i c_aimhelper.obj
 0001:000094e0       ??0?$tuple@M@std@@QAE@ABV01@@Z 1000a4e0 f i c_aimhelper.obj
 0001:00009510       ??0?$unordered_map@IUanimation_info@c_animation_system@@U?$hash@I@std@@U?$equal_to@I@4@V?$allocator@U?$pair@$$CBIUanimation_info@c_animation_system@@@std@@@4@@std@@QAE@XZ 1000a510 f i aimbot_recode.obj
 0001:00009550       ??0?$unordered_map@IUnetvar@c_netvar@@U?$hash@I@std@@U?$equal_to@I@4@V?$allocator@U?$pair@$$CBIUnetvar@c_netvar@@@std@@@4@@std@@QAE@XZ 1000a550 f i aimbot_recode.obj
 0001:00009590       ??0?$vector@PAUanimation@c_animation_system@@V?$allocator@PAUanimation@c_animation_system@@@std@@@std@@QAE@$$QAV01@@Z 1000a590 f i c_aimhelper.obj
 0001:00009590       ??0?$vector@HV?$allocator@H@std@@@std@@QAE@$$QAV01@@Z 1000a590 f i aimbot_recode.obj
 0001:00009590       ??0?$vector@MV?$allocator@M@std@@@std@@QAE@$$QAV01@@Z 1000a590 f i c_font.obj
 0001:00009590       ??0?$vector@Vc_vector3d@@V?$allocator@Vc_vector3d@@@std@@@std@@QAE@$$QAV01@@Z 1000a590 f i c_resolver.obj
 0001:00009590       ??0?$vector@Uaim_info@c_aimhelper@@V?$allocator@Uaim_info@c_aimhelper@@@std@@@std@@QAE@$$QAV01@@Z 1000a590 f i c_aimhelper.obj
 0001:00009590       ??0?$vector@V?$basic_string@DU?$char_traits@D@std@@V?$allocator@D@2@@std@@V?$allocator@V?$basic_string@DU?$char_traits@D@std@@V?$allocator@D@2@@std@@@2@@std@@QAE@$$QAV01@@Z 1000a590 f i ImConsole.obj
 0001:00009600       ??0?$vector@Uplayer_info@c_esp@@V?$allocator@Uplayer_info@c_esp@@@std@@@std@@QAE@XZ 1000a600 f i aimbot_recode.obj
 0001:00009600       ??0?$vector@DV?$allocator@D@std@@@std@@QAE@XZ 1000a600 f i c_menu.obj
 0001:00009600       ??0?$vector@V?$basic_json@Vmap@std@@Vvector@2@V?$basic_string@DU?$char_traits@D@std@@V?$allocator@D@2@@2@_N_J_KNVallocator@2@Uadl_serializer@nlohmann@@@nlohmann@@V?$allocator@V?$basic_json@Vmap@std@@Vvector@2@V?$basic_string@DU?$char_traits@D@std@@V?$allocator@D@2@@2@_N_J_KNVallocator@2@Uadl_serializer@nlohmann@@@nlohmann@@@std@@@std@@QAE@XZ 1000a600 f i c_menu.obj
 0001:00009600       ??0?$vector@VImConsoleTextItem@@V?$allocator@VImConsoleTextItem@@@std@@@std@@QAE@XZ 1000a600 f i ImConsole.obj
 0001:00009600       ??0?$vector@W4hitbox@c_cs_player@@V?$allocator@W4hitbox@c_cs_player@@@std@@@std@@QAE@XZ 1000a600 f i aimbot_recode.obj
 0001:00009600       ??0?$vector@V?$function@$$A6AXXZ@std@@V?$allocator@V?$function@$$A6AXXZ@std@@@2@@std@@QAE@XZ 1000a600 f i c_renderer.obj
 0001:00009600       ??0?$vector@Uhitmarker_info@@V?$allocator@Uhitmarker_info@@@std@@@std@@QAE@XZ 1000a600 f i c_hitmarker.obj
 0001:00009600       ??0?$vector@V?$tuple@MMM@std@@V?$allocator@V?$tuple@MMM@std@@@2@@std@@QAE@XZ 1000a600 f i c_aimhelper.obj
 0001:00009600       ??0?$vector@Vc_vector3d@@V?$allocator@Vc_vector3d@@@std@@@std@@QAE@XZ 1000a600 f i aimbot_recode.obj
 0001:00009600       ??0?$vector@HV?$allocator@H@std@@@std@@QAE@XZ 1000a600 f i aimbot_recode.obj
 0001:00009600       ??0?$vector@Vc_vector2d@@V?$allocator@Vc_vector2d@@@std@@@std@@QAE@XZ 1000a600 f i c_renderer.obj
 0001:00009600       ??0?$vector@Udamage_infos@@V?$allocator@Udamage_infos@@@std@@@std@@QAE@XZ 1000a600 f i c_esp.obj
 0001:00009600       ??0?$vector@MV?$allocator@M@std@@@std@@QAE@XZ 1000a600 f i c_font.obj
 0001:00009600       ??0?$vector@V?$vector@MV?$allocator@M@std@@@std@@V?$allocator@V?$vector@MV?$allocator@M@std@@@std@@@2@@std@@QAE@XZ 1000a600 f i c_font.obj
 0001:00009600       ??0?$vector@V?$basic_string@DU?$char_traits@D@std@@V?$allocator@D@2@@std@@V?$allocator@V?$basic_string@DU?$char_traits@D@std@@V?$allocator@D@2@@std@@@2@@std@@QAE@XZ 1000a600 f i ImConsole.obj
 0001:00009600       ??0?$vector@Unade_info@c_esp@@V?$allocator@Unade_info@c_esp@@@std@@@std@@QAE@XZ 1000a600 f i aimbot_recode.obj
 0001:00009600       ??0?$vector@Uaim_info@c_aimhelper@@V?$allocator@Uaim_info@c_aimhelper@@@std@@@std@@QAE@XZ 1000a600 f i c_aimhelper.obj
 0001:00009600       ??0?$vector@Uimpact_info@@V?$allocator@Uimpact_info@@@std@@@std@@QAE@XZ 1000a600 f i c_hitmarker.obj
 0001:00009600       ??0?$vector@PAVLua_Hook@@V?$allocator@PAVLua_Hook@@@std@@@std@@QAE@XZ 1000a600 f i LuaAPI.obj
 0001:00009600       ??0?$vector@PAUanimation@c_animation_system@@V?$allocator@PAUanimation@c_animation_system@@@std@@@std@@QAE@XZ 1000a600 f i c_animation_system.obj
 0001:00009600       ??0?$vector@V?$function@$$A6AXI@Z@std@@V?$allocator@V?$function@$$A6AXI@Z@std@@@2@@std@@QAE@XZ 1000a600 f i c_hotkeys.obj
 0001:00009600       ??0?$vector@U?$pair@PAVc_cs_player@@M@std@@V?$allocator@U?$pair@PAVc_cs_player@@M@std@@@2@@std@@QAE@XZ 1000a600 f i c_chams.obj
 0001:00009640       ??0?$_Vector_const_iterator@V?$_Vector_val@U?$_Simple_types@V?$basic_json@Vmap@std@@Vvector@2@V?$basic_string@DU?$char_traits@D@std@@V?$allocator@D@2@@2@_N_J_KNVallocator@2@Uadl_serializer@nlohmann@@@nlohmann@@@std@@@std@@@std@@QAE@XZ 1000a640 f i c_menu.obj
 0001:00009640       ??0sub_pages@pages@c_menu@@QAE@XZ 1000a640 f i c_menu.obj
 0001:00009640       ??0_Container_base12@std@@QAE@XZ 1000a640 f i aimbot_recode.obj
 0001:00009640       ??0?$_Tree_unchecked_const_iterator@V?$_Tree_val@U?$_Tree_simple_types@U?$pair@$$CBV?$basic_string@DU?$char_traits@D@std@@V?$allocator@D@2@@std@@V?$basic_json@Vmap@std@@Vvector@2@V?$basic_string@DU?$char_traits@D@std@@V?$allocator@D@2@@2@_N_J_KNVallocator@2@Uadl_serializer@nlohmann@@@nlohmann@@@std@@@std@@@std@@U_Iterator_base0@2@@std@@QAE@XZ 1000a640 f i c_menu.obj
 0001:00009660       ??0_Fake_proxy_ptr_impl@std@@QAE@ABU_Fake_allocator@1@ABU_Container_base0@1@@Z 1000a660 f i aimbot_recode.obj
 0001:00009670       ??0_Mutex_base@std@@QAE@H@Z 1000a670 f i aimbot_recode.obj
 0001:000096a0       ??0_Range_eraser@?$_Hash@V?$_Umap_traits@IUnetvar@c_netvar@@V?$_Uhash_compare@IU?$hash@I@std@@U?$equal_to@I@2@@std@@V?$allocator@U?$pair@$$CBIUnetvar@c_netvar@@@std@@@4@$0A@@std@@@std@@QAE@AAV?$list@U?$pair@$$CBIUnetvar@c_netvar@@@std@@V?$allocator@U?$pair@$$CBIUnetvar@c_netvar@@@std@@@2@@2@QAU?$_List_node@U?$pair@$$CBIUnetvar@c_netvar@@@std@@PAX@2@@Z 1000a6a0 f i aimbot_recode.obj
 0001:000096a0       ??0_Range_eraser@?$_Hash@V?$_Umap_traits@PAVc_hotkey_select@@V?$function@$$A6AXI@Z@std@@V?$_Uhash_compare@PAVc_hotkey_select@@U?$hash@PAVc_hotkey_select@@@std@@U?$equal_to@PAVc_hotkey_select@@@3@@3@V?$allocator@U?$pair@QAVc_hotkey_select@@V?$function@$$A6AXI@Z@std@@@std@@@3@$0A@@std@@@std@@QAE@AAV?$list@U?$pair@QAVc_hotkey_select@@V?$function@$$A6AXI@Z@std@@@std@@V?$allocator@U?$pair@QAVc_hotkey_select@@V?$function@$$A6AXI@Z@std@@@std@@@2@@2@QAU?$_List_node@U?$pair@QAVc_hotkey_select@@V?$function@$$A6AXI@Z@std@@@std@@PAX@2@@Z 1000a6a0 f i c_hotkeys.obj
 0001:000096a0       ??0_Range_eraser@?$_Hash@V?$_Umap_traits@IV?$unordered_map@IUnetvar@c_netvar@@U?$hash@I@std@@U?$equal_to@I@4@V?$allocator@U?$pair@$$CBIUnetvar@c_netvar@@@std@@@4@@std@@V?$_Uhash_compare@IU?$hash@I@std@@U?$equal_to@I@2@@2@V?$allocator@U?$pair@$$CBIV?$unordered_map@IUnetvar@c_netvar@@U?$hash@I@std@@U?$equal_to@I@4@V?$allocator@U?$pair@$$CBIUnetvar@c_netvar@@@std@@@4@@std@@@std@@@2@$0A@@std@@@std@@QAE@AAV?$list@U?$pair@$$CBIV?$unordered_map@IUnetvar@c_netvar@@U?$hash@I@std@@U?$equal_to@I@4@V?$allocator@U?$pair@$$CBIUnetvar@c_netvar@@@std@@@4@@std@@@std@@V?$allocator@U?$pair@$$CBIV?$unordered_map@IUnetvar@c_netvar@@U?$hash@I@std@@U?$equal_to@I@4@V?$allocator@U?$pair@$$CBIUnetvar@c_netvar@@@std@@@4@@std@@@std@@@2@@2@QAU?$_List_node@U?$pair@$$CBIV?$unordered_map@IUnetvar@c_netvar@@U?$hash@I@std@@U?$equal_to@I@4@V?$allocator@U?$pair@$$CBIUnetvar@c_netvar@@@std@@@4@@std@@@std@@PAX@2@@Z 1000a6a0 f i aimbot_recode.obj
 0001:000096a0       ??0_Range_eraser@?$_Hash@V?$_Umap_traits@IVc_font@@V?$_Uhash_compare@IU?$hash@I@std@@U?$equal_to@I@2@@std@@V?$allocator@U?$pair@$$CBIVc_font@@@std@@@3@$0A@@std@@@std@@QAE@AAV?$list@U?$pair@$$CBIVc_font@@@std@@V?$allocator@U?$pair@$$CBIVc_font@@@std@@@2@@2@QAU?$_List_node@U?$pair@$$CBIVc_font@@@std@@PAX@2@@Z 1000a6a0 f i c_renderer.obj
 0001:000096a0       ??0_Range_eraser@?$_Hash@V?$_Umap_traits@IUanimation_info@c_animation_system@@V?$_Uhash_compare@IU?$hash@I@std@@U?$equal_to@I@2@@std@@V?$allocator@U?$pair@$$CBIUanimation_info@c_animation_system@@@std@@@4@$0A@@std@@@std@@QAE@AAV?$list@U?$pair@$$CBIUanimation_info@c_animation_system@@@std@@V?$allocator@U?$pair@$$CBIUanimation_info@c_animation_system@@@std@@@2@@2@QAU?$_List_node@U?$pair@$$CBIUanimation_info@c_animation_system@@@std@@PAX@2@@Z 1000a6a0 f i c_animation_system.obj
 0001:000096d0       ??0animation@c_animation_system@@QAE@XZ 1000a6d0 f i aimbot_recode.obj
 0001:000099e0       ??0animation_layer@c_base_animating@@QAE@XZ 1000a9e0 f i aimbot_recode.obj
 0001:00009a60       ??0bad_optional_access@std@@QAE@ABV01@@Z 1000aa60 f i aimbot_recode.obj
 0001:00009a90       ??0bad_optional_access@std@@QAE@XZ 1000aa90 f i aimbot_recode.obj
 0001:00009ab0       ??0c_animation_system@@QAE@XZ 1000aab0 f i aimbot_recode.obj
 0001:00009b60       ??0c_vector3d@@QAE@MMM@Z   1000ab60 f i aimbot_recode.obj
 0001:00009ba0       ??0c_vector3d@@QAE@XZ      1000aba0 f i aimbot_recode.obj
 0001:00009be0       ??0esp_info@c_esp@@QAE@XZ  1000abe0 f i aimbot_recode.obj
 0001:00009c70       ??0exception@std@@QAE@XZ   1000ac70 f i aimbot_recode.obj
 0001:00009ca0       ??0mutex@std@@QAE@XZ       1000aca0 f i aimbot_recode.obj
 0001:00009cc0       ??1?$_Alloc_construct_ptr@V?$allocator@U?$_List_node@U?$pair@$$CBIUnetvar@c_netvar@@@std@@PAX@std@@@std@@@std@@QAE@XZ 1000acc0 f i aimbot_recode.obj
 0001:00009d20       ??1?$_Alloc_construct_ptr@V?$allocator@U?$_List_node@U?$pair@$$CBIV?$unordered_map@IUnetvar@c_netvar@@U?$hash@I@std@@U?$equal_to@I@4@V?$allocator@U?$pair@$$CBIUnetvar@c_netvar@@@std@@@4@@std@@@std@@PAX@std@@@std@@@std@@QAE@XZ 1000ad20 f i aimbot_recode.obj
 0001:00009d80       ??1?$_Func_class@XPAVc_client_entity@@@std@@QAE@XZ 1000ad80 f i c_esp.obj
 0001:00009d80       ??1?$_Func_class@_NHW4parse_event_t@?$parser@V?$basic_json@Vmap@std@@Vvector@2@V?$basic_string@DU?$char_traits@D@std@@V?$allocator@D@2@@2@_N_J_KNVallocator@2@Uadl_serializer@nlohmann@@@nlohmann@@@detail@nlohmann@@AAV?$basic_json@Vmap@std@@Vvector@2@V?$basic_string@DU?$char_traits@D@std@@V?$allocator@D@2@@2@_N_J_KNVallocator@2@Uadl_serializer@nlohmann@@@4@@std@@QAE@XZ 1000ad80 f i c_menu.obj
 0001:00009d80       ??1?$_Func_class@XI@std@@QAE@XZ 1000ad80 f i c_fake_ping.obj
 0001:00009d80       ??1?$_Func_class@X$$V@std@@QAE@XZ 1000ad80 f i c_chams.obj
 0001:00009d80       ??1?$_Func_class@XPAVc_cs_player@@@std@@QAE@XZ 1000ad80 f i aimbot_recode.obj
 0001:00009da0       ??1?$_Hash@V?$_Umap_traits@IUanimation_info@c_animation_system@@V?$_Uhash_compare@IU?$hash@I@std@@U?$equal_to@I@2@@std@@V?$allocator@U?$pair@$$CBIUanimation_info@c_animation_system@@@std@@@4@$0A@@std@@@std@@QAE@XZ 1000ada0 f i aimbot_recode.obj
 0001:00009dd0       ??1?$_List_node_emplace_op2@V?$allocator@U?$_List_node@U?$pair@$$CBIUnetvar@c_netvar@@@std@@PAX@std@@@std@@@std@@QAE@XZ 1000add0 f i aimbot_recode.obj
 0001:00009e50       ??1?$_List_node_emplace_op2@V?$allocator@U?$_List_node@U?$pair@$$CBIV?$unordered_map@IUnetvar@c_netvar@@U?$hash@I@std@@U?$equal_to@I@4@V?$allocator@U?$pair@$$CBIUnetvar@c_netvar@@@std@@@4@@std@@@std@@PAX@std@@@std@@@std@@QAE@XZ 1000ae50 f i aimbot_recode.obj
 0001:00009ed0       ??1?$_Uninitialized_backout@PAV?$_List_unchecked_iterator@V?$_List_val@U?$_List_simple_types@U?$pair@$$CBIV?$unordered_map@IUnetvar@c_netvar@@U?$hash@I@std@@U?$equal_to@I@4@V?$allocator@U?$pair@$$CBIUnetvar@c_netvar@@@std@@@4@@std@@@std@@@std@@@std@@@std@@@std@@QAE@XZ 1000aed0 f i aimbot_recode.obj
 0001:00009ed0       ??1?$_Uninitialized_backout@PAV?$_List_unchecked_iterator@V?$_List_val@U?$_List_simple_types@U?$pair@$$CBIUnetvar@c_netvar@@@std@@@std@@@std@@@std@@@std@@QAE@XZ 1000aed0 f i aimbot_recode.obj
 0001:00009ed0       ??1?$_Uninitialized_backout@PAV?$_List_unchecked_iterator@V?$_List_val@U?$_List_simple_types@U?$pair@$$CBIUanimation_info@c_animation_system@@@std@@@std@@@std@@@std@@@std@@QAE@XZ 1000aed0 f i aimbot_recode.obj
 0001:00009ed0       ??1?$_Uninitialized_backout@PAV?$_List_unchecked_iterator@V?$_List_val@U?$_List_simple_types@U?$pair@$$CBIVc_font@@@std@@@std@@@std@@@std@@@std@@QAE@XZ 1000aed0 f i c_renderer.obj
 0001:00009ed0       ??1?$_Uninitialized_backout@PAV?$_List_unchecked_iterator@V?$_List_val@U?$_List_simple_types@U?$pair@QAVc_hotkey_select@@V?$function@$$A6AXI@Z@std@@@std@@@std@@@std@@@std@@@std@@QAE@XZ 1000aed0 f i c_hotkeys.obj
 0001:00009ed0       ??1?$_Uninitialized_backout@PAV?$_List_unchecked_iterator@V?$_List_val@U?$_List_simple_types@U?$pair@$$CBIPAVCD3DFont@@@std@@@std@@@std@@@std@@@std@@QAE@XZ 1000aed0 f i c_renderer.obj
 0001:00009ef0       ??1?$_Uninitialized_backout_al@V?$allocator@U?$pair@PAVc_cs_player@@M@std@@@std@@@std@@QAE@XZ 1000aef0 f i c_chams.obj
 0001:00009ef0       ??1?$_Uninitialized_backout_al@V?$allocator@Vc_vector3d@@@std@@@std@@QAE@XZ 1000aef0 f i aimbot_recode.obj
 0001:00009ef0       ??1?$_Uninitialized_backout_al@V?$allocator@Uplayer_info@c_esp@@@std@@@std@@QAE@XZ 1000aef0 f i c_esp.obj
 0001:00009ef0       ??1?$_Uninitialized_backout_al@V?$allocator@Udamage_infos@@@std@@@std@@QAE@XZ 1000aef0 f i c_esp.obj
 0001:00009ef0       ??1?$_Uninitialized_backout_al@V?$allocator@Uaim_info@c_aimhelper@@@std@@@std@@QAE@XZ 1000aef0 f i c_aimhelper.obj
 0001:00009ef0       ??1?$_Uninitialized_backout_al@V?$allocator@Vc_vector2d@@@std@@@std@@QAE@XZ 1000aef0 f i c_renderer.obj
 0001:00009ef0       ??1?$_Uninitialized_backout_al@V?$allocator@V?$tuple@MMM@std@@@std@@@std@@QAE@XZ 1000aef0 f i c_aimhelper.obj
 0001:00009ef0       ??1?$_Uninitialized_backout_al@V?$allocator@Unade_info@c_esp@@@std@@@std@@QAE@XZ 1000aef0 f i c_esp.obj
 0001:00009f20       ??1?$deque@Uanimation@c_animation_system@@V?$allocator@Uanimation@c_animation_system@@@std@@@std@@QAE@XZ 1000af20 f i aimbot_recode.obj
 0001:00009fa0       ??1?$deque@Ushot@resolver@@V?$allocator@Ushot@resolver@@@std@@@std@@QAE@XZ 1000afa0 f i aimbot_recode.obj
 0001:0000a020       ??1?$function@$$A6AXI@Z@std@@QAE@XZ 1000b020 f i c_fake_ping.obj
 0001:0000a020       ??1?$function@$$A6AXXZ@std@@QAE@XZ 1000b020 f i c_chams.obj
 0001:0000a020       ??1?$function@$$A6A_NHW4parse_event_t@?$parser@V?$basic_json@Vmap@std@@Vvector@2@V?$basic_string@DU?$char_traits@D@std@@V?$allocator@D@2@@2@_N_J_KNVallocator@2@Uadl_serializer@nlohmann@@@nlohmann@@@detail@nlohmann@@AAV?$basic_json@Vmap@std@@Vvector@2@V?$basic_string@DU?$char_traits@D@std@@V?$allocator@D@2@@2@_N_J_KNVallocator@2@Uadl_serializer@nlohmann@@@4@@Z@std@@QAE@XZ 1000b020 f i c_menu.obj
 0001:0000a020       ??1?$function@$$A6AXPAVc_cs_player@@@Z@std@@QAE@XZ 1000b020 f i aimbot_recode.obj
 0001:0000a020       ??1?$function@$$A6AXPAVc_client_entity@@@Z@std@@QAE@XZ 1000b020 f i c_esp.obj
 0001:0000a040       ??1?$list@U?$pair@$$CBIUanimation_info@c_animation_system@@@std@@V?$allocator@U?$pair@$$CBIUanimation_info@c_animation_system@@@std@@@2@@std@@QAE@XZ 1000b040 f i aimbot_recode.obj
 0001:0000a060       ??1?$pair@$$CBIUanimation_info@c_animation_system@@@std@@QAE@XZ 1000b060 f i aimbot_recode.obj
 0001:0000a080       ??1?$unordered_map@IUanimation_info@c_animation_system@@U?$hash@I@std@@U?$equal_to@I@4@V?$allocator@U?$pair@$$CBIUanimation_info@c_animation_system@@@std@@@4@@std@@QAE@XZ 1000b080 f i aimbot_recode.obj
 0001:0000a0a0       ??1?$vector@MV?$allocator@M@std@@@std@@QAE@XZ 1000b0a0 f i c_font.obj
 0001:0000a0a0       ??1?$vector@PAVLua_Hook@@V?$allocator@PAVLua_Hook@@@std@@@std@@QAE@XZ 1000b0a0 f i LuaAPI.obj
 0001:0000a0a0       ??1?$vector@W4hitbox@c_cs_player@@V?$allocator@W4hitbox@c_cs_player@@@std@@@std@@QAE@XZ 1000b0a0 f i aimbot_recode.obj
 0001:0000a0a0       ??1?$vector@PAUanimation@c_animation_system@@V?$allocator@PAUanimation@c_animation_system@@@std@@@std@@QAE@XZ 1000b0a0 f i c_aimhelper.obj
 0001:0000a0a0       ??1?$vector@HV?$allocator@H@std@@@std@@QAE@XZ 1000b0a0 f i aimbot_recode.obj
 0001:0000a0c0       ??1?$vector@Uimpact_info@@V?$allocator@Uimpact_info@@@std@@@std@@QAE@XZ 1000b0c0 f i c_hitmarker.obj
 0001:0000a0c0       ??1?$vector@Unade_info@c_esp@@V?$allocator@Unade_info@c_esp@@@std@@@std@@QAE@XZ 1000b0c0 f i aimbot_recode.obj
 0001:0000a0e0       ??1?$vector@Uplayer_info@c_esp@@V?$allocator@Uplayer_info@c_esp@@@std@@@std@@QAE@XZ 1000b0e0 f i aimbot_recode.obj
 0001:0000a100       ??1?$vector@Vc_vector3d@@V?$allocator@Vc_vector3d@@@std@@@std@@QAE@XZ 1000b100 f i aimbot_recode.obj
 0001:0000a100       ??1?$vector@V?$tuple@MMM@std@@V?$allocator@V?$tuple@MMM@std@@@2@@std@@QAE@XZ 1000b100 f i c_aimhelper.obj
 0001:0000a120       ??1_Clear_guard@?$_Hash@V?$_Umap_traits@IUnetvar@c_netvar@@V?$_Uhash_compare@IU?$hash@I@std@@U?$equal_to@I@2@@std@@V?$allocator@U?$pair@$$CBIUnetvar@c_netvar@@@std@@@4@$0A@@std@@@std@@QAE@XZ 1000b120 f i aimbot_recode.obj
 0001:0000a140       ??1_Clear_guard@?$_Hash@V?$_Umap_traits@IV?$unordered_map@IUnetvar@c_netvar@@U?$hash@I@std@@U?$equal_to@I@4@V?$allocator@U?$pair@$$CBIUnetvar@c_netvar@@@std@@@4@@std@@V?$_Uhash_compare@IU?$hash@I@std@@U?$equal_to@I@2@@2@V?$allocator@U?$pair@$$CBIV?$unordered_map@IUnetvar@c_netvar@@U?$hash@I@std@@U?$equal_to@I@4@V?$allocator@U?$pair@$$CBIUnetvar@c_netvar@@@std@@@4@@std@@@std@@@2@$0A@@std@@@std@@QAE@XZ 1000b140 f i aimbot_recode.obj
 0001:0000a160       ??1_Mutex_base@std@@QAE@XZ 1000b160 f i aimbot_recode.obj
 0001:0000a180       ??1_Range_eraser@?$_Hash@V?$_Umap_traits@IUnetvar@c_netvar@@V?$_Uhash_compare@IU?$hash@I@std@@U?$equal_to@I@2@@std@@V?$allocator@U?$pair@$$CBIUnetvar@c_netvar@@@std@@@4@$0A@@std@@@std@@QAE@XZ 1000b180 f i aimbot_recode.obj
 0001:0000a180       ??1_Range_eraser@?$_Hash@V?$_Umap_traits@IUanimation_info@c_animation_system@@V?$_Uhash_compare@IU?$hash@I@std@@U?$equal_to@I@2@@std@@V?$allocator@U?$pair@$$CBIUanimation_info@c_animation_system@@@std@@@4@$0A@@std@@@std@@QAE@XZ 1000b180 f i c_animation_system.obj
 0001:0000a180       ??1_Range_eraser@?$_Hash@V?$_Umap_traits@IV?$unordered_map@IUnetvar@c_netvar@@U?$hash@I@std@@U?$equal_to@I@4@V?$allocator@U?$pair@$$CBIUnetvar@c_netvar@@@std@@@4@@std@@V?$_Uhash_compare@IU?$hash@I@std@@U?$equal_to@I@2@@2@V?$allocator@U?$pair@$$CBIV?$unordered_map@IUnetvar@c_netvar@@U?$hash@I@std@@U?$equal_to@I@4@V?$allocator@U?$pair@$$CBIUnetvar@c_netvar@@@std@@@4@@std@@@std@@@2@$0A@@std@@@std@@QAE@XZ 1000b180 f i aimbot_recode.obj
 0001:0000a180       ??1_Range_eraser@?$_Hash@V?$_Umap_traits@PAVc_hotkey_select@@V?$function@$$A6AXI@Z@std@@V?$_Uhash_compare@PAVc_hotkey_select@@U?$hash@PAVc_hotkey_select@@@std@@U?$equal_to@PAVc_hotkey_select@@@3@@3@V?$allocator@U?$pair@QAVc_hotkey_select@@V?$function@$$A6AXI@Z@std@@@std@@@3@$0A@@std@@@std@@QAE@XZ 1000b180 f i c_hotkeys.obj
 0001:0000a180       ??1_Range_eraser@?$_Hash@V?$_Umap_traits@IVc_font@@V?$_Uhash_compare@IU?$hash@I@std@@U?$equal_to@I@2@@std@@V?$allocator@U?$pair@$$CBIVc_font@@@std@@@3@$0A@@std@@@std@@QAE@XZ 1000b180 f i c_renderer.obj
 0001:0000a1b0       ??1animation_info@c_animation_system@@QAE@XZ 1000b1b0 f i aimbot_recode.obj
 0001:0000a1d0       ??1c_animation_system@@QAE@XZ 1000b1d0 f i aimbot_recode.obj
 0001:0000a1f0       ??1chams@chams_conf@config_conf@c_config@@QAE@XZ 1000b1f0 f i aimbot_recode.obj
 0001:0000a220       ??1chams_conf@config_conf@c_config@@QAE@XZ 1000b220 f i aimbot_recode.obj
 0001:0000a270       ??1config_conf@c_config@@QAE@XZ 1000b270 f i aimbot_recode.obj
 0001:0000a2a0       ??1esp_conf@config_conf@c_config@@QAE@XZ 1000b2a0 f i aimbot_recode.obj
 0001:0000a370       ??1esp_info@c_esp@@QAE@XZ  1000b370 f i aimbot_recode.obj
 0001:0000a3a0       ??1misc_conf@config_conf@c_config@@QAE@XZ 1000b3a0 f i aimbot_recode.obj
 0001:0000a3e0       ??1mutex@std@@QAE@XZ       1000b3e0 f i aimbot_recode.obj
 0001:0000a400       ??1server_info_t@shot@resolver@@QAE@XZ 1000b400 f i aimbot_recode.obj
 0001:0000a420       ??1shot@resolver@@QAE@XZ   1000b420 f i aimbot_recode.obj
 0001:0000a440       ??4?$optional@M@std@@QAEAAV01@Unullopt_t@1@@Z 1000b440 f i aimbot_recode.obj
 0001:0000a460       ??8?$_List_const_iterator@V?$_List_val@U?$_List_simple_types@U?$pair@$$CBIUanimation_info@c_animation_system@@@std@@@std@@@std@@@std@@QBE_NABV01@@Z 1000b460 f i c_animation_system.obj
 0001:0000a460       ??8?$_List_unchecked_const_iterator@V?$_List_val@U?$_List_simple_types@U?$pair@$$CBIV?$unordered_map@IUnetvar@c_netvar@@U?$hash@I@std@@U?$equal_to@I@4@V?$allocator@U?$pair@$$CBIUnetvar@c_netvar@@@std@@@4@@std@@@std@@@std@@@std@@U_Iterator_base0@2@@std@@QBE_NABV01@@Z 1000b460 f i aimbot_recode.obj
 0001:0000a460       ??8?$_Tree_const_iterator@V?$_Tree_val@U?$_Tree_simple_types@U?$pair@$$CBHH@std@@@std@@@std@@@std@@QBE_NABV01@@Z 1000b460 f i c_prediction_.obj
 0001:0000a460       ??8?$_List_unchecked_const_iterator@V?$_List_val@U?$_List_simple_types@U?$pair@QAVc_hotkey_select@@V?$function@$$A6AXI@Z@std@@@std@@@std@@@std@@U_Iterator_base0@2@@std@@QBE_NABV01@@Z 1000b460 f i c_hotkeys.obj
 0001:0000a460       ??8?$_List_unchecked_const_iterator@V?$_List_val@U?$_List_simple_types@U?$pair@$$CBIUanimation_info@c_animation_system@@@std@@@std@@@std@@U_Iterator_base0@2@@std@@QBE_NABV01@@Z 1000b460 f i c_animation_system.obj
 0001:0000a460       ??8?$_List_unchecked_const_iterator@V?$_List_val@U?$_List_simple_types@U?$pair@$$CBIUnetvar@c_netvar@@@std@@@std@@@std@@U_Iterator_base0@2@@std@@QBE_NABV01@@Z 1000b460 f i aimbot_recode.obj
 0001:0000a460       ??8?$_List_unchecked_const_iterator@V?$_List_val@U?$_List_simple_types@U?$pair@$$CBIVc_font@@@std@@@std@@@std@@U_Iterator_base0@2@@std@@QBE_NABV01@@Z 1000b460 f i c_renderer.obj
 0001:0000a460       ??8?$_List_unchecked_const_iterator@V?$_List_val@U?$_List_simple_types@U?$pair@$$CBIPAVCD3DFont@@@std@@@std@@@std@@U_Iterator_base0@2@@std@@QBE_NABV01@@Z 1000b460 f i c_renderer.obj
 0001:0000a460       ??8?$_Tree_const_iterator@V?$_Tree_val@U?$_Tree_simple_types@U?$pair@$$CBV?$basic_string@DU?$char_traits@D@std@@V?$allocator@D@2@@std@@V?$basic_json@Vmap@std@@Vvector@2@V?$basic_string@DU?$char_traits@D@std@@V?$allocator@D@2@@2@_N_J_KNVallocator@2@Uadl_serializer@nlohmann@@@nlohmann@@@std@@@std@@@std@@@std@@QBE_NABV01@@Z 1000b460 f i c_menu.obj
 0001:0000a490       ??9?$_List_unchecked_const_iterator@V?$_List_val@U?$_List_simple_types@U?$pair@QAVc_hotkey_select@@V?$function@$$A6AXI@Z@std@@@std@@@std@@@std@@U_Iterator_base0@2@@std@@QBE_NABV01@@Z 1000b490 f i c_hotkeys.obj
 0001:0000a490       ??9?$_List_unchecked_const_iterator@V?$_List_val@U?$_List_simple_types@U?$pair@$$CBIUnetvar@c_netvar@@@std@@@std@@@std@@U_Iterator_base0@2@@std@@QBE_NABV01@@Z 1000b490 f i aimbot_recode.obj
 0001:0000a490       ??9?$_List_unchecked_const_iterator@V?$_List_val@U?$_List_simple_types@U?$pair@$$CBIVc_font@@@std@@@std@@@std@@U_Iterator_base0@2@@std@@QBE_NABV01@@Z 1000b490 f i c_renderer.obj
 0001:0000a490       ??9?$_List_unchecked_const_iterator@V?$_List_val@U?$_List_simple_types@U?$pair@$$CBIPAVCD3DFont@@@std@@@std@@@std@@U_Iterator_base0@2@@std@@QBE_NABV01@@Z 1000b490 f i c_renderer.obj
 0001:0000a490       ??9?$_List_unchecked_const_iterator@V?$_List_val@U?$_List_simple_types@U?$pair@$$CBIUanimation_info@c_animation_system@@@std@@@std@@@std@@U_Iterator_base0@2@@std@@QBE_NABV01@@Z 1000b490 f i c_animation_system.obj
 0001:0000a490       ??9?$_List_const_iterator@V?$_List_val@U?$_List_simple_types@U?$pair@$$CBIUanimation_info@c_animation_system@@@std@@@std@@@std@@@std@@QBE_NABV01@@Z 1000b490 f i c_animation_system.obj
 0001:0000a490       ??9?$_Tree_const_iterator@V?$_Tree_val@U?$_Tree_simple_types@U?$pair@$$CBHH@std@@@std@@@std@@@std@@QBE_NABV01@@Z 1000b490 f i c_prediction_.obj
 0001:0000a490       ??9?$_List_unchecked_const_iterator@V?$_List_val@U?$_List_simple_types@U?$pair@$$CBIV?$unordered_map@IUnetvar@c_netvar@@U?$hash@I@std@@U?$equal_to@I@4@V?$allocator@U?$pair@$$CBIUnetvar@c_netvar@@@std@@@4@@std@@@std@@@std@@@std@@U_Iterator_base0@2@@std@@QBE_NABV01@@Z 1000b490 f i aimbot_recode.obj
 0001:0000a4d0       ??A?$array@D$0DD@@std@@QAEAADI@Z 1000b4d0 f i c_cs_player_.obj
 0001:0000a4d0       ??A?$array@D$04@std@@QAEAADI@Z 1000b4d0 f i c_resolver.obj
 0001:0000a4d0       ??A?$array@D$0EO@@std@@QAEAADI@Z 1000b4d0 f i c_events.obj
 0001:0000a4d0       ??A?$array@D$0DC@@std@@QAEAADI@Z 1000b4d0 f i c_antiaim.obj
 0001:0000a4d0       ??A?$array@D$0M@@std@@QAEAADI@Z 1000b4d0 f i c_chams.obj
 0001:0000a4d0       ??A?$array@D$0EA@@std@@QAEAADI@Z 1000b4d0 f i c_menu.obj
 0001:0000a4d0       ??A?$array@D$0BG@@std@@QAEAADI@Z 1000b4d0 f i c_miscellaneous.obj
 0001:0000a4d0       ??A?$array@D$0P@@std@@QAEAADI@Z 1000b4d0 f i c_miscellaneous.obj
 0001:0000a4d0       ??A?$array@D$0DG@@std@@QAEAADI@Z 1000b4d0 f i c_miscellaneous.obj
 0001:0000a4d0       ??A?$array@D$0EE@@std@@QAEAADI@Z 1000b4d0 f i c_resolver.obj
 0001:0000a4d0       ??A?$array@D$0DA@@std@@QAEAADI@Z 1000b4d0 f i c_animation_system.obj
 0001:0000a4d0       ??A?$array@D$08@std@@QAEAADI@Z 1000b4d0 f i c_damageesp.obj
 0001:0000a4d0       ??A?$array@D$0BA@@std@@QAEAADI@Z 1000b4d0 f i c_trace_system.obj
 0001:0000a4d0       ??A?$array@D$0O@@std@@QAEAADI@Z 1000b4d0 f i c_chams.obj
 0001:0000a4d0       ??A?$array@D$0DO@@std@@QAEAADI@Z 1000b4d0 f i c_resolver.obj
 0001:0000a4d0       ??A?$array@D$02@std@@QAEAADI@Z 1000b4d0 f i c_resolver.obj
 0001:0000a4d0       ??A?$array@D$0BP@@std@@QAEAADI@Z 1000b4d0 f i c_client.obj
 0001:0000a4d0       ??A?$array@D$0CO@@std@@QAEAADI@Z 1000b4d0 f i c_view_render_.obj
 0001:0000a4d0       ??A?$array@D$0BJ@@std@@QAEAADI@Z 1000b4d0 f i c_animation_system.obj
 0001:0000a4d0       ??A?$array@D$07@std@@QAEAADI@Z 1000b4d0 f i c_esp.obj
 0001:0000a4d0       ??A?$array@D$0BL@@std@@QAEAADI@Z 1000b4d0 f i c_miscellaneous.obj
 0001:0000a4d0       ??A?$array@D$0CK@@std@@QAEAADI@Z 1000b4d0 f i c_cs_player_.obj
 0001:0000a4d0       ??A?$array@D$0CC@@std@@QAEAADI@Z 1000b4d0 f i LuaAPI.obj
 0001:0000a4d0       ??A?$array@D$09@std@@QAEAADI@Z 1000b4d0 f i c_chams.obj
 0001:0000a4d0       ??A?$array@D$0BN@@std@@QAEAADI@Z 1000b4d0 f i aimbot_recode.obj
 0001:0000a4d0       ??A?$array@D$0DE@@std@@QAEAADI@Z 1000b4d0 f i c_miscellaneous.obj
 0001:0000a4d0       ??A?$array@D$00@std@@QAEAADI@Z 1000b4d0 f i c_select.obj
 0001:0000a4d0       ??A?$array@D$0L@@std@@QAEAADI@Z 1000b4d0 f i aimbot_recode.obj
 0001:0000a4d0       ??A?$array@D$0BH@@std@@QAEAADI@Z 1000b4d0 f i c_prediction_system.obj
 0001:0000a4d0       ??A?$array@D$0FG@@std@@QAEAADI@Z 1000b4d0 f i c_resolver.obj
 0001:0000a4d0       ??A?$array@D$0BD@@std@@QAEAADI@Z 1000b4d0 f i c_miscellaneous.obj
 0001:0000a4d0       ??A?$array@D$06@std@@QAEAADI@Z 1000b4d0 f i c_damageesp.obj
 0001:0000a4d0       ??A?$array@E$0BJA@@std@@QBEABEI@Z 1000b4d0 f i c_menu.obj
 0001:0000a4d0       ??A?$array@D$05@std@@QAEAADI@Z 1000b4d0 f i c_damageesp.obj
 0001:0000a4d0       ??A?$array@D$0BE@@std@@QAEAADI@Z 1000b4d0 f i c_aimhelper.obj
 0001:0000a4d0       ??A?$array@D$0CB@@std@@QAEAADI@Z 1000b4d0 f i c_esp.obj
 0001:0000a4d0       ??A?$array@D$0BFO@@std@@QAEAADI@Z 1000b4d0 f i c_log.obj
 0001:0000a4d0       ??A?$array@D$0BM@@std@@QAEAADI@Z 1000b4d0 f i c_resolver.obj
 0001:0000a4d0       ??A?$array@D$0N@@std@@QAEAADI@Z 1000b4d0 f i c_prediction_system.obj
 0001:0000a4d0       ??A?$array@D$0BB@@std@@QAEAADI@Z 1000b4d0 f i c_hitmarker.obj
 0001:0000a4d0       ??A?$array@D$0CI@@std@@QAEAADI@Z 1000b4d0 f i c_miscellaneous.obj
 0001:0000a4d0       ??A?$array@D$03@std@@QAEAADI@Z 1000b4d0 f i c_resolver.obj
 0001:0000a4d0       ??A?$array@D$0CF@@std@@QAEAADI@Z 1000b4d0 f i c_events.obj
 0001:0000a4d0       ??A?$array@D$0BK@@std@@QAEAADI@Z 1000b4d0 f i c_animation_system.obj
 0001:0000a4d0       ??A?$array@D$0PP@@std@@QAEAADI@Z 1000b4d0 f i c_model_render_.obj
 0001:0000a4d0       ??A?$array@D$0CN@@std@@QAEAADI@Z 1000b4d0 f i c_animation_system.obj
 0001:0000a4d0       ??A?$array@D$0BF@@std@@QAEAADI@Z 1000b4d0 f i c_resolver.obj
 0001:0000a4d0       ??A?$array@D$01@std@@QAEAADI@Z 1000b4d0 f i c_damageesp.obj
 0001:0000a4d0       ??A?$array@D$0CM@@std@@QAEAADI@Z 1000b4d0 f i c_miscellaneous.obj
 0001:0000a4d0       ??A?$array@D$0BC@@std@@QAEAADI@Z 1000b4d0 f i c_chams.obj
 0001:0000a4d0       ??A?$array@D$0CJ@@std@@QAEAADI@Z 1000b4d0 f i c_miscellaneous.obj
 0001:0000a4d0       ??A?$array@D$0FF@@std@@QAEAADI@Z 1000b4d0 f i c_log.obj
 0001:0000a4d0       ??A?$array@D$0CD@@std@@QAEAADI@Z 1000b4d0 f i c_antiaim.obj
 0001:0000a4d0       ??A?$array@D$0CG@@std@@QAEAADI@Z 1000b4d0 f i cte_effects.obj
 0001:0000a4d0       ??A?$array@D$0BO@@std@@QAEAADI@Z 1000b4d0 f i c_prediction_system.obj
 0001:0000a4d0       ??A?$array@D$0BI@@std@@QAEAADI@Z 1000b4d0 f i c_chams.obj
 0001:0000a4d0       ??A?$array@D$0CAA@@std@@QAEAADI@Z 1000b4d0 f i c_menu.obj
 0001:0000a4d0       ??A?$array@D$0CH@@std@@QAEAADI@Z 1000b4d0 f i c_animation_system.obj
 0001:0000a4f0       ??A?$basic_string@DU?$char_traits@D@std@@V?$allocator@D@2@@std@@QBEABDI@Z 1000b4f0 f i c_esp.obj
 0001:0000a4f0       ??A?$basic_string@DU?$char_traits@D@std@@V?$allocator@D@2@@std@@QAEAADI@Z 1000b4f0 f i aimbot_recode.obj
 0001:0000a540       ??A?$unordered_map@IUnetvar@c_netvar@@U?$hash@I@std@@U?$equal_to@I@4@V?$allocator@U?$pair@$$CBIUnetvar@c_netvar@@@std@@@4@@std@@QAEAAUnetvar@c_netvar@@$$QAI@Z 1000b540 f i aimbot_recode.obj
 0001:0000a570       ??A?$unordered_map@IV?$unordered_map@IUnetvar@c_netvar@@U?$hash@I@std@@U?$equal_to@I@4@V?$allocator@U?$pair@$$CBIUnetvar@c_netvar@@@std@@@4@@std@@U?$hash@I@2@U?$equal_to@I@2@V?$allocator@U?$pair@$$CBIV?$unordered_map@IUnetvar@c_netvar@@U?$hash@I@std@@U?$equal_to@I@4@V?$allocator@U?$pair@$$CBIUnetvar@c_netvar@@@std@@@4@@std@@@std@@@2@@std@@QAEAAV?$unordered_map@IUnetvar@c_netvar@@U?$hash@I@std@@U?$equal_to@I@4@V?$allocator@U?$pair@$$CBIUnetvar@c_netvar@@@std@@@4@@1@$$QAI@Z 1000b570 f i aimbot_recode.obj
 0001:0000a5a0       ??A?$vector@V?$vector@MV?$allocator@M@std@@@std@@V?$allocator@V?$vector@MV?$allocator@M@std@@@std@@@2@@std@@QAEAAV?$vector@MV?$allocator@M@std@@@1@I@Z 1000b5a0 f i c_font.obj
 0001:0000a5a0       ??A?$vector@V?$tuple@MMM@std@@V?$allocator@V?$tuple@MMM@std@@@2@@std@@QAEAAV?$tuple@MMM@1@I@Z 1000b5a0 f i c_aimhelper.obj
 0001:0000a5a0       ??A?$vector@Vc_vector3d@@V?$allocator@Vc_vector3d@@@std@@@std@@QAEAAVc_vector3d@@I@Z 1000b5a0 f i aimbot_recode.obj
 0001:0000a5c0       ??Amatrix3x4@@QAEPAMH@Z    1000b5c0 f i c_aimhelper.obj
 0001:0000a5c0       ??Aviewmatrix@@QAEPAMH@Z   1000b5c0 f i c_damageesp.obj
 0001:0000a5c0       ??Amatrix3x4@@QBEPBMH@Z    1000b5c0 f i aimbot_recode.obj
 0001:0000a5e0       ??D?$_List_unchecked_const_iterator@V?$_List_val@U?$_List_simple_types@U?$pair@$$CBIVc_font@@@std@@@std@@@std@@U_Iterator_base0@2@@std@@QBEABU?$pair@$$CBIVc_font@@@1@XZ 1000b5e0 f i c_renderer.obj
 0001:0000a5e0       ??D?$_List_unchecked_const_iterator@V?$_List_val@U?$_List_simple_types@U?$pair@$$CBIPAVCD3DFont@@@std@@@std@@@std@@U_Iterator_base0@2@@std@@QBEABU?$pair@$$CBIPAVCD3DFont@@@1@XZ 1000b5e0 f i c_renderer.obj
 0001:0000a5e0       ??D?$_List_unchecked_const_iterator@V?$_List_val@U?$_List_simple_types@U?$pair@QAVc_hotkey_select@@V?$function@$$A6AXI@Z@std@@@std@@@std@@@std@@U_Iterator_base0@2@@std@@QBEABU?$pair@QAVc_hotkey_select@@V?$function@$$A6AXI@Z@std@@@1@XZ 1000b5e0 f i c_hotkeys.obj
 0001:0000a5e0       ??D?$_List_unchecked_const_iterator@V?$_List_val@U?$_List_simple_types@U?$pair@$$CBIUnetvar@c_netvar@@@std@@@std@@@std@@U_Iterator_base0@2@@std@@QBEABU?$pair@$$CBIUnetvar@c_netvar@@@1@XZ 1000b5e0 f i aimbot_recode.obj
 0001:0000a5e0       ??D?$_List_unchecked_const_iterator@V?$_List_val@U?$_List_simple_types@U?$pair@$$CBIV?$unordered_map@IUnetvar@c_netvar@@U?$hash@I@std@@U?$equal_to@I@4@V?$allocator@U?$pair@$$CBIUnetvar@c_netvar@@@std@@@4@@std@@@std@@@std@@@std@@U_Iterator_base0@2@@std@@QBEABU?$pair@$$CBIV?$unordered_map@IUnetvar@c_netvar@@U?$hash@I@std@@U?$equal_to@I@4@V?$allocator@U?$pair@$$CBIUnetvar@c_netvar@@@std@@@4@@std@@@1@XZ 1000b5e0 f i aimbot_recode.obj
 0001:0000a600       ??D?$_List_unchecked_iterator@V?$_List_val@U?$_List_simple_types@U?$pair@$$CBIVc_font@@@std@@@std@@@std@@@std@@QBEAAU?$pair@$$CBIVc_font@@@1@XZ 1000b600 f i c_renderer.obj
 0001:0000a600       ??D?$_List_unchecked_iterator@V?$_List_val@U?$_List_simple_types@U?$pair@QAVc_hotkey_select@@V?$function@$$A6AXI@Z@std@@@std@@@std@@@std@@@std@@QBEAAU?$pair@QAVc_hotkey_select@@V?$function@$$A6AXI@Z@std@@@1@XZ 1000b600 f i c_hotkeys.obj
 0001:0000a600       ??D?$_List_unchecked_iterator@V?$_List_val@U?$_List_simple_types@U?$pair@$$CBIUnetvar@c_netvar@@@std@@@std@@@std@@@std@@QBEAAU?$pair@$$CBIUnetvar@c_netvar@@@1@XZ 1000b600 f i aimbot_recode.obj
 0001:0000a600       ??D?$_List_unchecked_iterator@V?$_List_val@U?$_List_simple_types@U?$pair@$$CBIPAVCD3DFont@@@std@@@std@@@std@@@std@@QBEAAU?$pair@$$CBIPAVCD3DFont@@@1@XZ 1000b600 f i c_renderer.obj
 0001:0000a600       ??D?$_List_unchecked_iterator@V?$_List_val@U?$_List_simple_types@U?$pair@$$CBIV?$unordered_map@IUnetvar@c_netvar@@U?$hash@I@std@@U?$equal_to@I@4@V?$allocator@U?$pair@$$CBIUnetvar@c_netvar@@@std@@@4@@std@@@std@@@std@@@std@@@std@@QBEAAU?$pair@$$CBIV?$unordered_map@IUnetvar@c_netvar@@U?$hash@I@std@@U?$equal_to@I@4@V?$allocator@U?$pair@$$CBIUnetvar@c_netvar@@@std@@@4@@std@@@1@XZ 1000b600 f i aimbot_recode.obj
 0001:0000a620       ??Dc_vector3d@@QBE?AV0@M@Z 1000b620 f i aimbot_recode.obj
 0001:0000a670       ??E?$_List_unchecked_const_iterator@V?$_List_val@U?$_List_simple_types@U?$pair@$$CBIUnetvar@c_netvar@@@std@@@std@@@std@@U_Iterator_base0@2@@std@@QAEAAV01@XZ 1000b670 f i aimbot_recode.obj
 0001:0000a670       ??E?$_List_unchecked_const_iterator@V?$_List_val@U?$_List_simple_types@U?$pair@$$CBIPAVCD3DFont@@@std@@@std@@@std@@U_Iterator_base0@2@@std@@QAEAAV01@XZ 1000b670 f i c_renderer.obj
 0001:0000a670       ??E?$_List_unchecked_const_iterator@V?$_List_val@U?$_List_simple_types@U?$pair@$$CBIVc_font@@@std@@@std@@@std@@U_Iterator_base0@2@@std@@QAEAAV01@XZ 1000b670 f i c_renderer.obj
 0001:0000a670       ??E?$_List_unchecked_const_iterator@V?$_List_val@U?$_List_simple_types@U?$pair@$$CBIV?$unordered_map@IUnetvar@c_netvar@@U?$hash@I@std@@U?$equal_to@I@4@V?$allocator@U?$pair@$$CBIUnetvar@c_netvar@@@std@@@4@@std@@@std@@@std@@@std@@U_Iterator_base0@2@@std@@QAEAAV01@XZ 1000b670 f i aimbot_recode.obj
 0001:0000a670       ??E?$_List_unchecked_const_iterator@V?$_List_val@U?$_List_simple_types@U?$pair@QAVc_hotkey_select@@V?$function@$$A6AXI@Z@std@@@std@@@std@@@std@@U_Iterator_base0@2@@std@@QAEAAV01@XZ 1000b670 f i c_hotkeys.obj
 0001:0000a670       ??E?$_List_const_iterator@V?$_List_val@U?$_List_simple_types@U?$pair@$$CBIUanimation_info@c_animation_system@@@std@@@std@@@std@@@std@@QAEAAV01@XZ 1000b670 f i c_animation_system.obj
 0001:0000a670       ??E?$_List_unchecked_const_iterator@V?$_List_val@U?$_List_simple_types@U?$pair@$$CBIUanimation_info@c_animation_system@@@std@@@std@@@std@@U_Iterator_base0@2@@std@@QAEAAV01@XZ 1000b670 f i c_animation_system.obj
 0001:0000a690       ??E?$_List_iterator@V?$_List_val@U?$_List_simple_types@U?$pair@$$CBIUanimation_info@c_animation_system@@@std@@@std@@@std@@@std@@QAEAAV01@XZ 1000b690 f i c_animation_system.obj
 0001:0000a690       ??E?$_List_unchecked_iterator@V?$_List_val@U?$_List_simple_types@U?$pair@$$CBIUnetvar@c_netvar@@@std@@@std@@@std@@@std@@QAEAAV01@XZ 1000b690 f i aimbot_recode.obj
 0001:0000a690       ??E?$_List_unchecked_iterator@V?$_List_val@U?$_List_simple_types@U?$pair@$$CBIVc_font@@@std@@@std@@@std@@@std@@QAEAAV01@XZ 1000b690 f i c_renderer.obj
 0001:0000a690       ??E?$_List_unchecked_iterator@V?$_List_val@U?$_List_simple_types@U?$pair@$$CBIUanimation_info@c_animation_system@@@std@@@std@@@std@@@std@@QAEAAV01@XZ 1000b690 f i c_animation_system.obj
 0001:0000a690       ??E?$_List_unchecked_iterator@V?$_List_val@U?$_List_simple_types@U?$pair@$$CBIPAVCD3DFont@@@std@@@std@@@std@@@std@@QAEAAV01@XZ 1000b690 f i c_renderer.obj
 0001:0000a690       ??E?$_List_unchecked_iterator@V?$_List_val@U?$_List_simple_types@U?$pair@QAVc_hotkey_select@@V?$function@$$A6AXI@Z@std@@@std@@@std@@@std@@@std@@QAEAAV01@XZ 1000b690 f i c_hotkeys.obj
 0001:0000a690       ??E?$_List_unchecked_iterator@V?$_List_val@U?$_List_simple_types@U?$pair@$$CBIV?$unordered_map@IUnetvar@c_netvar@@U?$hash@I@std@@U?$equal_to@I@4@V?$allocator@U?$pair@$$CBIUnetvar@c_netvar@@@std@@@4@@std@@@std@@@std@@@std@@@std@@QAEAAV01@XZ 1000b690 f i aimbot_recode.obj
 0001:0000a6b0       ??F?$_List_unchecked_const_iterator@V?$_List_val@U?$_List_simple_types@U?$pair@$$CBIUnetvar@c_netvar@@@std@@@std@@@std@@U_Iterator_base0@2@@std@@QAEAAV01@XZ 1000b6b0 f i aimbot_recode.obj
 0001:0000a6b0       ??F?$_List_unchecked_const_iterator@V?$_List_val@U?$_List_simple_types@U?$pair@$$CBIVc_font@@@std@@@std@@@std@@U_Iterator_base0@2@@std@@QAEAAV01@XZ 1000b6b0 f i c_renderer.obj
 0001:0000a6b0       ??F?$_List_unchecked_const_iterator@V?$_List_val@U?$_List_simple_types@U?$pair@$$CBIV?$unordered_map@IUnetvar@c_netvar@@U?$hash@I@std@@U?$equal_to@I@4@V?$allocator@U?$pair@$$CBIUnetvar@c_netvar@@@std@@@4@@std@@@std@@@std@@@std@@U_Iterator_base0@2@@std@@QAEAAV01@XZ 1000b6b0 f i aimbot_recode.obj
 0001:0000a6b0       ??F?$_List_unchecked_const_iterator@V?$_List_val@U?$_List_simple_types@U?$pair@$$CBIUanimation_info@c_animation_system@@@std@@@std@@@std@@U_Iterator_base0@2@@std@@QAEAAV01@XZ 1000b6b0 f i c_animation_system.obj
 0001:0000a6d0       ??Gc_vector3d@@QBE?AV0@ABV0@@Z 1000b6d0 f i aimbot_recode.obj
 0001:0000a730       ??Hc_vector3d@@QBE?AV0@ABV0@@Z 1000b730 f i aimbot_recode.obj
 0001:0000a790       ??R<lambda_1>@?1??append@?$basic_string@DU?$char_traits@D@std@@V?$allocator@D@2@@std@@QAEAAV23@ID@Z@QBEXQADQBDIID@Z 1000b790 f i aimbot_recode.obj
 0001:0000a7f0       ??R<lambda_1>@?1??assign@?$basic_string@DU?$char_traits@D@std@@V?$allocator@D@2@@std@@QAEAAV23@QBDI@Z@QBEXQADI0@Z 1000b7f0 f i aimbot_recode.obj
 0001:0000a830       ??R<lambda_1>@?1??find_sig@memory@@YAPAEIPBDI@Z@QBE?AV?$vector@HV?$allocator@H@std@@@std@@0@Z 1000b830 f i aimbot_recode.obj
 0001:0000a960       ??R?$_Conditionally_enabled_hash@I$00@std@@QBEIABI@Z 1000b960 f i aimbot_recode.obj
 0001:0000a960       ??R?$_Conditionally_enabled_hash@PAVc_hotkey_select@@$00@std@@QBEIABQAVc_hotkey_select@@@Z 1000b960 f i c_hotkeys.obj
 0001:0000a980       ??R?$_Func_class@XPAVc_client_entity@@@std@@QBEXPAVc_client_entity@@@Z 1000b980 f i c_esp.obj
 0001:0000a980       ??R?$_Func_class@XPAVc_cs_player@@@std@@QBEXPAVc_cs_player@@@Z 1000b980 f i aimbot_recode.obj
 0001:0000a980       ??R?$_Func_class@XI@std@@QBEXI@Z 1000b980 f i c_hotkeys.obj
 0001:0000a9e0       ??R?$equal_to@I@std@@QBE_NABI0@Z 1000b9e0 f i aimbot_recode.obj
 0001:0000aa10       ??Yc_vector3d@@QAE?AV0@ABV0@@Z 1000ba10 f i aimbot_recode.obj
 0001:0000aa80       ??_G?$pair@$$CBIUanimation_info@c_animation_system@@@std@@QAEPAXI@Z 1000ba80 f i aimbot_recode.obj
 0001:0000aac0       ??_Gshot@resolver@@QAEPAXI@Z 1000bac0 f i aimbot_recode.obj
 0001:0000ab00       ??_H@YGXPAXIIP6EPAX0@Z@Z   1000bb00 f i aimbot_recode.obj
 0001:0000ab40       ?_Alloc_sentinel_and_proxy@?$list@U?$pair@$$CBIUanimation_info@c_animation_system@@@std@@V?$allocator@U?$pair@$$CBIUanimation_info@c_animation_system@@@std@@@2@@std@@AAEXXZ 1000bb40 f i aimbot_recode.obj
 0001:0000abb0       ?_Alloc_sentinel_and_proxy@?$list@U?$pair@$$CBIUnetvar@c_netvar@@@std@@V?$allocator@U?$pair@$$CBIUnetvar@c_netvar@@@std@@@2@@std@@AAEXXZ 1000bbb0 f i aimbot_recode.obj
 0001:0000ac20       ?_Allocate@?$_Alloc_construct_ptr@V?$allocator@U?$_List_node@U?$pair@$$CBIUnetvar@c_netvar@@@std@@PAX@std@@@std@@@std@@QAEXXZ 1000bc20 f i aimbot_recode.obj
 0001:0000ac50       ?_Allocate@?$_Alloc_construct_ptr@V?$allocator@U?$_List_node@U?$pair@$$CBIV?$unordered_map@IUnetvar@c_netvar@@U?$hash@I@std@@U?$equal_to@I@4@V?$allocator@U?$pair@$$CBIUnetvar@c_netvar@@@std@@@4@@std@@@std@@PAX@std@@@std@@@std@@QAEXXZ 1000bc50 f i aimbot_recode.obj
 0001:0000ac80       ?_Allocate_aligned@_Default_allocate_traits@std@@SAPAXII@Z 1000bc80 f i aimbot_recode.obj
 0001:0000aca0       ?_Assign_grow@?$_Hash_vec@V?$allocator@V?$_List_unchecked_iterator@V?$_List_val@U?$_List_simple_types@U?$pair@QAVc_hotkey_select@@V?$function@$$A6AXI@Z@std@@@std@@@std@@@std@@@std@@@std@@@std@@QAEXIV?$_List_unchecked_iterator@V?$_List_val@U?$_List_simple_types@U?$pair@QAVc_hotkey_select@@V?$function@$$A6AXI@Z@std@@@std@@@std@@@std@@@2@@Z 1000bca0 f i c_hotkeys.obj
 0001:0000aca0       ?_Assign_grow@?$_Hash_vec@V?$allocator@V?$_List_unchecked_iterator@V?$_List_val@U?$_List_simple_types@U?$pair@$$CBIUnetvar@c_netvar@@@std@@@std@@@std@@@std@@@std@@@std@@QAEXIV?$_List_unchecked_iterator@V?$_List_val@U?$_List_simple_types@U?$pair@$$CBIUnetvar@c_netvar@@@std@@@std@@@std@@@2@@Z 1000bca0 f i aimbot_recode.obj
 0001:0000aca0       ?_Assign_grow@?$_Hash_vec@V?$allocator@V?$_List_unchecked_iterator@V?$_List_val@U?$_List_simple_types@U?$pair@$$CBIUanimation_info@c_animation_system@@@std@@@std@@@std@@@std@@@std@@@std@@QAEXIV?$_List_unchecked_iterator@V?$_List_val@U?$_List_simple_types@U?$pair@$$CBIUanimation_info@c_animation_system@@@std@@@std@@@std@@@2@@Z 1000bca0 f i aimbot_recode.obj
 0001:0000aca0       ?_Assign_grow@?$_Hash_vec@V?$allocator@V?$_List_unchecked_iterator@V?$_List_val@U?$_List_simple_types@U?$pair@$$CBIPAVCD3DFont@@@std@@@std@@@std@@@std@@@std@@@std@@QAEXIV?$_List_unchecked_iterator@V?$_List_val@U?$_List_simple_types@U?$pair@$$CBIPAVCD3DFont@@@std@@@std@@@std@@@2@@Z 1000bca0 f i c_renderer.obj
 0001:0000aca0       ?_Assign_grow@?$_Hash_vec@V?$allocator@V?$_List_unchecked_iterator@V?$_List_val@U?$_List_simple_types@U?$pair@$$CBIVc_font@@@std@@@std@@@std@@@std@@@std@@@std@@QAEXIV?$_List_unchecked_iterator@V?$_List_val@U?$_List_simple_types@U?$pair@$$CBIVc_font@@@std@@@std@@@std@@@2@@Z 1000bca0 f i c_renderer.obj
 0001:0000aca0       ?_Assign_grow@?$_Hash_vec@V?$allocator@V?$_List_unchecked_iterator@V?$_List_val@U?$_List_simple_types@U?$pair@$$CBIV?$unordered_map@IUnetvar@c_netvar@@U?$hash@I@std@@U?$equal_to@I@4@V?$allocator@U?$pair@$$CBIUnetvar@c_netvar@@@std@@@4@@std@@@std@@@std@@@std@@@std@@@std@@@std@@QAEXIV?$_List_unchecked_iterator@V?$_List_val@U?$_List_simple_types@U?$pair@$$CBIV?$unordered_map@IUnetvar@c_netvar@@U?$hash@I@std@@U?$equal_to@I@4@V?$allocator@U?$pair@$$CBIUnetvar@c_netvar@@@std@@@4@@std@@@std@@@std@@@std@@@2@@Z 1000bca0 f i aimbot_recode.obj
 0001:0000ad60       ?_Bump_erased@_Range_eraser@?$_Hash@V?$_Umap_traits@IUnetvar@c_netvar@@V?$_Uhash_compare@IU?$hash@I@std@@U?$equal_to@I@2@@std@@V?$allocator@U?$pair@$$CBIUnetvar@c_netvar@@@std@@@4@$0A@@std@@@std@@QAEXXZ 1000bd60 f i aimbot_recode.obj
 0001:0000adb0       ?_Bump_erased@_Range_eraser@?$_Hash@V?$_Umap_traits@IV?$unordered_map@IUnetvar@c_netvar@@U?$hash@I@std@@U?$equal_to@I@4@V?$allocator@U?$pair@$$CBIUnetvar@c_netvar@@@std@@@4@@std@@V?$_Uhash_compare@IU?$hash@I@std@@U?$equal_to@I@2@@2@V?$allocator@U?$pair@$$CBIV?$unordered_map@IUnetvar@c_netvar@@U?$hash@I@std@@U?$equal_to@I@4@V?$allocator@U?$pair@$$CBIUnetvar@c_netvar@@@std@@@4@@std@@@std@@@2@$0A@@std@@@std@@QAEXXZ 1000bdb0 f i aimbot_recode.obj
 0001:0000ae00       ?_Calculate_growth@?$vector@PAUanimation@c_animation_system@@V?$allocator@PAUanimation@c_animation_system@@@std@@@std@@ABEII@Z 1000be00 f i c_animation_system.obj
 0001:0000ae00       ?_Calculate_growth@?$vector@W4hitbox@c_cs_player@@V?$allocator@W4hitbox@c_cs_player@@@std@@@std@@ABEII@Z 1000be00 f i aimbot_recode.obj
 0001:0000ae00       ?_Calculate_growth@?$vector@MV?$allocator@M@std@@@std@@ABEII@Z 1000be00 f i c_font.obj
 0001:0000ae00       ?_Calculate_growth@?$vector@PAVLua_Hook@@V?$allocator@PAVLua_Hook@@@std@@@std@@ABEII@Z 1000be00 f i LuaAPI.obj
 0001:0000ae00       ?_Calculate_growth@?$vector@HV?$allocator@H@std@@@std@@ABEII@Z 1000be00 f i aimbot_recode.obj
 0001:0000ae50       ?_Calculate_growth@?$vector@V?$tuple@MMM@std@@V?$allocator@V?$tuple@MMM@std@@@2@@std@@ABEII@Z 1000be50 f i c_aimhelper.obj
 0001:0000ae50       ?_Calculate_growth@?$vector@V?$vector@MV?$allocator@M@std@@@std@@V?$allocator@V?$vector@MV?$allocator@M@std@@@std@@@2@@std@@ABEII@Z 1000be50 f i c_font.obj
 0001:0000ae50       ?_Calculate_growth@?$vector@Vc_vector3d@@V?$allocator@Vc_vector3d@@@std@@@std@@ABEII@Z 1000be50 f i aimbot_recode.obj
 0001:0000aea0       ?_Ceiling_of_log_2@std@@YAKI@Z 1000bea0 f i aimbot_recode.obj
 0001:0000aec0       ?_Change_array@?$vector@HV?$allocator@H@std@@@std@@AAEXQAHII@Z 1000bec0 f i aimbot_recode.obj
 0001:0000aec0       ?_Change_array@?$vector@PAVLua_Hook@@V?$allocator@PAVLua_Hook@@@std@@@std@@AAEXQAPAVLua_Hook@@II@Z 1000bec0 f i LuaAPI.obj
 0001:0000aec0       ?_Change_array@?$vector@W4hitbox@c_cs_player@@V?$allocator@W4hitbox@c_cs_player@@@std@@@std@@AAEXQAW4hitbox@c_cs_player@@II@Z 1000bec0 f i aimbot_recode.obj
 0001:0000aec0       ?_Change_array@?$vector@PAUanimation@c_animation_system@@V?$allocator@PAUanimation@c_animation_system@@@std@@@std@@AAEXQAPAUanimation@c_animation_system@@II@Z 1000bec0 f i c_animation_system.obj
 0001:0000aec0       ?_Change_array@?$vector@MV?$allocator@M@std@@@std@@AAEXQAMII@Z 1000bec0 f i c_font.obj
 0001:0000af70       ?_Change_array@?$vector@V?$tuple@MMM@std@@V?$allocator@V?$tuple@MMM@std@@@2@@std@@AAEXQAV?$tuple@MMM@2@II@Z 1000bf70 f i c_aimhelper.obj
 0001:0000af70       ?_Change_array@?$vector@Vc_vector3d@@V?$allocator@Vc_vector3d@@@std@@@std@@AAEXQAVc_vector3d@@II@Z 1000bf70 f i aimbot_recode.obj
 0001:0000b020       ?_Check_max_size@?$_Hash@V?$_Umap_traits@IUnetvar@c_netvar@@V?$_Uhash_compare@IU?$hash@I@std@@U?$equal_to@I@2@@std@@V?$allocator@U?$pair@$$CBIUnetvar@c_netvar@@@std@@@4@$0A@@std@@@std@@IBEXXZ 1000c020 f i aimbot_recode.obj
 0001:0000b050       ?_Check_max_size@?$_Hash@V?$_Umap_traits@IV?$unordered_map@IUnetvar@c_netvar@@U?$hash@I@std@@U?$equal_to@I@4@V?$allocator@U?$pair@$$CBIUnetvar@c_netvar@@@std@@@4@@std@@V?$_Uhash_compare@IU?$hash@I@std@@U?$equal_to@I@2@@2@V?$allocator@U?$pair@$$CBIV?$unordered_map@IUnetvar@c_netvar@@U?$hash@I@std@@U?$equal_to@I@4@V?$allocator@U?$pair@$$CBIUnetvar@c_netvar@@@std@@@4@@std@@@std@@@2@$0A@@std@@@std@@IBEXXZ 1000c050 f i aimbot_recode.obj
 0001:0000b080       ?_Check_rehash_required_1@?$_Hash@V?$_Umap_traits@IVc_font@@V?$_Uhash_compare@IU?$hash@I@std@@U?$equal_to@I@2@@std@@V?$allocator@U?$pair@$$CBIVc_font@@@std@@@3@$0A@@std@@@std@@IBE_NXZ 1000c080 f i c_renderer.obj
 0001:0000b080       ?_Check_rehash_required_1@?$_Hash@V?$_Umap_traits@IUnetvar@c_netvar@@V?$_Uhash_compare@IU?$hash@I@std@@U?$equal_to@I@2@@std@@V?$allocator@U?$pair@$$CBIUnetvar@c_netvar@@@std@@@4@$0A@@std@@@std@@IBE_NXZ 1000c080 f i aimbot_recode.obj
 0001:0000b080       ?_Check_rehash_required_1@?$_Hash@V?$_Umap_traits@IV?$unordered_map@IUnetvar@c_netvar@@U?$hash@I@std@@U?$equal_to@I@4@V?$allocator@U?$pair@$$CBIUnetvar@c_netvar@@@std@@@4@@std@@V?$_Uhash_compare@IU?$hash@I@std@@U?$equal_to@I@2@@2@V?$allocator@U?$pair@$$CBIV?$unordered_map@IUnetvar@c_netvar@@U?$hash@I@std@@U?$equal_to@I@4@V?$allocator@U?$pair@$$CBIUnetvar@c_netvar@@@std@@@4@@std@@@std@@@2@$0A@@std@@@std@@IBE_NXZ 1000c080 f i aimbot_recode.obj
 0001:0000b080       ?_Check_rehash_required_1@?$_Hash@V?$_Umap_traits@IUanimation_info@c_animation_system@@V?$_Uhash_compare@IU?$hash@I@std@@U?$equal_to@I@2@@std@@V?$allocator@U?$pair@$$CBIUanimation_info@c_animation_system@@@std@@@4@$0A@@std@@@std@@IBE_NXZ 1000c080 f i c_animation_system.obj
 0001:0000b130       ?_Desired_grow_bucket_count@?$_Hash@V?$_Umap_traits@IUnetvar@c_netvar@@V?$_Uhash_compare@IU?$hash@I@std@@U?$equal_to@I@2@@std@@V?$allocator@U?$pair@$$CBIUnetvar@c_netvar@@@std@@@4@$0A@@std@@@std@@IBEII@Z 1000c130 f i aimbot_recode.obj
 0001:0000b1a0       ?_Desired_grow_bucket_count@?$_Hash@V?$_Umap_traits@IV?$unordered_map@IUnetvar@c_netvar@@U?$hash@I@std@@U?$equal_to@I@4@V?$allocator@U?$pair@$$CBIUnetvar@c_netvar@@@std@@@4@@std@@V?$_Uhash_compare@IU?$hash@I@std@@U?$equal_to@I@2@@2@V?$allocator@U?$pair@$$CBIV?$unordered_map@IUnetvar@c_netvar@@U?$hash@I@std@@U?$equal_to@I@4@V?$allocator@U?$pair@$$CBIUnetvar@c_netvar@@@std@@@4@@std@@@std@@@2@$0A@@std@@@std@@IBEII@Z 1000c1a0 f i aimbot_recode.obj
 0001:0000b210       ?_Destroy@?$vector@Udamage_infos@@V?$allocator@Udamage_infos@@@std@@@std@@AAEXPAUdamage_infos@@0@Z 1000c210 f i c_esp.obj
 0001:0000b210       ?_Destroy@?$vector@PAUanimation@c_animation_system@@V?$allocator@PAUanimation@c_animation_system@@@std@@@std@@AAEXPAPAUanimation@c_animation_system@@0@Z 1000c210 f i c_aimhelper.obj
 0001:0000b210       ?_Destroy@?$vector@Uaim_info@c_aimhelper@@V?$allocator@Uaim_info@c_aimhelper@@@std@@@std@@AAEXPAUaim_info@c_aimhelper@@0@Z 1000c210 f i c_aimhelper.obj
 0001:0000b210       ?_Destroy@?$vector@Vc_vector3d@@V?$allocator@Vc_vector3d@@@std@@@std@@AAEXPAVc_vector3d@@0@Z 1000c210 f i aimbot_recode.obj
 0001:0000b210       ?_Destroy@?$vector@PAVLua_Hook@@V?$allocator@PAVLua_Hook@@@std@@@std@@AAEXPAPAVLua_Hook@@0@Z 1000c210 f i LuaAPI.obj
 0001:0000b210       ?_Destroy@?$vector@DV?$allocator@D@std@@@std@@AAEXPAD0@Z 1000c210 f i c_menu.obj
 0001:0000b210       ?_Destroy@?$vector@HV?$allocator@H@std@@@std@@AAEXPAH0@Z 1000c210 f i aimbot_recode.obj
 0001:0000b210       ?_Destroy@?$vector@Uplayer_info@c_esp@@V?$allocator@Uplayer_info@c_esp@@@std@@@std@@AAEXPAUplayer_info@c_esp@@0@Z 1000c210 f i aimbot_recode.obj
 0001:0000b210       ?_Destroy@?$vector@Vc_vector2d@@V?$allocator@Vc_vector2d@@@std@@@std@@AAEXPAVc_vector2d@@0@Z 1000c210 f i c_damageesp.obj
 0001:0000b210       ?_Destroy@?$vector@V?$tuple@MMM@std@@V?$allocator@V?$tuple@MMM@std@@@2@@std@@AAEXPAV?$tuple@MMM@2@0@Z 1000c210 f i c_aimhelper.obj
 0001:0000b210       ?_Destroy@?$vector@Uhitmarker_info@@V?$allocator@Uhitmarker_info@@@std@@@std@@AAEXPAUhitmarker_info@@0@Z 1000c210 f i c_hitmarker.obj
 0001:0000b210       ?_Destroy@?$vector@Uimpact_info@@V?$allocator@Uimpact_info@@@std@@@std@@AAEXPAUimpact_info@@0@Z 1000c210 f i c_hitmarker.obj
 0001:0000b210       ?_Destroy@?$vector@U?$pair@PAVc_cs_player@@M@std@@V?$allocator@U?$pair@PAVc_cs_player@@M@std@@@2@@std@@AAEXPAU?$pair@PAVc_cs_player@@M@2@0@Z 1000c210 f i c_chams.obj
 0001:0000b210       ?_Destroy@?$vector@Unade_info@c_esp@@V?$allocator@Unade_info@c_esp@@@std@@@std@@AAEXPAUnade_info@c_esp@@0@Z 1000c210 f i aimbot_recode.obj
 0001:0000b210       ?_Destroy@?$vector@W4hitbox@c_cs_player@@V?$allocator@W4hitbox@c_cs_player@@@std@@@std@@AAEXPAW4hitbox@c_cs_player@@0@Z 1000c210 f i aimbot_recode.obj
 0001:0000b210       ?_Destroy@?$vector@MV?$allocator@M@std@@@std@@AAEXPAM0@Z 1000c210 f i c_font.obj
 0001:0000b240       ?_Do_hash@?$hash@I@std@@SAIABI@Z 1000c240 f i aimbot_recode.obj
 0001:0000b240       ?_Do_hash@?$hash@PAVc_hotkey_select@@@std@@SAIABQAVc_hotkey_select@@@Z 1000c240 f i c_hotkeys.obj
 0001:0000b260       ?_Empty@?$_Func_class@XPAVc_client_entity@@@std@@IBE_NXZ 1000c260 f i c_esp.obj
 0001:0000b260       ?_Empty@?$_Func_class@XPAVc_cs_player@@@std@@IBE_NXZ 1000c260 f i aimbot_recode.obj
 0001:0000b260       ?_Empty@?$_Func_class@_NHW4parse_event_t@?$parser@V?$basic_json@Vmap@std@@Vvector@2@V?$basic_string@DU?$char_traits@D@std@@V?$allocator@D@2@@2@_N_J_KNVallocator@2@Uadl_serializer@nlohmann@@@nlohmann@@@detail@nlohmann@@AAV?$basic_json@Vmap@std@@Vvector@2@V?$basic_string@DU?$char_traits@D@std@@V?$allocator@D@2@@2@_N_J_KNVallocator@2@Uadl_serializer@nlohmann@@@4@@std@@IBE_NXZ 1000c260 f i c_menu.obj
 0001:0000b260       ?_Empty@?$_Func_class@X$$V@std@@IBE_NXZ 1000c260 f i c_chams.obj
 0001:0000b260       ?_Empty@?$_Func_class@XI@std@@IBE_NXZ 1000c260 f i c_fake_ping.obj
 0001:0000b290       ?_Eos@?$basic_string@DU?$char_traits@D@std@@V?$allocator@D@2@@std@@AAEXI@Z 1000c290 f i aimbot_recode.obj
 0001:0000b2d0       ?_Floor_of_log_2@std@@YAKI@Z 1000c2d0 f i aimbot_recode.obj
 0001:0000b2f0       ?_Fnv1a_append_bytes@std@@YAIIQBEI@Z 1000c2f0 f i aimbot_recode.obj
 0001:0000b330       ?_Forced_rehash@?$_Hash@V?$_Umap_traits@IUnetvar@c_netvar@@V?$_Uhash_compare@IU?$hash@I@std@@U?$equal_to@I@2@@std@@V?$allocator@U?$pair@$$CBIUnetvar@c_netvar@@@std@@@4@$0A@@std@@@std@@IAEXI@Z 1000c330 f i aimbot_recode.obj
 0001:0000b5c0       ?_Forced_rehash@?$_Hash@V?$_Umap_traits@IV?$unordered_map@IUnetvar@c_netvar@@U?$hash@I@std@@U?$equal_to@I@4@V?$allocator@U?$pair@$$CBIUnetvar@c_netvar@@@std@@@4@@std@@V?$_Uhash_compare@IU?$hash@I@std@@U?$equal_to@I@2@@2@V?$allocator@U?$pair@$$CBIV?$unordered_map@IUnetvar@c_netvar@@U?$hash@I@std@@U?$equal_to@I@4@V?$allocator@U?$pair@$$CBIUnetvar@c_netvar@@@std@@@4@@std@@@std@@@2@$0A@@std@@@std@@IAEXI@Z 1000c5c0 f i aimbot_recode.obj
 0001:0000b850       ?_Getblock@?$_Deque_val@U?$_Deque_simple_types@Uanimation@c_animation_system@@@std@@@std@@QBEII@Z 1000c850 f i aimbot_recode.obj
 0001:0000b850       ?_Getblock@?$_Deque_val@U?$_Deque_simple_types@Ushot@resolver@@@std@@@std@@QBEII@Z 1000c850 f i aimbot_recode.obj
 0001:0000b850       ?_Getblock@?$_Deque_val@U?$_Deque_simple_types@UCIncomingSequence@@@std@@@std@@QBEII@Z 1000c850 f i c_fake_ping.obj
 0001:0000b870       ?_Getblock@?$deque@Uanimation@c_animation_system@@V?$allocator@Uanimation@c_animation_system@@@std@@@std@@ABEII@Z 1000c870 f i aimbot_recode.obj
 0001:0000b870       ?_Getblock@?$deque@Ushot@resolver@@V?$allocator@Ushot@resolver@@@std@@@std@@ABEII@Z 1000c870 f i aimbot_recode.obj
 0001:0000b870       ?_Getblock@?$deque@UCIncomingSequence@@V?$allocator@UCIncomingSequence@@@std@@@std@@ABEII@Z 1000c870 f i c_fake_ping.obj
 0001:0000b8a0       ?_Getimpl@?$_Func_class@_NHW4parse_event_t@?$parser@V?$basic_json@Vmap@std@@Vvector@2@V?$basic_string@DU?$char_traits@D@std@@V?$allocator@D@2@@2@_N_J_KNVallocator@2@Uadl_serializer@nlohmann@@@nlohmann@@@detail@nlohmann@@AAV?$basic_json@Vmap@std@@Vvector@2@V?$basic_string@DU?$char_traits@D@std@@V?$allocator@D@2@@2@_N_J_KNVallocator@2@Uadl_serializer@nlohmann@@@4@@std@@ABEPAV?$_Func_base@_NHW4parse_event_t@?$parser@V?$basic_json@Vmap@std@@Vvector@2@V?$basic_string@DU?$char_traits@D@std@@V?$allocator@D@2@@2@_N_J_KNVallocator@2@Uadl_serializer@nlohmann@@@nlohmann@@@detail@nlohmann@@AAV?$basic_json@Vmap@std@@Vvector@2@V?$basic_string@DU?$char_traits@D@std@@V?$allocator@D@2@@2@_N_J_KNVallocator@2@Uadl_serializer@nlohmann@@@4@@2@XZ 1000c8a0 f i c_menu.obj
 0001:0000b8a0       ?_Getimpl@?$_Func_class@XPAVc_client_entity@@@std@@ABEPAV?$_Func_base@XPAVc_client_entity@@@2@XZ 1000c8a0 f i c_esp.obj
 0001:0000b8a0       ?_Getimpl@?$_Func_class@XPAVc_cs_player@@@std@@ABEPAV?$_Func_base@XPAVc_cs_player@@@2@XZ 1000c8a0 f i aimbot_recode.obj
 0001:0000b8a0       ?_Getimpl@?$_Func_class@X$$V@std@@ABEPAV?$_Func_base@X$$V@2@XZ 1000c8a0 f i c_chams.obj
 0001:0000b8a0       ?_Getimpl@?$_Func_class@XI@std@@ABEPAV?$_Func_base@XI@2@XZ 1000c8a0 f i c_fake_ping.obj
 0001:0000b8c0       ?_Insert_new_node_before@?$_Hash@V?$_Umap_traits@IV?$unordered_map@IUnetvar@c_netvar@@U?$hash@I@std@@U?$equal_to@I@4@V?$allocator@U?$pair@$$CBIUnetvar@c_netvar@@@std@@@4@@std@@V?$_Uhash_compare@IU?$hash@I@std@@U?$equal_to@I@2@@2@V?$allocator@U?$pair@$$CBIV?$unordered_map@IUnetvar@c_netvar@@U?$hash@I@std@@U?$equal_to@I@4@V?$allocator@U?$pair@$$CBIUnetvar@c_netvar@@@std@@@4@@std@@@std@@@2@$0A@@std@@@std@@IAEPAU?$_List_node@U?$pair@$$CBIV?$unordered_map@IUnetvar@c_netvar@@U?$hash@I@std@@U?$equal_to@I@4@V?$allocator@U?$pair@$$CBIUnetvar@c_netvar@@@std@@@4@@std@@@std@@PAX@2@IQAU32@0@Z 1000c8c0 f i aimbot_recode.obj
 0001:0000b8c0       ?_Insert_new_node_before@?$_Hash@V?$_Umap_traits@IUanimation_info@c_animation_system@@V?$_Uhash_compare@IU?$hash@I@std@@U?$equal_to@I@2@@std@@V?$allocator@U?$pair@$$CBIUanimation_info@c_animation_system@@@std@@@4@$0A@@std@@@std@@IAEPAU?$_List_node@U?$pair@$$CBIUanimation_info@c_animation_system@@@std@@PAX@2@IQAU32@0@Z 1000c8c0 f i c_animation_system.obj
 0001:0000b8c0       ?_Insert_new_node_before@?$_Hash@V?$_Umap_traits@IVc_font@@V?$_Uhash_compare@IU?$hash@I@std@@U?$equal_to@I@2@@std@@V?$allocator@U?$pair@$$CBIVc_font@@@std@@@3@$0A@@std@@@std@@IAEPAU?$_List_node@U?$pair@$$CBIVc_font@@@std@@PAX@2@IQAU32@0@Z 1000c8c0 f i c_renderer.obj
 0001:0000b8c0       ?_Insert_new_node_before@?$_Hash@V?$_Umap_traits@IUnetvar@c_netvar@@V?$_Uhash_compare@IU?$hash@I@std@@U?$equal_to@I@2@@std@@V?$allocator@U?$pair@$$CBIUnetvar@c_netvar@@@std@@@4@$0A@@std@@@std@@IAEPAU?$_List_node@U?$pair@$$CBIUnetvar@c_netvar@@@std@@PAX@2@IQAU32@0@Z 1000c8c0 f i aimbot_recode.obj
 0001:0000b9a0       ?_Local@?$_Func_class@X$$V@std@@ABE_NXZ 1000c9a0 f i c_chams.obj
 0001:0000b9a0       ?_Local@?$_Func_class@XI@std@@ABE_NXZ 1000c9a0 f i c_fake_ping.obj
 0001:0000b9a0       ?_Local@?$_Func_class@_NHW4parse_event_t@?$parser@V?$basic_json@Vmap@std@@Vvector@2@V?$basic_string@DU?$char_traits@D@std@@V?$allocator@D@2@@2@_N_J_KNVallocator@2@Uadl_serializer@nlohmann@@@nlohmann@@@detail@nlohmann@@AAV?$basic_json@Vmap@std@@Vvector@2@V?$basic_string@DU?$char_traits@D@std@@V?$allocator@D@2@@2@_N_J_KNVallocator@2@Uadl_serializer@nlohmann@@@4@@std@@ABE_NXZ 1000c9a0 f i c_menu.obj
 0001:0000b9a0       ?_Local@?$_Func_class@XPAVc_cs_player@@@std@@ABE_NXZ 1000c9a0 f i aimbot_recode.obj
 0001:0000b9a0       ?_Local@?$_Func_class@XPAVc_client_entity@@@std@@ABE_NXZ 1000c9a0 f i c_esp.obj
 0001:0000b9d0       ?_Map@?$deque@UCIncomingSequence@@V?$allocator@UCIncomingSequence@@@std@@@std@@AAEAAPAPAUCIncomingSequence@@XZ 1000c9d0 f i c_fake_ping.obj
 0001:0000b9d0       ?_Map@?$deque@Uanimation@c_animation_system@@V?$allocator@Uanimation@c_animation_system@@@std@@@std@@AAEAAPAPAUanimation@c_animation_system@@XZ 1000c9d0 f i aimbot_recode.obj
 0001:0000b9d0       ?_Map@?$deque@Ushot@resolver@@V?$allocator@Ushot@resolver@@@std@@@std@@AAEAAPAPAUshot@resolver@@XZ 1000c9d0 f i aimbot_recode.obj
 0001:0000b9f0       ?_Mapsize@?$deque@UCIncomingSequence@@V?$allocator@UCIncomingSequence@@@std@@@std@@AAEAAIXZ 1000c9f0 f i c_fake_ping.obj
 0001:0000b9f0       ?_Mapsize@?$deque@Ushot@resolver@@V?$allocator@Ushot@resolver@@@std@@@std@@AAEAAIXZ 1000c9f0 f i aimbot_recode.obj
 0001:0000b9f0       ?_Mapsize@?$deque@Uanimation@c_animation_system@@V?$allocator@Uanimation@c_animation_system@@@std@@@std@@AAEAAIXZ 1000c9f0 f i aimbot_recode.obj
 0001:0000ba10       ?_Mark@?$_String_bitmap@D$00@std@@QAE_NPBDQBD@Z 1000ca10 f i aimbot_recode.obj
 0001:0000ba50       ?_Match@?$_String_bitmap@D$00@std@@QBE_ND@Z 1000ca50 f i aimbot_recode.obj
 0001:0000ba70       ?_Memcpy_val_from@?$basic_string@DU?$char_traits@D@std@@V?$allocator@D@2@@std@@AAEXABV12@@Z 1000ca70 f i aimbot_recode.obj
 0001:0000bad0       ?_Min_load_factor_buckets@?$_Hash@V?$_Umap_traits@IUnetvar@c_netvar@@V?$_Uhash_compare@IU?$hash@I@std@@U?$equal_to@I@2@@std@@V?$allocator@U?$pair@$$CBIUnetvar@c_netvar@@@std@@@4@$0A@@std@@@std@@IBEII@Z 1000cad0 f i aimbot_recode.obj
 0001:0000bad0       ?_Min_load_factor_buckets@?$_Hash@V?$_Umap_traits@IV?$unordered_map@IUnetvar@c_netvar@@U?$hash@I@std@@U?$equal_to@I@4@V?$allocator@U?$pair@$$CBIUnetvar@c_netvar@@@std@@@4@@std@@V?$_Uhash_compare@IU?$hash@I@std@@U?$equal_to@I@2@@2@V?$allocator@U?$pair@$$CBIV?$unordered_map@IUnetvar@c_netvar@@U?$hash@I@std@@U?$equal_to@I@4@V?$allocator@U?$pair@$$CBIUnetvar@c_netvar@@@std@@@4@@std@@@std@@@2@$0A@@std@@@std@@IBEII@Z 1000cad0 f i aimbot_recode.obj
 0001:0000bad0       ?_Min_load_factor_buckets@?$_Hash@V?$_Umap_traits@IVc_font@@V?$_Uhash_compare@IU?$hash@I@std@@U?$equal_to@I@2@@std@@V?$allocator@U?$pair@$$CBIVc_font@@@std@@@3@$0A@@std@@@std@@IBEII@Z 1000cad0 f i c_renderer.obj
 0001:0000bad0       ?_Min_load_factor_buckets@?$_Hash@V?$_Umap_traits@IUanimation_info@c_animation_system@@V?$_Uhash_compare@IU?$hash@I@std@@U?$equal_to@I@2@@std@@V?$allocator@U?$pair@$$CBIUanimation_info@c_animation_system@@@std@@@4@$0A@@std@@@std@@IBEII@Z 1000cad0 f i c_animation_system.obj
 0001:0000bb40       ?_Move_construct@?$vector@HV?$allocator@H@std@@@std@@AAEXAAV12@U?$integral_constant@_N$00@2@@Z 1000cb40 f i aimbot_recode.obj
 0001:0000bb40       ?_Move_construct@?$vector@Vc_vector3d@@V?$allocator@Vc_vector3d@@@std@@@std@@AAEXAAV12@U?$integral_constant@_N$00@2@@Z 1000cb40 f i c_resolver.obj
 0001:0000bb40       ?_Move_construct@?$vector@MV?$allocator@M@std@@@std@@AAEXAAV12@U?$integral_constant@_N$00@2@@Z 1000cb40 f i c_font.obj
 0001:0000bb40       ?_Move_construct@?$vector@V?$basic_string@DU?$char_traits@D@std@@V?$allocator@D@2@@std@@V?$allocator@V?$basic_string@DU?$char_traits@D@std@@V?$allocator@D@2@@std@@@2@@std@@AAEXAAV12@U?$integral_constant@_N$00@2@@Z 1000cb40 f i ImConsole.obj
 0001:0000bb40       ?_Move_construct@?$vector@PAUanimation@c_animation_system@@V?$allocator@PAUanimation@c_animation_system@@@std@@@std@@AAEXAAV12@U?$integral_constant@_N$00@2@@Z 1000cb40 f i c_aimhelper.obj
 0001:0000bb40       ?_Move_construct@?$vector@Uaim_info@c_aimhelper@@V?$allocator@Uaim_info@c_aimhelper@@@std@@@std@@AAEXAAV12@U?$integral_constant@_N$00@2@@Z 1000cb40 f i c_aimhelper.obj
 0001:0000bb70       ?_Myoff@?$deque@UCIncomingSequence@@V?$allocator@UCIncomingSequence@@@std@@@std@@AAEAAIXZ 1000cb70 f i c_fake_ping.obj
 0001:0000bb70       ?_Myoff@?$deque@Ushot@resolver@@V?$allocator@Ushot@resolver@@@std@@@std@@AAEAAIXZ 1000cb70 f i aimbot_recode.obj
 0001:0000bb70       ?_Myoff@?$deque@Uanimation@c_animation_system@@V?$allocator@Uanimation@c_animation_system@@@std@@@std@@AAEAAIXZ 1000cb70 f i aimbot_recode.obj
 0001:0000bb90       ?_Mysize@?$deque@UCIncomingSequence@@V?$allocator@UCIncomingSequence@@@std@@@std@@AAEAAIXZ 1000cb90 f i c_fake_ping.obj
 0001:0000bb90       ?_Mysize@?$deque@Ushot@resolver@@V?$allocator@Ushot@resolver@@@std@@@std@@ABEABIXZ 1000cb90 f i aimbot_recode.obj
 0001:0000bb90       ?_Mysize@?$deque@Ushot@resolver@@V?$allocator@Ushot@resolver@@@std@@@std@@AAEAAIXZ 1000cb90 f i aimbot_recode.obj
 0001:0000bb90       ?_Mysize@?$deque@Uanimation@c_animation_system@@V?$allocator@Uanimation@c_animation_system@@@std@@@std@@AAEAAIXZ 1000cb90 f i aimbot_recode.obj
 0001:0000bb90       ?_Mysize@?$deque@UCIncomingSequence@@V?$allocator@UCIncomingSequence@@@std@@@std@@ABEABIXZ 1000cb90 f i c_fake_ping.obj
 0001:0000bb90       ?_Mysize@?$deque@Uanimation@c_animation_system@@V?$allocator@Uanimation@c_animation_system@@@std@@@std@@ABEABIXZ 1000cb90 f i aimbot_recode.obj
 0001:0000bbb0       ?_Orphan_all@?$deque@UCIncomingSequence@@V?$allocator@UCIncomingSequence@@@std@@@std@@AAEXXZ 1000cbb0 f i c_fake_ping.obj
 0001:0000bbb0       ?_Orphan_all@?$deque@Uanimation@c_animation_system@@V?$allocator@Uanimation@c_animation_system@@@std@@@std@@AAEXXZ 1000cbb0 f i aimbot_recode.obj
 0001:0000bbb0       ?_Orphan_all@?$deque@Ushot@resolver@@V?$allocator@Ushot@resolver@@@std@@@std@@AAEXXZ 1000cbb0 f i aimbot_recode.obj
 0001:0000bbd0       ?_Orphan_range@?$vector@Uhitmarker_info@@V?$allocator@Uhitmarker_info@@@std@@@std@@ABEXPAUhitmarker_info@@0@Z 1000cbd0 f i c_hitmarker.obj
 0001:0000bbd0       ?_Orphan_range@?$vector@U?$pair@PAVc_cs_player@@M@std@@V?$allocator@U?$pair@PAVc_cs_player@@M@std@@@2@@std@@ABEXPAU?$pair@PAVc_cs_player@@M@2@0@Z 1000cbd0 f i c_chams.obj
 0001:0000bbd0       ?_Orphan_range@?$vector@PAVLua_Hook@@V?$allocator@PAVLua_Hook@@@std@@@std@@ABEXPAPAVLua_Hook@@0@Z 1000cbd0 f i LuaAPI.obj
 0001:0000bbd0       ?_Orphan_range@?$vector@Vc_vector3d@@V?$allocator@Vc_vector3d@@@std@@@std@@ABEXPAVc_vector3d@@0@Z 1000cbd0 f i aimbot_recode.obj
 0001:0000bbd0       ?_Orphan_range@?$vector@DV?$allocator@D@std@@@std@@ABEXPAD0@Z 1000cbd0 f i c_menu.obj
 0001:0000bbd0       ?_Orphan_range@?$vector@Uplayer_info@c_esp@@V?$allocator@Uplayer_info@c_esp@@@std@@@std@@ABEXPAUplayer_info@c_esp@@0@Z 1000cbd0 f i c_esp.obj
 0001:0000bbd0       ?_Orphan_range@?$vector@MV?$allocator@M@std@@@std@@ABEXPAM0@Z 1000cbd0 f i c_font.obj
 0001:0000bbd0       ?_Orphan_range@?$vector@W4hitbox@c_cs_player@@V?$allocator@W4hitbox@c_cs_player@@@std@@@std@@ABEXPAW4hitbox@c_cs_player@@0@Z 1000cbd0 f i aimbot_recode.obj
 0001:0000bbd0       ?_Orphan_range@?$vector@V?$function@$$A6AXI@Z@std@@V?$allocator@V?$function@$$A6AXI@Z@std@@@2@@std@@ABEXPAV?$function@$$A6AXI@Z@2@0@Z 1000cbd0 f i c_hotkeys.obj
 0001:0000bbd0       ?_Orphan_range@?$vector@Uimpact_info@@V?$allocator@Uimpact_info@@@std@@@std@@ABEXPAUimpact_info@@0@Z 1000cbd0 f i c_hitmarker.obj
 0001:0000bbd0       ?_Orphan_range@?$vector@HV?$allocator@H@std@@@std@@ABEXPAH0@Z 1000cbd0 f i aimbot_recode.obj
 0001:0000bbd0       ?_Orphan_range@?$vector@V?$tuple@MMM@std@@V?$allocator@V?$tuple@MMM@std@@@2@@std@@ABEXPAV?$tuple@MMM@2@0@Z 1000cbd0 f i c_aimhelper.obj
 0001:0000bbd0       ?_Orphan_range@?$vector@Uaim_info@c_aimhelper@@V?$allocator@Uaim_info@c_aimhelper@@@std@@@std@@ABEXPAUaim_info@c_aimhelper@@0@Z 1000cbd0 f i c_aimhelper.obj
 0001:0000bbd0       ?_Orphan_range@?$vector@VImConsoleTextItem@@V?$allocator@VImConsoleTextItem@@@std@@@std@@ABEXPAVImConsoleTextItem@@0@Z 1000cbd0 f i ImConsole.obj
 0001:0000bbd0       ?_Orphan_range@?$vector@V?$basic_json@Vmap@std@@Vvector@2@V?$basic_string@DU?$char_traits@D@std@@V?$allocator@D@2@@2@_N_J_KNVallocator@2@Uadl_serializer@nlohmann@@@nlohmann@@V?$allocator@V?$basic_json@Vmap@std@@Vvector@2@V?$basic_string@DU?$char_traits@D@std@@V?$allocator@D@2@@2@_N_J_KNVallocator@2@Uadl_serializer@nlohmann@@@nlohmann@@@std@@@std@@ABEXPAV?$basic_json@Vmap@std@@Vvector@2@V?$basic_string@DU?$char_traits@D@std@@V?$allocator@D@2@@2@_N_J_KNVallocator@2@Uadl_serializer@nlohmann@@@nlohmann@@0@Z 1000cbd0 f i c_menu.obj
 0001:0000bbd0       ?_Orphan_range@?$vector@Udamage_infos@@V?$allocator@Udamage_infos@@@std@@@std@@ABEXPAUdamage_infos@@0@Z 1000cbd0 f i c_esp.obj
 0001:0000bbd0       ?_Orphan_range@?$vector@U?$pair@V?$shared_ptr@Vc_drawable@@@std@@U?$pair@Vc_vector2d@@V1@@2@@std@@V?$allocator@U?$pair@V?$shared_ptr@Vc_drawable@@@std@@U?$pair@Vc_vector2d@@V1@@2@@std@@@2@@std@@ABEXPAU?$pair@V?$shared_ptr@Vc_drawable@@@std@@U?$pair@Vc_vector2d@@V1@@2@@2@0@Z 1000cbd0 f i c_checkbox.obj
 0001:0000bbd0       ?_Orphan_range@?$vector@PAUanimation@c_animation_system@@V?$allocator@PAUanimation@c_animation_system@@@std@@@std@@ABEXPAPAUanimation@c_animation_system@@0@Z 1000cbd0 f i c_animation_system.obj
 0001:0000bbd0       ?_Orphan_range@?$vector@V?$vector@MV?$allocator@M@std@@@std@@V?$allocator@V?$vector@MV?$allocator@M@std@@@std@@@2@@std@@ABEXPAV?$vector@MV?$allocator@M@std@@@2@0@Z 1000cbd0 f i c_font.obj
 0001:0000bbd0       ?_Orphan_range@?$vector@Unade_info@c_esp@@V?$allocator@Unade_info@c_esp@@@std@@@std@@ABEXPAUnade_info@c_esp@@0@Z 1000cbd0 f i c_esp.obj
 0001:0000bbd0       ?_Orphan_range@?$vector@V?$basic_string@DU?$char_traits@D@std@@V?$allocator@D@2@@std@@V?$allocator@V?$basic_string@DU?$char_traits@D@std@@V?$allocator@D@2@@std@@@2@@std@@ABEXPAV?$basic_string@DU?$char_traits@D@std@@V?$allocator@D@2@@2@0@Z 1000cbd0 f i ImConsole.obj
 0001:0000bbd0       ?_Orphan_range@?$vector@Vc_vector2d@@V?$allocator@Vc_vector2d@@@std@@@std@@ABEXPAVc_vector2d@@0@Z 1000cbd0 f i c_renderer.obj
 0001:0000bbe0       ?_Rehash_for_1@?$_Hash@V?$_Umap_traits@IUnetvar@c_netvar@@V?$_Uhash_compare@IU?$hash@I@std@@U?$equal_to@I@2@@std@@V?$allocator@U?$pair@$$CBIUnetvar@c_netvar@@@std@@@4@$0A@@std@@@std@@IAEXXZ 1000cbe0 f i aimbot_recode.obj
 0001:0000bc20       ?_Rehash_for_1@?$_Hash@V?$_Umap_traits@IV?$unordered_map@IUnetvar@c_netvar@@U?$hash@I@std@@U?$equal_to@I@4@V?$allocator@U?$pair@$$CBIUnetvar@c_netvar@@@std@@@4@@std@@V?$_Uhash_compare@IU?$hash@I@std@@U?$equal_to@I@2@@2@V?$allocator@U?$pair@$$CBIV?$unordered_map@IUnetvar@c_netvar@@U?$hash@I@std@@U?$equal_to@I@4@V?$allocator@U?$pair@$$CBIUnetvar@c_netvar@@@std@@@4@@std@@@std@@@2@$0A@@std@@@std@@IAEXXZ 1000cc20 f i aimbot_recode.obj
 0001:0000bc60       ?_Release@?$_Alloc_construct_ptr@V?$allocator@U?$_Tree_node@U?$pair@$$CBHH@std@@PAX@std@@@std@@@std@@QAEPAU?$_Tree_node@U?$pair@$$CBHH@std@@PAX@2@XZ 1000cc60 f i c_prediction_.obj
 0001:0000bc60       ?_Release@?$_Alloc_construct_ptr@V?$allocator@U?$_List_node@U?$pair@$$CBIV?$unordered_map@IUnetvar@c_netvar@@U?$hash@I@std@@U?$equal_to@I@4@V?$allocator@U?$pair@$$CBIUnetvar@c_netvar@@@std@@@4@@std@@@std@@PAX@std@@@std@@@std@@QAEPAU?$_List_node@U?$pair@$$CBIV?$unordered_map@IUnetvar@c_netvar@@U?$hash@I@std@@U?$equal_to@I@4@V?$allocator@U?$pair@$$CBIUnetvar@c_netvar@@@std@@@4@@std@@@std@@PAX@2@XZ 1000cc60 f i aimbot_recode.obj
 0001:0000bc60       ?release@?$unique_ptr@V?$map@V?$basic_string@DU?$char_traits@D@std@@V?$allocator@D@2@@std@@V?$basic_json@Vmap@std@@Vvector@2@V?$basic_string@DU?$char_traits@D@std@@V?$allocator@D@2@@2@_N_J_KNVallocator@2@Uadl_serializer@nlohmann@@@nlohmann@@U?$less@X@2@V?$allocator@U?$pair@$$CBV?$basic_string@DU?$char_traits@D@std@@V?$allocator@D@2@@std@@V?$basic_json@Vmap@std@@Vvector@2@V?$basic_string@DU?$char_traits@D@std@@V?$allocator@D@2@@2@_N_J_KNVallocator@2@Uadl_serializer@nlohmann@@@nlohmann@@@std@@@2@@std@@V<lambda_1>@?1???$create@V?$map@V?$basic_string@DU?$char_traits@D@std@@V?$allocator@D@2@@std@@V?$basic_json@Vmap@std@@Vvector@2@V?$basic_string@DU?$char_traits@D@std@@V?$allocator@D@2@@2@_N_J_KNVallocator@2@Uadl_serializer@nlohmann@@@nlohmann@@U?$less@X@2@V?$allocator@U?$pair@$$CBV?$basic_string@DU?$char_traits@D@std@@V?$allocator@D@2@@std@@V?$basic_json@Vmap@std@@Vvector@2@V?$basic_string@DU?$char_traits@D@std@@V?$allocator@D@2@@2@_N_J_KNVallocator@2@Uadl_serializer@nlohmann@@@nlohmann@@@std@@@2@@std@@ABV12@@?$basic_json@Vmap@std@@Vvector@2@V?$basic_string@DU?$char_traits@D@std@@V?$allocator@D@2@@2@_N_J_KNVallocator@2@Uadl_serializer@nlohmann@@@nlohmann@@CAPAV12@ABV12@@Z@@std@@QAEPAV?$map@V?$basic_string@DU?$char_traits@D@std@@V?$allocator@D@2@@std@@V?$basic_json@Vmap@std@@Vvector@2@V?$basic_string@DU?$char_traits@D@std@@V?$allocator@D@2@@2@_N_J_KNVallocator@2@Uadl_serializer@nlohmann@@@nlohmann@@U?$less@X@2@V?$allocator@U?$pair@$$CBV?$basic_string@DU?$char_traits@D@std@@V?$allocator@D@2@@std@@V?$basic_json@Vmap@std@@Vvector@2@V?$basic_string@DU?$char_traits@D@std@@V?$allocator@D@2@@2@_N_J_KNVallocator@2@Uadl_serializer@nlohmann@@@nlohmann@@@std@@@2@@2@XZ 1000cc60 f i c_menu.obj
 0001:0000bc60       ?_Release@?$_Alloc_construct_ptr@V?$allocator@U?$_List_node@U?$pair@$$CBIVc_font@@@std@@PAX@std@@@std@@@std@@QAEPAU?$_List_node@U?$pair@$$CBIVc_font@@@std@@PAX@2@XZ 1000cc60 f i c_renderer.obj
 0001:0000bc60       ?release@?$unique_ptr@V?$basic_string@DU?$char_traits@D@std@@V?$allocator@D@2@@std@@V<lambda_1>@?1???$create@V?$basic_string@DU?$char_traits@D@std@@V?$allocator@D@2@@std@@AAY00$$CBD@?$basic_json@Vmap@std@@Vvector@2@V?$basic_string@DU?$char_traits@D@std@@V?$allocator@D@2@@2@_N_J_KNVallocator@2@Uadl_serializer@nlohmann@@@nlohmann@@CAPAV12@AAY00$$CBD@Z@@std@@QAEPAV?$basic_string@DU?$char_traits@D@std@@V?$allocator@D@2@@2@XZ 1000cc60 f i c_menu.obj
 0001:0000bc60       ?release@?$unique_ptr@V?$vector@V?$basic_json@Vmap@std@@Vvector@2@V?$basic_string@DU?$char_traits@D@std@@V?$allocator@D@2@@2@_N_J_KNVallocator@2@Uadl_serializer@nlohmann@@@nlohmann@@V?$allocator@V?$basic_json@Vmap@std@@Vvector@2@V?$basic_string@DU?$char_traits@D@std@@V?$allocator@D@2@@2@_N_J_KNVallocator@2@Uadl_serializer@nlohmann@@@nlohmann@@@std@@@std@@V<lambda_1>@?1???$create@V?$vector@V?$basic_json@Vmap@std@@Vvector@2@V?$basic_string@DU?$char_traits@D@std@@V?$allocator@D@2@@2@_N_J_KNVallocator@2@Uadl_serializer@nlohmann@@@nlohmann@@V?$allocator@V?$basic_json@Vmap@std@@Vvector@2@V?$basic_string@DU?$char_traits@D@std@@V?$allocator@D@2@@2@_N_J_KNVallocator@2@Uadl_serializer@nlohmann@@@nlohmann@@@std@@@std@@ABV12@@?$basic_json@Vmap@std@@Vvector@2@V?$basic_string@DU?$char_traits@D@std@@V?$allocator@D@2@@2@_N_J_KNVallocator@2@Uadl_serializer@nlohmann@@@nlohmann@@CAPAV12@ABV12@@Z@@std@@QAEPAV?$vector@V?$basic_json@Vmap@std@@Vvector@2@V?$basic_string@DU?$char_traits@D@std@@V?$allocator@D@2@@2@_N_J_KNVallocator@2@Uadl_serializer@nlohmann@@@nlohmann@@V?$allocator@V?$basic_json@Vmap@std@@Vvector@2@V?$basic_string@DU?$char_traits@D@std@@V?$allocator@D@2@@2@_N_J_KNVallocator@2@Uadl_serializer@nlohmann@@@nlohmann@@@std@@@2@XZ 1000cc60 f i c_menu.obj
 0001:0000bc60       ?_Release@?$_Alloc_construct_ptr@V?$allocator@U?$_List_node@U?$pair@$$CBIUanimation_info@c_animation_system@@@std@@PAX@std@@@std@@@std@@QAEPAU?$_List_node@U?$pair@$$CBIUanimation_info@c_animation_system@@@std@@PAX@2@XZ 1000cc60 f i c_animation_system.obj
 0001:0000bc60       ?release@?$unique_ptr@V?$vector@V?$basic_json@Vmap@std@@Vvector@2@V?$basic_string@DU?$char_traits@D@std@@V?$allocator@D@2@@2@_N_J_KNVallocator@2@Uadl_serializer@nlohmann@@@nlohmann@@V?$allocator@V?$basic_json@Vmap@std@@Vvector@2@V?$basic_string@DU?$char_traits@D@std@@V?$allocator@D@2@@2@_N_J_KNVallocator@2@Uadl_serializer@nlohmann@@@nlohmann@@@std@@@std@@V<lambda_1>@?1???$create@V?$vector@V?$basic_json@Vmap@std@@Vvector@2@V?$basic_string@DU?$char_traits@D@std@@V?$allocator@D@2@@2@_N_J_KNVallocator@2@Uadl_serializer@nlohmann@@@nlohmann@@V?$allocator@V?$basic_json@Vmap@std@@Vvector@2@V?$basic_string@DU?$char_traits@D@std@@V?$allocator@D@2@@2@_N_J_KNVallocator@2@Uadl_serializer@nlohmann@@@nlohmann@@@std@@@std@@PBV?$json_ref@V?$basic_json@Vmap@std@@Vvector@2@V?$basic_string@DU?$char_traits@D@std@@V?$allocator@D@2@@2@_N_J_KNVallocator@2@Uadl_serializer@nlohmann@@@nlohmann@@@detail@nlohmann@@PBV345@@?$basic_json@Vmap@std@@Vvector@2@V?$basic_string@DU?$char_traits@D@std@@V?$allocator@D@2@@2@_N_J_KNVallocator@2@Uadl_serializer@nlohmann@@@nlohmann@@CAPAV12@$$QAPBV?$json_ref@V?$basic_json@Vmap@std@@Vvector@2@V?$basic_string@DU?$char_traits@D@std@@V?$allocator@D@2@@2@_N_J_KNVallocator@2@Uadl_serializer@nlohmann@@@nlohmann@@@detail@5@0@Z@@std@@QAEPAV?$vector@V?$basic_json@Vmap@std@@Vvector@2@V?$basic_string@DU?$char_traits@D@std@@V?$allocator@D@2@@2@_N_J_KNVallocator@2@Uadl_serializer@nlohmann@@@nlohmann@@V?$allocator@V?$basic_json@Vmap@std@@Vvector@2@V?$basic_string@DU?$char_traits@D@std@@V?$allocator@D@2@@2@_N_J_KNVallocator@2@Uadl_serializer@nlohmann@@@nlohmann@@@std@@@2@XZ 1000cc60 f i c_menu.obj
 0001:0000bc60       ?release@?$unique_ptr@V?$basic_string@DU?$char_traits@D@std@@V?$allocator@D@2@@std@@V<lambda_1>@?1???$create@V?$basic_string@DU?$char_traits@D@std@@V?$allocator@D@2@@std@@V12@@?$basic_json@Vmap@std@@Vvector@2@V?$basic_string@DU?$char_traits@D@std@@V?$allocator@D@2@@2@_N_J_KNVallocator@2@Uadl_serializer@nlohmann@@@nlohmann@@CAPAV12@$$QAV12@@Z@@std@@QAEPAV?$basic_string@DU?$char_traits@D@std@@V?$allocator@D@2@@2@XZ 1000cc60 f i c_menu.obj
 0001:0000bc60       ?_Release@?$_Alloc_construct_ptr@V?$allocator@U?$_List_node@U?$pair@$$CBIUnetvar@c_netvar@@@std@@PAX@std@@@std@@@std@@QAEPAU?$_List_node@U?$pair@$$CBIUnetvar@c_netvar@@@std@@PAX@2@XZ 1000cc60 f i aimbot_recode.obj
 0001:0000bc60       ?release@?$unique_ptr@V?$map@V?$basic_string@DU?$char_traits@D@std@@V?$allocator@D@2@@std@@V?$basic_json@Vmap@std@@Vvector@2@V?$basic_string@DU?$char_traits@D@std@@V?$allocator@D@2@@2@_N_J_KNVallocator@2@Uadl_serializer@nlohmann@@@nlohmann@@U?$less@X@2@V?$allocator@U?$pair@$$CBV?$basic_string@DU?$char_traits@D@std@@V?$allocator@D@2@@std@@V?$basic_json@Vmap@std@@Vvector@2@V?$basic_string@DU?$char_traits@D@std@@V?$allocator@D@2@@2@_N_J_KNVallocator@2@Uadl_serializer@nlohmann@@@nlohmann@@@std@@@2@@std@@V<lambda_1>@?1???$create@V?$map@V?$basic_string@DU?$char_traits@D@std@@V?$allocator@D@2@@std@@V?$basic_json@Vmap@std@@Vvector@2@V?$basic_string@DU?$char_traits@D@std@@V?$allocator@D@2@@2@_N_J_KNVallocator@2@Uadl_serializer@nlohmann@@@nlohmann@@U?$less@X@2@V?$allocator@U?$pair@$$CBV?$basic_string@DU?$char_traits@D@std@@V?$allocator@D@2@@std@@V?$basic_json@Vmap@std@@Vvector@2@V?$basic_string@DU?$char_traits@D@std@@V?$allocator@D@2@@2@_N_J_KNVallocator@2@Uadl_serializer@nlohmann@@@nlohmann@@@std@@@2@@std@@$$V@?$basic_json@Vmap@std@@Vvector@2@V?$basic_string@DU?$char_traits@D@std@@V?$allocator@D@2@@2@_N_J_KNVallocator@2@Uadl_serializer@nlohmann@@@nlohmann@@CAPAV12@XZ@@std@@QAEPAV?$map@V?$basic_string@DU?$char_traits@D@std@@V?$allocator@D@2@@std@@V?$basic_json@Vmap@std@@Vvector@2@V?$basic_string@DU?$char_traits@D@std@@V?$allocator@D@2@@2@_N_J_KNVallocator@2@Uadl_serializer@nlohmann@@@nlohmann@@U?$less@X@2@V?$allocator@U?$pair@$$CBV?$basic_string@DU?$char_traits@D@std@@V?$allocator@D@2@@std@@V?$basic_json@Vmap@std@@Vvector@2@V?$basic_string@DU?$char_traits@D@std@@V?$allocator@D@2@@2@_N_J_KNVallocator@2@Uadl_serializer@nlohmann@@@nlohmann@@@std@@@2@@2@XZ 1000cc60 f i c_menu.obj
 0001:0000bc60       ?release@?$unique_ptr@V?$vector@V?$basic_json@Vmap@std@@Vvector@2@V?$basic_string@DU?$char_traits@D@std@@V?$allocator@D@2@@2@_N_J_KNVallocator@2@Uadl_serializer@nlohmann@@@nlohmann@@V?$allocator@V?$basic_json@Vmap@std@@Vvector@2@V?$basic_string@DU?$char_traits@D@std@@V?$allocator@D@2@@2@_N_J_KNVallocator@2@Uadl_serializer@nlohmann@@@nlohmann@@@std@@@std@@V<lambda_1>@?1???$create@V?$vector@V?$basic_json@Vmap@std@@Vvector@2@V?$basic_string@DU?$char_traits@D@std@@V?$allocator@D@2@@2@_N_J_KNVallocator@2@Uadl_serializer@nlohmann@@@nlohmann@@V?$allocator@V?$basic_json@Vmap@std@@Vvector@2@V?$basic_string@DU?$char_traits@D@std@@V?$allocator@D@2@@2@_N_J_KNVallocator@2@Uadl_serializer@nlohmann@@@nlohmann@@@std@@@std@@$$V@?$basic_json@Vmap@std@@Vvector@2@V?$basic_string@DU?$char_traits@D@std@@V?$allocator@D@2@@2@_N_J_KNVallocator@2@Uadl_serializer@nlohmann@@@nlohmann@@CAPAV12@XZ@@std@@QAEPAV?$vector@V?$basic_json@Vmap@std@@Vvector@2@V?$basic_string@DU?$char_traits@D@std@@V?$allocator@D@2@@2@_N_J_KNVallocator@2@Uadl_serializer@nlohmann@@@nlohmann@@V?$allocator@V?$basic_json@Vmap@std@@Vvector@2@V?$basic_string@DU?$char_traits@D@std@@V?$allocator@D@2@@2@_N_J_KNVallocator@2@Uadl_serializer@nlohmann@@@nlohmann@@@std@@@2@XZ 1000cc60 f i c_menu.obj
 0001:0000bc60       ?release@?$unique_ptr@V?$basic_string@DU?$char_traits@D@std@@V?$allocator@D@2@@std@@V<lambda_1>@?1???$create@V?$basic_string@DU?$char_traits@D@std@@V?$allocator@D@2@@std@@ABV12@@?$basic_json@Vmap@std@@Vvector@2@V?$basic_string@DU?$char_traits@D@std@@V?$allocator@D@2@@2@_N_J_KNVallocator@2@Uadl_serializer@nlohmann@@@nlohmann@@CAPAV12@ABV12@@Z@@std@@QAEPAV?$basic_string@DU?$char_traits@D@std@@V?$allocator@D@2@@2@XZ 1000cc60 f i c_menu.obj
 0001:0000bc60       ?_Release@?$_Alloc_construct_ptr@V?$allocator@U?$_Tree_node@U?$pair@$$CBV?$basic_string@DU?$char_traits@D@std@@V?$allocator@D@2@@std@@V?$basic_json@Vmap@std@@Vvector@2@V?$basic_string@DU?$char_traits@D@std@@V?$allocator@D@2@@2@_N_J_KNVallocator@2@Uadl_serializer@nlohmann@@@nlohmann@@@std@@PAX@std@@@std@@@std@@QAEPAU?$_Tree_node@U?$pair@$$CBV?$basic_string@DU?$char_traits@D@std@@V?$allocator@D@2@@std@@V?$basic_json@Vmap@std@@Vvector@2@V?$basic_string@DU?$char_traits@D@std@@V?$allocator@D@2@@2@_N_J_KNVallocator@2@Uadl_serializer@nlohmann@@@nlohmann@@@std@@PAX@2@XZ 1000cc60 f i c_menu.obj
 0001:0000bcc0       ?_Release@?$_Uninitialized_backout_al@V?$allocator@U?$pair@V?$shared_ptr@Vc_drawable@@@std@@U?$pair@Vc_vector2d@@V1@@2@@std@@@std@@@std@@QAEPAU?$pair@V?$shared_ptr@Vc_drawable@@@std@@U?$pair@Vc_vector2d@@V1@@2@@2@XZ 1000ccc0 f i c_checkbox.obj
 0001:0000bcc0       ?_Release@?$_Uninitialized_backout_al@V?$allocator@V?$tuple@MMM@std@@@std@@@std@@QAEPAV?$tuple@MMM@2@XZ 1000ccc0 f i c_aimhelper.obj
 0001:0000bcc0       ?_Release@?$_Uninitialized_backout_al@V?$allocator@Uplayer_info@c_esp@@@std@@@std@@QAEPAUplayer_info@c_esp@@XZ 1000ccc0 f i c_esp.obj
 0001:0000bcc0       ?_Release@?$_Uninitialized_backout_al@V?$allocator@Uaim_info@c_aimhelper@@@std@@@std@@QAEPAUaim_info@c_aimhelper@@XZ 1000ccc0 f i c_aimhelper.obj
 0001:0000bcc0       ?_Release@?$_Uninitialized_backout_al@V?$allocator@V?$basic_string@DU?$char_traits@D@std@@V?$allocator@D@2@@std@@@std@@@std@@QAEPAV?$basic_string@DU?$char_traits@D@std@@V?$allocator@D@2@@2@XZ 1000ccc0 f i c_miscellaneous.obj
 0001:0000bcc0       ?_Release@?$_Uninitialized_backout_al@V?$allocator@Vc_vector3d@@@std@@@std@@QAEPAVc_vector3d@@XZ 1000ccc0 f i aimbot_recode.obj
 0001:0000bcc0       ?_Release@?$_Uninitialized_backout@PAV?$_List_unchecked_iterator@V?$_List_val@U?$_List_simple_types@U?$pair@$$CBIUanimation_info@c_animation_system@@@std@@@std@@@std@@@std@@@std@@QAEPAV?$_List_unchecked_iterator@V?$_List_val@U?$_List_simple_types@U?$pair@$$CBIUanimation_info@c_animation_system@@@std@@@std@@@std@@@2@XZ 1000ccc0 f i aimbot_recode.obj
 0001:0000bcc0       ?_Release@?$_Uninitialized_backout_al@V?$allocator@VImConsoleTextItem@@@std@@@std@@QAEPAVImConsoleTextItem@@XZ 1000ccc0 f i ImConsole.obj
 0001:0000bcc0       ?_Release@?$_Uninitialized_backout_al@V?$allocator@U?$pair@PAVc_cs_player@@M@std@@@std@@@std@@QAEPAU?$pair@PAVc_cs_player@@M@2@XZ 1000ccc0 f i c_chams.obj
 0001:0000bcc0       ?_Release@?$_Uninitialized_backout_al@V?$allocator@Vc_vector2d@@@std@@@std@@QAEPAVc_vector2d@@XZ 1000ccc0 f i c_renderer.obj
 0001:0000bcc0       ?_Release@?$_Uninitialized_backout_al@V?$allocator@V?$basic_json@Vmap@std@@Vvector@2@V?$basic_string@DU?$char_traits@D@std@@V?$allocator@D@2@@2@_N_J_KNVallocator@2@Uadl_serializer@nlohmann@@@nlohmann@@@std@@@std@@QAEPAV?$basic_json@Vmap@std@@Vvector@2@V?$basic_string@DU?$char_traits@D@std@@V?$allocator@D@2@@2@_N_J_KNVallocator@2@Uadl_serializer@nlohmann@@@nlohmann@@XZ 1000ccc0 f i c_menu.obj
 0001:0000bcc0       ?_Release@?$_Uninitialized_backout@PAV?$_List_unchecked_iterator@V?$_List_val@U?$_List_simple_types@U?$pair@$$CBIPAVCD3DFont@@@std@@@std@@@std@@@std@@@std@@QAEPAV?$_List_unchecked_iterator@V?$_List_val@U?$_List_simple_types@U?$pair@$$CBIPAVCD3DFont@@@std@@@std@@@std@@@2@XZ 1000ccc0 f i c_renderer.obj
 0001:0000bcc0       ?_Release@?$_Uninitialized_backout@PAV?$_List_unchecked_iterator@V?$_List_val@U?$_List_simple_types@U?$pair@$$CBIUnetvar@c_netvar@@@std@@@std@@@std@@@std@@@std@@QAEPAV?$_List_unchecked_iterator@V?$_List_val@U?$_List_simple_types@U?$pair@$$CBIUnetvar@c_netvar@@@std@@@std@@@std@@@2@XZ 1000ccc0 f i aimbot_recode.obj
 0001:0000bcc0       ?_Release@?$_Uninitialized_backout_al@V?$allocator@Udamage_infos@@@std@@@std@@QAEPAUdamage_infos@@XZ 1000ccc0 f i c_esp.obj
 0001:0000bcc0       ?_Release@?$_Uninitialized_backout_al@V?$allocator@V?$vector@MV?$allocator@M@std@@@std@@@std@@@std@@QAEPAV?$vector@MV?$allocator@M@std@@@2@XZ 1000ccc0 f i c_font.obj
 0001:0000bcc0       ?_Release@?$_Uninitialized_backout@PAV?$_List_unchecked_iterator@V?$_List_val@U?$_List_simple_types@U?$pair@QAVc_hotkey_select@@V?$function@$$A6AXI@Z@std@@@std@@@std@@@std@@@std@@@std@@QAEPAV?$_List_unchecked_iterator@V?$_List_val@U?$_List_simple_types@U?$pair@QAVc_hotkey_select@@V?$function@$$A6AXI@Z@std@@@std@@@std@@@std@@@2@XZ 1000ccc0 f i c_hotkeys.obj
 0001:0000bcc0       ?_Release@?$_Uninitialized_backout@PAV?$_List_unchecked_iterator@V?$_List_val@U?$_List_simple_types@U?$pair@$$CBIV?$unordered_map@IUnetvar@c_netvar@@U?$hash@I@std@@U?$equal_to@I@4@V?$allocator@U?$pair@$$CBIUnetvar@c_netvar@@@std@@@4@@std@@@std@@@std@@@std@@@std@@@std@@QAEPAV?$_List_unchecked_iterator@V?$_List_val@U?$_List_simple_types@U?$pair@$$CBIV?$unordered_map@IUnetvar@c_netvar@@U?$hash@I@std@@U?$equal_to@I@4@V?$allocator@U?$pair@$$CBIUnetvar@c_netvar@@@std@@@4@@std@@@std@@@std@@@std@@@2@XZ 1000ccc0 f i aimbot_recode.obj
 0001:0000bcc0       ?_Release@?$_Uninitialized_backout@PAV?$_List_unchecked_iterator@V?$_List_val@U?$_List_simple_types@U?$pair@$$CBIVc_font@@@std@@@std@@@std@@@std@@@std@@QAEPAV?$_List_unchecked_iterator@V?$_List_val@U?$_List_simple_types@U?$pair@$$CBIVc_font@@@std@@@std@@@std@@@2@XZ 1000ccc0 f i c_renderer.obj
 0001:0000bcc0       ?_Release@?$_Uninitialized_backout_al@V?$allocator@Unade_info@c_esp@@@std@@@std@@QAEPAUnade_info@c_esp@@XZ 1000ccc0 f i c_esp.obj
 0001:0000bcc0       ?_Release@?$_Uninitialized_backout_al@V?$allocator@V?$function@$$A6AXI@Z@std@@@std@@@std@@QAEPAV?$function@$$A6AXI@Z@2@XZ 1000ccc0 f i c_hotkeys.obj
 0001:0000bce0       ?_Seek_to@?$_Vector_const_iterator@V?$_Vector_val@U?$_Simple_types@PAVLua_Hook@@@std@@@std@@@std@@QAEXPBQAVLua_Hook@@@Z 1000cce0 f i LuaAPI.obj
 0001:0000bce0       ?_Seek_to@?$_Vector_const_iterator@V?$_Vector_val@U?$_Simple_types@H@std@@@std@@@std@@QAEXPBH@Z 1000cce0 f i grenade_prediction.obj
 0001:0000bce0       ?_Seek_to@?$_String_const_iterator@V?$_String_val@U?$_Simple_types@D@std@@@std@@@std@@QAEXPBD@Z 1000cce0 f i aimbot_recode.obj
 0001:0000bd00       ?_Set@?$_Func_class@XPAVc_cs_player@@@std@@AAEXPAV?$_Func_base@XPAVc_cs_player@@@2@@Z 1000cd00 f i aimbot_recode.obj
 0001:0000bd00       ?_Set@?$_Func_class@_NHW4parse_event_t@?$parser@V?$basic_json@Vmap@std@@Vvector@2@V?$basic_string@DU?$char_traits@D@std@@V?$allocator@D@2@@2@_N_J_KNVallocator@2@Uadl_serializer@nlohmann@@@nlohmann@@@detail@nlohmann@@AAV?$basic_json@Vmap@std@@Vvector@2@V?$basic_string@DU?$char_traits@D@std@@V?$allocator@D@2@@2@_N_J_KNVallocator@2@Uadl_serializer@nlohmann@@@4@@std@@AAEXPAV?$_Func_base@_NHW4parse_event_t@?$parser@V?$basic_json@Vmap@std@@Vvector@2@V?$basic_string@DU?$char_traits@D@std@@V?$allocator@D@2@@2@_N_J_KNVallocator@2@Uadl_serializer@nlohmann@@@nlohmann@@@detail@nlohmann@@AAV?$basic_json@Vmap@std@@Vvector@2@V?$basic_string@DU?$char_traits@D@std@@V?$allocator@D@2@@2@_N_J_KNVallocator@2@Uadl_serializer@nlohmann@@@4@@2@@Z 1000cd00 f i c_menu.obj
 0001:0000bd00       ?_Set@?$_Func_class@X$$V@std@@AAEXPAV?$_Func_base@X$$V@2@@Z 1000cd00 f i c_chams.obj
 0001:0000bd00       ?_Set@?$_Func_class@XI@std@@AAEXPAV?$_Func_base@XI@2@@Z 1000cd00 f i c_fake_ping.obj
 0001:0000bd00       ?_Set@?$_Func_class@XPAVc_client_entity@@@std@@AAEXPAV?$_Func_base@XPAVc_client_entity@@@2@@Z 1000cd00 f i c_esp.obj
 0001:0000bd20       ?_Take_contents@?$_Vector_val@U?$_Simple_types@Uaim_info@c_aimhelper@@@std@@@std@@QAEXAAV12@@Z 1000cd20 f i c_aimhelper.obj
 0001:0000bd20       ?_Take_contents@?$_Vector_val@U?$_Simple_types@PAUanimation@c_animation_system@@@std@@@std@@QAEXAAV12@@Z 1000cd20 f i c_aimhelper.obj
 0001:0000bd20       ?_Take_contents@?$_Vector_val@U?$_Simple_types@Vc_vector3d@@@std@@@std@@QAEXAAV12@@Z 1000cd20 f i c_resolver.obj
 0001:0000bd20       ?_Take_contents@?$_Vector_val@U?$_Simple_types@M@std@@@std@@QAEXAAV12@@Z 1000cd20 f i c_font.obj
 0001:0000bd20       ?_Take_contents@?$_Vector_val@U?$_Simple_types@H@std@@@std@@QAEXAAV12@@Z 1000cd20 f i aimbot_recode.obj
 0001:0000bd20       ?_Take_contents@?$_Vector_val@U?$_Simple_types@V?$basic_string@DU?$char_traits@D@std@@V?$allocator@D@2@@std@@@std@@@std@@QAEXAAV12@@Z 1000cd20 f i ImConsole.obj
 0001:0000bd80       ?_Take_contents@?$basic_string@DU?$char_traits@D@std@@V?$allocator@D@2@@std@@AAEXAAV12@U?$integral_constant@_N$00@2@@Z 1000cd80 f i aimbot_recode.obj
 0001:0000bdb0       ?_Throw_bad_optional_access@std@@YAXXZ 1000cdb0 f i aimbot_recode.obj
 0001:0000bde0       ?_Tidy@?$_Func_class@XPAVc_client_entity@@@std@@IAEXXZ 1000cde0 f i c_esp.obj
 0001:0000bde0       ?_Tidy@?$_Func_class@XPAVc_cs_player@@@std@@IAEXXZ 1000cde0 f i aimbot_recode.obj
 0001:0000bde0       ?_Tidy@?$_Func_class@XI@std@@IAEXXZ 1000cde0 f i c_fake_ping.obj
 0001:0000bde0       ?_Tidy@?$_Func_class@X$$V@std@@IAEXXZ 1000cde0 f i c_chams.obj
 0001:0000bde0       ?_Tidy@?$_Func_class@_NHW4parse_event_t@?$parser@V?$basic_json@Vmap@std@@Vvector@2@V?$basic_string@DU?$char_traits@D@std@@V?$allocator@D@2@@2@_N_J_KNVallocator@2@Uadl_serializer@nlohmann@@@nlohmann@@@detail@nlohmann@@AAV?$basic_json@Vmap@std@@Vvector@2@V?$basic_string@DU?$char_traits@D@std@@V?$allocator@D@2@@2@_N_J_KNVallocator@2@Uadl_serializer@nlohmann@@@4@@std@@IAEXXZ 1000cde0 f i c_menu.obj
 0001:0000be40       ?_Tidy@?$deque@Uanimation@c_animation_system@@V?$allocator@Uanimation@c_animation_system@@@std@@@std@@AAEXXZ 1000ce40 f i aimbot_recode.obj
 0001:0000bf80       ?_Tidy@?$deque@Ushot@resolver@@V?$allocator@Ushot@resolver@@@std@@@std@@AAEXXZ 1000cf80 f i aimbot_recode.obj
 0001:0000c0c0       ?_Tidy@?$list@U?$pair@$$CBIUanimation_info@c_animation_system@@@std@@V?$allocator@U?$pair@$$CBIUanimation_info@c_animation_system@@@std@@@2@@std@@AAEXXZ 1000d0c0 f i aimbot_recode.obj
 0001:0000c110       ?_Tidy@?$vector@PAVLua_Hook@@V?$allocator@PAVLua_Hook@@@std@@@std@@AAEXXZ 1000d110 f i LuaAPI.obj
 0001:0000c110       ?_Tidy@?$vector@W4hitbox@c_cs_player@@V?$allocator@W4hitbox@c_cs_player@@@std@@@std@@AAEXXZ 1000d110 f i aimbot_recode.obj
 0001:0000c110       ?_Tidy@?$vector@PAUanimation@c_animation_system@@V?$allocator@PAUanimation@c_animation_system@@@std@@@std@@AAEXXZ 1000d110 f i c_aimhelper.obj
 0001:0000c110       ?_Tidy@?$vector@HV?$allocator@H@std@@@std@@AAEXXZ 1000d110 f i aimbot_recode.obj
 0001:0000c110       ?_Tidy@?$vector@MV?$allocator@M@std@@@std@@AAEXXZ 1000d110 f i c_font.obj
 0001:0000c1e0       ?_Tidy@?$vector@Unade_info@c_esp@@V?$allocator@Unade_info@c_esp@@@std@@@std@@AAEXXZ 1000d1e0 f i aimbot_recode.obj
 0001:0000c1e0       ?_Tidy@?$vector@Uimpact_info@@V?$allocator@Uimpact_info@@@std@@@std@@AAEXXZ 1000d1e0 f i c_hitmarker.obj
 0001:0000c2b0       ?_Tidy@?$vector@Uplayer_info@c_esp@@V?$allocator@Uplayer_info@c_esp@@@std@@@std@@AAEXXZ 1000d2b0 f i aimbot_recode.obj
 0001:0000c380       ?_Tidy@?$vector@Vc_vector3d@@V?$allocator@Vc_vector3d@@@std@@@std@@AAEXXZ 1000d380 f i aimbot_recode.obj
 0001:0000c380       ?_Tidy@?$vector@V?$tuple@MMM@std@@V?$allocator@V?$tuple@MMM@std@@@2@@std@@AAEXXZ 1000d380 f i c_aimhelper.obj
 0001:0000c450       ?_Umove@?$vector@W4hitbox@c_cs_player@@V?$allocator@W4hitbox@c_cs_player@@@std@@@std@@AAEPAW4hitbox@c_cs_player@@PAW434@00@Z 1000d450 f i aimbot_recode.obj
 0001:0000c450       ?_Umove@?$vector@HV?$allocator@H@std@@@std@@AAEPAHPAH00@Z 1000d450 f i aimbot_recode.obj
 0001:0000c450       ?_Umove@?$vector@PAVLua_Hook@@V?$allocator@PAVLua_Hook@@@std@@@std@@AAEPAPAVLua_Hook@@PAPAV3@00@Z 1000d450 f i LuaAPI.obj
 0001:0000c450       ?_Umove@?$vector@PAUanimation@c_animation_system@@V?$allocator@PAUanimation@c_animation_system@@@std@@@std@@AAEPAPAUanimation@c_animation_system@@PAPAU34@00@Z 1000d450 f i c_animation_system.obj
 0001:0000c480       ?_Umove@?$vector@Vc_vector3d@@V?$allocator@Vc_vector3d@@@std@@@std@@AAEPAVc_vector3d@@PAV3@00@Z 1000d480 f i aimbot_recode.obj
 0001:0000c4b0       ?_Umove_if_noexcept1@?$vector@MV?$allocator@M@std@@@std@@AAEXPAM00U?$integral_constant@_N$00@2@@Z 1000d4b0 f i c_font.obj
 0001:0000c4b0       ?_Umove_if_noexcept1@?$vector@HV?$allocator@H@std@@@std@@AAEXPAH00U?$integral_constant@_N$00@2@@Z 1000d4b0 f i aimbot_recode.obj
 0001:0000c4b0       ?_Umove_if_noexcept1@?$vector@PAUanimation@c_animation_system@@V?$allocator@PAUanimation@c_animation_system@@@std@@@std@@AAEXPAPAUanimation@c_animation_system@@00U?$integral_constant@_N$00@2@@Z 1000d4b0 f i c_animation_system.obj
 0001:0000c4b0       ?_Umove_if_noexcept1@?$vector@PAVLua_Hook@@V?$allocator@PAVLua_Hook@@@std@@@std@@AAEXPAPAVLua_Hook@@00U?$integral_constant@_N$00@2@@Z 1000d4b0 f i LuaAPI.obj
 0001:0000c4b0       ?_Umove_if_noexcept1@?$vector@W4hitbox@c_cs_player@@V?$allocator@W4hitbox@c_cs_player@@@std@@@std@@AAEXPAW4hitbox@c_cs_player@@00U?$integral_constant@_N$00@2@@Z 1000d4b0 f i aimbot_recode.obj
 0001:0000c4e0       ?_Umove_if_noexcept1@?$vector@Vc_vector3d@@V?$allocator@Vc_vector3d@@@std@@@std@@AAEXPAVc_vector3d@@00U?$integral_constant@_N$00@2@@Z 1000d4e0 f i aimbot_recode.obj
 0001:0000c510       ?_Umove_if_noexcept@?$vector@MV?$allocator@M@std@@@std@@AAEXPAM00@Z 1000d510 f i c_font.obj
 0001:0000c510       ?_Umove_if_noexcept@?$vector@PAVLua_Hook@@V?$allocator@PAVLua_Hook@@@std@@@std@@AAEXPAPAVLua_Hook@@00@Z 1000d510 f i LuaAPI.obj
 0001:0000c510       ?_Umove_if_noexcept@?$vector@HV?$allocator@H@std@@@std@@AAEXPAH00@Z 1000d510 f i aimbot_recode.obj
 0001:0000c510       ?_Umove_if_noexcept@?$vector@PAUanimation@c_animation_system@@V?$allocator@PAUanimation@c_animation_system@@@std@@@std@@AAEXPAPAUanimation@c_animation_system@@00@Z 1000d510 f i c_animation_system.obj
 0001:0000c510       ?_Umove_if_noexcept@?$vector@W4hitbox@c_cs_player@@V?$allocator@W4hitbox@c_cs_player@@@std@@@std@@AAEXPAW4hitbox@c_cs_player@@00@Z 1000d510 f i aimbot_recode.obj
 0001:0000c540       ?_Umove_if_noexcept@?$vector@Vc_vector3d@@V?$allocator@Vc_vector3d@@@std@@@std@@AAEXPAVc_vector3d@@00@Z 1000d540 f i aimbot_recode.obj
 0001:0000c570       ?_Unchecked_begin@?$_Hash@V?$_Umap_traits@IUanimation_info@c_animation_system@@V?$_Uhash_compare@IU?$hash@I@std@@U?$equal_to@I@2@@std@@V?$allocator@U?$pair@$$CBIUanimation_info@c_animation_system@@@std@@@4@$0A@@std@@@std@@QAE?AV?$_List_unchecked_iterator@V?$_List_val@U?$_List_simple_types@U?$pair@$$CBIUanimation_info@c_animation_system@@@std@@@std@@@std@@@2@XZ 1000d570 f i c_animation_system.obj
 0001:0000c570       ?_Unchecked_begin@?$_Hash@V?$_Umap_traits@IV?$unordered_map@IUnetvar@c_netvar@@U?$hash@I@std@@U?$equal_to@I@4@V?$allocator@U?$pair@$$CBIUnetvar@c_netvar@@@std@@@4@@std@@V?$_Uhash_compare@IU?$hash@I@std@@U?$equal_to@I@2@@2@V?$allocator@U?$pair@$$CBIV?$unordered_map@IUnetvar@c_netvar@@U?$hash@I@std@@U?$equal_to@I@4@V?$allocator@U?$pair@$$CBIUnetvar@c_netvar@@@std@@@4@@std@@@std@@@2@$0A@@std@@@std@@QAE?AV?$_List_unchecked_iterator@V?$_List_val@U?$_List_simple_types@U?$pair@$$CBIV?$unordered_map@IUnetvar@c_netvar@@U?$hash@I@std@@U?$equal_to@I@4@V?$allocator@U?$pair@$$CBIUnetvar@c_netvar@@@std@@@4@@std@@@std@@@std@@@std@@@2@XZ 1000d570 f i aimbot_recode.obj
 0001:0000c570       ?_Unchecked_begin@?$_Hash@V?$_Umap_traits@IUnetvar@c_netvar@@V?$_Uhash_compare@IU?$hash@I@std@@U?$equal_to@I@2@@std@@V?$allocator@U?$pair@$$CBIUnetvar@c_netvar@@@std@@@4@$0A@@std@@@std@@QAE?AV?$_List_unchecked_iterator@V?$_List_val@U?$_List_simple_types@U?$pair@$$CBIUnetvar@c_netvar@@@std@@@std@@@std@@@2@XZ 1000d570 f i aimbot_recode.obj
 0001:0000c570       ?_Unchecked_begin@?$_Hash@V?$_Umap_traits@PAVc_hotkey_select@@V?$function@$$A6AXI@Z@std@@V?$_Uhash_compare@PAVc_hotkey_select@@U?$hash@PAVc_hotkey_select@@@std@@U?$equal_to@PAVc_hotkey_select@@@3@@3@V?$allocator@U?$pair@QAVc_hotkey_select@@V?$function@$$A6AXI@Z@std@@@std@@@3@$0A@@std@@@std@@QAE?AV?$_List_unchecked_iterator@V?$_List_val@U?$_List_simple_types@U?$pair@QAVc_hotkey_select@@V?$function@$$A6AXI@Z@std@@@std@@@std@@@std@@@2@XZ 1000d570 f i c_hotkeys.obj
 0001:0000c570       ?_Unchecked_begin@?$_Hash@V?$_Umap_traits@IPAVCD3DFont@@V?$_Uhash_compare@IU?$hash@I@std@@U?$equal_to@I@2@@std@@V?$allocator@U?$pair@$$CBIPAVCD3DFont@@@std@@@3@$0A@@std@@@std@@QAE?AV?$_List_unchecked_iterator@V?$_List_val@U?$_List_simple_types@U?$pair@$$CBIPAVCD3DFont@@@std@@@std@@@std@@@2@XZ 1000d570 f i c_renderer.obj
 0001:0000c570       ?_Unchecked_begin@?$_Hash@V?$_Umap_traits@IVc_font@@V?$_Uhash_compare@IU?$hash@I@std@@U?$equal_to@I@2@@std@@V?$allocator@U?$pair@$$CBIVc_font@@@std@@@3@$0A@@std@@@std@@QAE?AV?$_List_unchecked_iterator@V?$_List_val@U?$_List_simple_types@U?$pair@$$CBIVc_font@@@std@@@std@@@std@@@2@XZ 1000d570 f i c_renderer.obj
 0001:0000c5a0       ?_Unchecked_begin@?$list@U?$pair@$$CBIPAVCD3DFont@@@std@@V?$allocator@U?$pair@$$CBIPAVCD3DFont@@@std@@@2@@std@@QAE?AV?$_List_unchecked_iterator@V?$_List_val@U?$_List_simple_types@U?$pair@$$CBIPAVCD3DFont@@@std@@@std@@@std@@@2@XZ 1000d5a0 f i c_renderer.obj
 0001:0000c5a0       ?_Unchecked_begin@?$list@U?$pair@$$CBIV?$unordered_map@IUnetvar@c_netvar@@U?$hash@I@std@@U?$equal_to@I@4@V?$allocator@U?$pair@$$CBIUnetvar@c_netvar@@@std@@@4@@std@@@std@@V?$allocator@U?$pair@$$CBIV?$unordered_map@IUnetvar@c_netvar@@U?$hash@I@std@@U?$equal_to@I@4@V?$allocator@U?$pair@$$CBIUnetvar@c_netvar@@@std@@@4@@std@@@std@@@2@@std@@QAE?AV?$_List_unchecked_iterator@V?$_List_val@U?$_List_simple_types@U?$pair@$$CBIV?$unordered_map@IUnetvar@c_netvar@@U?$hash@I@std@@U?$equal_to@I@4@V?$allocator@U?$pair@$$CBIUnetvar@c_netvar@@@std@@@4@@std@@@std@@@std@@@std@@@2@XZ 1000d5a0 f i aimbot_recode.obj
 0001:0000c5a0       ?_Unchecked_begin@?$list@U?$pair@$$CBIUnetvar@c_netvar@@@std@@V?$allocator@U?$pair@$$CBIUnetvar@c_netvar@@@std@@@2@@std@@QAE?AV?$_List_unchecked_iterator@V?$_List_val@U?$_List_simple_types@U?$pair@$$CBIUnetvar@c_netvar@@@std@@@std@@@std@@@2@XZ 1000d5a0 f i aimbot_recode.obj
 0001:0000c5a0       ?_Unchecked_begin@?$list@U?$pair@$$CBIVc_font@@@std@@V?$allocator@U?$pair@$$CBIVc_font@@@std@@@2@@std@@QAE?AV?$_List_unchecked_iterator@V?$_List_val@U?$_List_simple_types@U?$pair@$$CBIVc_font@@@std@@@std@@@std@@@2@XZ 1000d5a0 f i c_renderer.obj
 0001:0000c5a0       ?_Unchecked_begin@?$list@U?$pair@QAVc_hotkey_select@@V?$function@$$A6AXI@Z@std@@@std@@V?$allocator@U?$pair@QAVc_hotkey_select@@V?$function@$$A6AXI@Z@std@@@std@@@2@@std@@QAE?AV?$_List_unchecked_iterator@V?$_List_val@U?$_List_simple_types@U?$pair@QAVc_hotkey_select@@V?$function@$$A6AXI@Z@std@@@std@@@std@@@std@@@2@XZ 1000d5a0 f i c_hotkeys.obj
 0001:0000c5a0       ?_Unchecked_begin@?$list@U?$pair@$$CBIUanimation_info@c_animation_system@@@std@@V?$allocator@U?$pair@$$CBIUanimation_info@c_animation_system@@@std@@@2@@std@@QAE?AV?$_List_unchecked_iterator@V?$_List_val@U?$_List_simple_types@U?$pair@$$CBIUanimation_info@c_animation_system@@@std@@@std@@@std@@@2@XZ 1000d5a0 f i c_animation_system.obj
 0001:0000c5d0       ?begin@?$initializer_list@V?$basic_string@DU?$char_traits@D@std@@V?$allocator@D@2@@std@@@std@@QBEPBV?$basic_string@DU?$char_traits@D@std@@V?$allocator@D@2@@2@XZ 1000d5d0 f i c_miscellaneous.obj
 0001:0000c5d0       ?_Unchecked_begin@?$vector@DV?$allocator@D@std@@@std@@QBEPBDXZ 1000d5d0 f i c_menu.obj
 0001:0000c5d0       ?_Unchecked_begin@?$vector@U?$pair@PAVc_cs_player@@M@std@@V?$allocator@U?$pair@PAVc_cs_player@@M@std@@@2@@std@@QAEPAU?$pair@PAVc_cs_player@@M@2@XZ 1000d5d0 f i c_chams.obj
 0001:0000c5d0       ?_Unchecked_begin@?$vector@Unade_info@c_esp@@V?$allocator@Unade_info@c_esp@@@std@@@std@@QAEPAUnade_info@c_esp@@XZ 1000d5d0 f i c_esp.obj
 0001:0000c5d0       ?begin@?$initializer_list@H@std@@QBEPBHXZ 1000d5d0 f i grenade_prediction.obj
 0001:0000c5d0       ?get@?$unique_ptr@Vc_renderer@@U?$default_delete@Vc_renderer@@@std@@@std@@QBEPAVc_renderer@@XZ 1000d5d0 f i idirect3ddevice9.obj
 0001:0000c5d0       ?_Unchecked_begin@?$vector@W4hitbox@c_cs_player@@V?$allocator@W4hitbox@c_cs_player@@@std@@@std@@QAEPAW4hitbox@c_cs_player@@XZ 1000d5d0 f i aimbot_recode.obj
 0001:0000c5d0       ?get@?$_Ptr_base@U?$output_adapter_protocol@D@detail@nlohmann@@@std@@IBEPAU?$output_adapter_protocol@D@detail@nlohmann@@XZ 1000d5d0 f i c_menu.obj
 0001:0000c5d0       ?_Unwrapped@?$_Array_const_iterator@D$0EA@@std@@QBEPBDXZ 1000d5d0 f i c_menu.obj
 0001:0000c5d0       ?begin@?$initializer_list@U?$pair@V?$shared_ptr@Vc_drawable@@@std@@U?$pair@Vc_vector2d@@V1@@2@@std@@@std@@QBEPBU?$pair@V?$shared_ptr@Vc_drawable@@@std@@U?$pair@Vc_vector2d@@V1@@2@@2@XZ 1000d5d0 f i c_checkbox.obj
 0001:0000c5d0       ?begin@?$initializer_list@PAUanimation@c_animation_system@@@std@@QBEPBQAUanimation@c_animation_system@@XZ 1000d5d0 f i c_aimhelper.obj
 0001:0000c5d0       ?_Unchecked_begin@?$vector@Udamage_infos@@V?$allocator@Udamage_infos@@@std@@@std@@QAEPAUdamage_infos@@XZ 1000d5d0 f i c_esp.obj
 0001:0000c5d0       ?get@?$_Ptr_base@Uinput_adapter_protocol@detail@nlohmann@@@std@@IBEPAUinput_adapter_protocol@detail@nlohmann@@XZ 1000d5d0 f i c_menu.obj
 0001:0000c5d0       ?_Unchecked_begin@?$vector@V?$function@$$A6AXXZ@std@@V?$allocator@V?$function@$$A6AXXZ@std@@@2@@std@@QAEPAV?$function@$$A6AXXZ@2@XZ 1000d5d0 f i c_renderer.obj
 0001:0000c5d0       ?_Unchecked_begin@?$vector@V?$function@$$A6AXI@Z@std@@V?$allocator@V?$function@$$A6AXI@Z@std@@@2@@std@@QAEPAV?$function@$$A6AXI@Z@2@XZ 1000d5d0 f i c_hotkeys.obj
 0001:0000c5d0       ?get@?$unique_ptr@$$BY0A@IU?$default_delete@$$BY0A@I@std@@@std@@QBEPAIXZ 1000d5d0 f i cte_effects.obj
 0001:0000c5d0       ??C?$unique_ptr@V?$c_hook@I@@U?$default_delete@V?$c_hook@I@@@std@@@std@@QBEPAV?$c_hook@I@@XZ 1000d5d0 f i c_client.obj
 0001:0000c5d0       ?begin@?$initializer_list@V?$json_ref@V?$basic_json@Vmap@std@@Vvector@2@V?$basic_string@DU?$char_traits@D@std@@V?$allocator@D@2@@2@_N_J_KNVallocator@2@Uadl_serializer@nlohmann@@@nlohmann@@@detail@nlohmann@@@std@@QBEPBV?$json_ref@V?$basic_json@Vmap@std@@Vvector@2@V?$basic_string@DU?$char_traits@D@std@@V?$allocator@D@2@@2@_N_J_KNVallocator@2@Uadl_serializer@nlohmann@@@nlohmann@@@detail@nlohmann@@XZ 1000d5d0 f i c_menu.obj
 0001:0000c5d0       ?_Unchecked_begin@?$vector@Uaim_info@c_aimhelper@@V?$allocator@Uaim_info@c_aimhelper@@@std@@@std@@QAEPAUaim_info@c_aimhelper@@XZ 1000d5d0 f i c_ragebot.obj
 0001:0000c5d0       ?_Unchecked_begin@?$vector@PAVLua_Hook@@V?$allocator@PAVLua_Hook@@@std@@@std@@QAEPAPAVLua_Hook@@XZ 1000d5d0 f i LuaAPI.obj
 0001:0000c5d0       ?_Unchecked_begin@?$vector@V?$vector@MV?$allocator@M@std@@@std@@V?$allocator@V?$vector@MV?$allocator@M@std@@@std@@@2@@std@@QAEPAV?$vector@MV?$allocator@M@std@@@2@XZ 1000d5d0 f i c_font.obj
 0001:0000c5d0       ?_Unchecked_begin@?$vector@V?$basic_string@DU?$char_traits@D@std@@V?$allocator@D@2@@std@@V?$allocator@V?$basic_string@DU?$char_traits@D@std@@V?$allocator@D@2@@std@@@2@@std@@QAEPAV?$basic_string@DU?$char_traits@D@std@@V?$allocator@D@2@@2@XZ 1000d5d0 f i loki_menu.obj
 0001:0000c5d0       ??D?$_String_const_iterator@V?$_String_val@U?$_Simple_types@D@std@@@std@@@std@@QBEABDXZ 1000d5d0 f i c_menu.obj
 0001:0000c5d0       ?_Unchecked_begin@?$vector@U?$pair@V?$shared_ptr@Vc_drawable@@@std@@U?$pair@Vc_vector2d@@V1@@2@@std@@V?$allocator@U?$pair@V?$shared_ptr@Vc_drawable@@@std@@U?$pair@Vc_vector2d@@V1@@2@@std@@@2@@std@@QAEPAU?$pair@V?$shared_ptr@Vc_drawable@@@std@@U?$pair@Vc_vector2d@@V1@@2@@2@XZ 1000d5d0 f i c_menu.obj
 0001:0000c5d0       ?begin@?$initializer_list@U?$pair@$$CBHH@std@@@std@@QBEPBU?$pair@$$CBHH@2@XZ 1000d5d0 f i c_prediction_.obj
 0001:0000c5d0       ?_Unchecked_begin@?$vector@PAUanimation@c_animation_system@@V?$allocator@PAUanimation@c_animation_system@@@std@@@std@@QBEPBQAUanimation@c_animation_system@@XZ 1000d5d0 f i c_aimhelper.obj
 0001:0000c5d0       ??D?$_Vector_const_iterator@V?$_Vector_val@U?$_Simple_types@V?$basic_json@Vmap@std@@Vvector@2@V?$basic_string@DU?$char_traits@D@std@@V?$allocator@D@2@@2@_N_J_KNVallocator@2@Uadl_serializer@nlohmann@@@nlohmann@@@std@@@std@@@std@@QBEABV?$basic_json@Vmap@std@@Vvector@2@V?$basic_string@DU?$char_traits@D@std@@V?$allocator@D@2@@2@_N_J_KNVallocator@2@Uadl_serializer@nlohmann@@@nlohmann@@XZ 1000d5d0 f i c_menu.obj
 0001:0000c5d0       ?get@?$_Ptr_base@Vc_drawable@@@std@@IBEPAVc_drawable@@XZ 1000d5d0 f i c_menu.obj
 0001:0000c5d0       ?_Unchecked_begin@?$vector@Uplayer_info@c_esp@@V?$allocator@Uplayer_info@c_esp@@@std@@@std@@QAEPAUplayer_info@c_esp@@XZ 1000d5d0 f i c_esp.obj
 0001:0000c5e0       ?_Unchecked_end@?$_Hash@V?$_Umap_traits@IPAVCD3DFont@@V?$_Uhash_compare@IU?$hash@I@std@@U?$equal_to@I@2@@std@@V?$allocator@U?$pair@$$CBIPAVCD3DFont@@@std@@@3@$0A@@std@@@std@@QAE?AV?$_List_unchecked_iterator@V?$_List_val@U?$_List_simple_types@U?$pair@$$CBIPAVCD3DFont@@@std@@@std@@@std@@@2@XZ 1000d5e0 f i c_renderer.obj
 0001:0000c5e0       ?_Unchecked_end@?$_Hash@V?$_Umap_traits@PAVc_hotkey_select@@V?$function@$$A6AXI@Z@std@@V?$_Uhash_compare@PAVc_hotkey_select@@U?$hash@PAVc_hotkey_select@@@std@@U?$equal_to@PAVc_hotkey_select@@@3@@3@V?$allocator@U?$pair@QAVc_hotkey_select@@V?$function@$$A6AXI@Z@std@@@std@@@3@$0A@@std@@@std@@QAE?AV?$_List_unchecked_iterator@V?$_List_val@U?$_List_simple_types@U?$pair@QAVc_hotkey_select@@V?$function@$$A6AXI@Z@std@@@std@@@std@@@std@@@2@XZ 1000d5e0 f i c_hotkeys.obj
 0001:0000c5e0       ?_Unchecked_end@?$_Hash@V?$_Umap_traits@IV?$unordered_map@IUnetvar@c_netvar@@U?$hash@I@std@@U?$equal_to@I@4@V?$allocator@U?$pair@$$CBIUnetvar@c_netvar@@@std@@@4@@std@@V?$_Uhash_compare@IU?$hash@I@std@@U?$equal_to@I@2@@2@V?$allocator@U?$pair@$$CBIV?$unordered_map@IUnetvar@c_netvar@@U?$hash@I@std@@U?$equal_to@I@4@V?$allocator@U?$pair@$$CBIUnetvar@c_netvar@@@std@@@4@@std@@@std@@@2@$0A@@std@@@std@@QAE?AV?$_List_unchecked_iterator@V?$_List_val@U?$_List_simple_types@U?$pair@$$CBIV?$unordered_map@IUnetvar@c_netvar@@U?$hash@I@std@@U?$equal_to@I@4@V?$allocator@U?$pair@$$CBIUnetvar@c_netvar@@@std@@@4@@std@@@std@@@std@@@std@@@2@XZ 1000d5e0 f i aimbot_recode.obj
 0001:0000c5e0       ?_Unchecked_end@?$_Hash@V?$_Umap_traits@IVc_font@@V?$_Uhash_compare@IU?$hash@I@std@@U?$equal_to@I@2@@std@@V?$allocator@U?$pair@$$CBIVc_font@@@std@@@3@$0A@@std@@@std@@QAE?AV?$_List_unchecked_iterator@V?$_List_val@U?$_List_simple_types@U?$pair@$$CBIVc_font@@@std@@@std@@@std@@@2@XZ 1000d5e0 f i c_renderer.obj
 0001:0000c5e0       ?_Unchecked_end@?$_Hash@V?$_Umap_traits@IUanimation_info@c_animation_system@@V?$_Uhash_compare@IU?$hash@I@std@@U?$equal_to@I@2@@std@@V?$allocator@U?$pair@$$CBIUanimation_info@c_animation_system@@@std@@@4@$0A@@std@@@std@@QAE?AV?$_List_unchecked_iterator@V?$_List_val@U?$_List_simple_types@U?$pair@$$CBIUanimation_info@c_animation_system@@@std@@@std@@@std@@@2@XZ 1000d5e0 f i c_animation_system.obj
 0001:0000c5e0       ?_Unchecked_end@?$_Hash@V?$_Umap_traits@IUnetvar@c_netvar@@V?$_Uhash_compare@IU?$hash@I@std@@U?$equal_to@I@2@@std@@V?$allocator@U?$pair@$$CBIUnetvar@c_netvar@@@std@@@4@$0A@@std@@@std@@QAE?AV?$_List_unchecked_iterator@V?$_List_val@U?$_List_simple_types@U?$pair@$$CBIUnetvar@c_netvar@@@std@@@std@@@std@@@2@XZ 1000d5e0 f i aimbot_recode.obj
 0001:0000c610       ?_Unchecked_end@?$list@U?$pair@$$CBIUnetvar@c_netvar@@@std@@V?$allocator@U?$pair@$$CBIUnetvar@c_netvar@@@std@@@2@@std@@QAE?AV?$_List_unchecked_iterator@V?$_List_val@U?$_List_simple_types@U?$pair@$$CBIUnetvar@c_netvar@@@std@@@std@@@std@@@2@XZ 1000d610 f i aimbot_recode.obj
 0001:0000c610       ?_Unchecked_end@?$list@U?$pair@QAVc_hotkey_select@@V?$function@$$A6AXI@Z@std@@@std@@V?$allocator@U?$pair@QAVc_hotkey_select@@V?$function@$$A6AXI@Z@std@@@std@@@2@@std@@QAE?AV?$_List_unchecked_iterator@V?$_List_val@U?$_List_simple_types@U?$pair@QAVc_hotkey_select@@V?$function@$$A6AXI@Z@std@@@std@@@std@@@std@@@2@XZ 1000d610 f i c_hotkeys.obj
 0001:0000c610       ?_Unchecked_end@?$list@U?$pair@$$CBIUanimation_info@c_animation_system@@@std@@V?$allocator@U?$pair@$$CBIUanimation_info@c_animation_system@@@std@@@2@@std@@QAE?AV?$_List_unchecked_iterator@V?$_List_val@U?$_List_simple_types@U?$pair@$$CBIUanimation_info@c_animation_system@@@std@@@std@@@std@@@2@XZ 1000d610 f i aimbot_recode.obj
 0001:0000c610       ?_Unchecked_end@?$list@U?$pair@$$CBIV?$unordered_map@IUnetvar@c_netvar@@U?$hash@I@std@@U?$equal_to@I@4@V?$allocator@U?$pair@$$CBIUnetvar@c_netvar@@@std@@@4@@std@@@std@@V?$allocator@U?$pair@$$CBIV?$unordered_map@IUnetvar@c_netvar@@U?$hash@I@std@@U?$equal_to@I@4@V?$allocator@U?$pair@$$CBIUnetvar@c_netvar@@@std@@@4@@std@@@std@@@2@@std@@QAE?AV?$_List_unchecked_iterator@V?$_List_val@U?$_List_simple_types@U?$pair@$$CBIV?$unordered_map@IUnetvar@c_netvar@@U?$hash@I@std@@U?$equal_to@I@4@V?$allocator@U?$pair@$$CBIUnetvar@c_netvar@@@std@@@4@@std@@@std@@@std@@@std@@@2@XZ 1000d610 f i aimbot_recode.obj
 0001:0000c610       ?_Unchecked_end@?$list@U?$pair@$$CBIVc_font@@@std@@V?$allocator@U?$pair@$$CBIVc_font@@@std@@@2@@std@@QAE?AV?$_List_unchecked_iterator@V?$_List_val@U?$_List_simple_types@U?$pair@$$CBIVc_font@@@std@@@std@@@std@@@2@XZ 1000d610 f i c_renderer.obj
 0001:0000c610       ?_Unchecked_end@?$list@U?$pair@$$CBIPAVCD3DFont@@@std@@V?$allocator@U?$pair@$$CBIPAVCD3DFont@@@std@@@2@@std@@QAE?AV?$_List_unchecked_iterator@V?$_List_val@U?$_List_simple_types@U?$pair@$$CBIPAVCD3DFont@@@std@@@std@@@std@@@2@XZ 1000d610 f i c_renderer.obj
 0001:0000c630       ?end@?$initializer_list@PAUanimation@c_animation_system@@@std@@QBEPBQAUanimation@c_animation_system@@XZ 1000d630 f i c_aimhelper.obj
 0001:0000c630       ?end@?$initializer_list@U?$pair@V?$shared_ptr@Vc_drawable@@@std@@U?$pair@Vc_vector2d@@V1@@2@@std@@@std@@QBEPBU?$pair@V?$shared_ptr@Vc_drawable@@@std@@U?$pair@Vc_vector2d@@V1@@2@@2@XZ 1000d630 f i c_checkbox.obj
 0001:0000c630       ?get@?$unique_ptr@V?$map@V?$basic_string@DU?$char_traits@D@std@@V?$allocator@D@2@@std@@V?$basic_json@Vmap@std@@Vvector@2@V?$basic_string@DU?$char_traits@D@std@@V?$allocator@D@2@@2@_N_J_KNVallocator@2@Uadl_serializer@nlohmann@@@nlohmann@@U?$less@X@2@V?$allocator@U?$pair@$$CBV?$basic_string@DU?$char_traits@D@std@@V?$allocator@D@2@@std@@V?$basic_json@Vmap@std@@Vvector@2@V?$basic_string@DU?$char_traits@D@std@@V?$allocator@D@2@@2@_N_J_KNVallocator@2@Uadl_serializer@nlohmann@@@nlohmann@@@std@@@2@@std@@V<lambda_1>@?1???$create@V?$map@V?$basic_string@DU?$char_traits@D@std@@V?$allocator@D@2@@std@@V?$basic_json@Vmap@std@@Vvector@2@V?$basic_string@DU?$char_traits@D@std@@V?$allocator@D@2@@2@_N_J_KNVallocator@2@Uadl_serializer@nlohmann@@@nlohmann@@U?$less@X@2@V?$allocator@U?$pair@$$CBV?$basic_string@DU?$char_traits@D@std@@V?$allocator@D@2@@std@@V?$basic_json@Vmap@std@@Vvector@2@V?$basic_string@DU?$char_traits@D@std@@V?$allocator@D@2@@2@_N_J_KNVallocator@2@Uadl_serializer@nlohmann@@@nlohmann@@@std@@@2@@std@@ABV12@@?$basic_json@Vmap@std@@Vvector@2@V?$basic_string@DU?$char_traits@D@std@@V?$allocator@D@2@@2@_N_J_KNVallocator@2@Uadl_serializer@nlohmann@@@nlohmann@@CAPAV12@ABV12@@Z@@std@@QBEPAV?$map@V?$basic_string@DU?$char_traits@D@std@@V?$allocator@D@2@@std@@V?$basic_json@Vmap@std@@Vvector@2@V?$basic_string@DU?$char_traits@D@std@@V?$allocator@D@2@@2@_N_J_KNVallocator@2@Uadl_serializer@nlohmann@@@nlohmann@@U?$less@X@2@V?$allocator@U?$pair@$$CBV?$basic_string@DU?$char_traits@D@std@@V?$allocator@D@2@@std@@V?$basic_json@Vmap@std@@Vvector@2@V?$basic_string@DU?$char_traits@D@std@@V?$allocator@D@2@@2@_N_J_KNVallocator@2@Uadl_serializer@nlohmann@@@nlohmann@@@std@@@2@@2@XZ 1000d630 f i c_menu.obj
 0001:0000c630       ?_Unchecked_end@?$vector@U?$pair@PAVc_cs_player@@M@std@@V?$allocator@U?$pair@PAVc_cs_player@@M@std@@@2@@std@@QAEPAU?$pair@PAVc_cs_player@@M@2@XZ 1000d630 f i c_chams.obj
 0001:0000c630       ?get@?$unique_ptr@V?$basic_string@DU?$char_traits@D@std@@V?$allocator@D@2@@std@@V<lambda_1>@?1???$create@V?$basic_string@DU?$char_traits@D@std@@V?$allocator@D@2@@std@@AAY00$$CBD@?$basic_json@Vmap@std@@Vvector@2@V?$basic_string@DU?$char_traits@D@std@@V?$allocator@D@2@@2@_N_J_KNVallocator@2@Uadl_serializer@nlohmann@@@nlohmann@@CAPAV12@AAY00$$CBD@Z@@std@@QBEPAV?$basic_string@DU?$char_traits@D@std@@V?$allocator@D@2@@2@XZ 1000d630 f i c_menu.obj
 0001:0000c630       ?_Unchecked_end@?$vector@V?$function@$$A6AXI@Z@std@@V?$allocator@V?$function@$$A6AXI@Z@std@@@2@@std@@QAEPAV?$function@$$A6AXI@Z@2@XZ 1000d630 f i c_hotkeys.obj
 0001:0000c630       ?get@?$unique_ptr@V?$vector@V?$basic_json@Vmap@std@@Vvector@2@V?$basic_string@DU?$char_traits@D@std@@V?$allocator@D@2@@2@_N_J_KNVallocator@2@Uadl_serializer@nlohmann@@@nlohmann@@V?$allocator@V?$basic_json@Vmap@std@@Vvector@2@V?$basic_string@DU?$char_traits@D@std@@V?$allocator@D@2@@2@_N_J_KNVallocator@2@Uadl_serializer@nlohmann@@@nlohmann@@@std@@@std@@V<lambda_1>@?1???$create@V?$vector@V?$basic_json@Vmap@std@@Vvector@2@V?$basic_string@DU?$char_traits@D@std@@V?$allocator@D@2@@2@_N_J_KNVallocator@2@Uadl_serializer@nlohmann@@@nlohmann@@V?$allocator@V?$basic_json@Vmap@std@@Vvector@2@V?$basic_string@DU?$char_traits@D@std@@V?$allocator@D@2@@2@_N_J_KNVallocator@2@Uadl_serializer@nlohmann@@@nlohmann@@@std@@@std@@ABV12@@?$basic_json@Vmap@std@@Vvector@2@V?$basic_string@DU?$char_traits@D@std@@V?$allocator@D@2@@2@_N_J_KNVallocator@2@Uadl_serializer@nlohmann@@@nlohmann@@CAPAV12@ABV12@@Z@@std@@QBEPAV?$vector@V?$basic_json@Vmap@std@@Vvector@2@V?$basic_string@DU?$char_traits@D@std@@V?$allocator@D@2@@2@_N_J_KNVallocator@2@Uadl_serializer@nlohmann@@@nlohmann@@V?$allocator@V?$basic_json@Vmap@std@@Vvector@2@V?$basic_string@DU?$char_traits@D@std@@V?$allocator@D@2@@2@_N_J_KNVallocator@2@Uadl_serializer@nlohmann@@@nlohmann@@@std@@@2@XZ 1000d630 f i c_menu.obj
 0001:0000c630       ?get@?$unique_ptr@V?$vector@V?$basic_json@Vmap@std@@Vvector@2@V?$basic_string@DU?$char_traits@D@std@@V?$allocator@D@2@@2@_N_J_KNVallocator@2@Uadl_serializer@nlohmann@@@nlohmann@@V?$allocator@V?$basic_json@Vmap@std@@Vvector@2@V?$basic_string@DU?$char_traits@D@std@@V?$allocator@D@2@@2@_N_J_KNVallocator@2@Uadl_serializer@nlohmann@@@nlohmann@@@std@@@std@@V<lambda_1>@?1???$create@V?$vector@V?$basic_json@Vmap@std@@Vvector@2@V?$basic_string@DU?$char_traits@D@std@@V?$allocator@D@2@@2@_N_J_KNVallocator@2@Uadl_serializer@nlohmann@@@nlohmann@@V?$allocator@V?$basic_json@Vmap@std@@Vvector@2@V?$basic_string@DU?$char_traits@D@std@@V?$allocator@D@2@@2@_N_J_KNVallocator@2@Uadl_serializer@nlohmann@@@nlohmann@@@std@@@std@@PBV?$json_ref@V?$basic_json@Vmap@std@@Vvector@2@V?$basic_string@DU?$char_traits@D@std@@V?$allocator@D@2@@2@_N_J_KNVallocator@2@Uadl_serializer@nlohmann@@@nlohmann@@@detail@nlohmann@@PBV345@@?$basic_json@Vmap@std@@Vvector@2@V?$basic_string@DU?$char_traits@D@std@@V?$allocator@D@2@@2@_N_J_KNVallocator@2@Uadl_serializer@nlohmann@@@nlohmann@@CAPAV12@$$QAPBV?$json_ref@V?$basic_json@Vmap@std@@Vvector@2@V?$basic_string@DU?$char_traits@D@std@@V?$allocator@D@2@@2@_N_J_KNVallocator@2@Uadl_serializer@nlohmann@@@nlohmann@@@detail@5@0@Z@@std@@QBEPAV?$vector@V?$basic_json@Vmap@std@@Vvector@2@V?$basic_string@DU?$char_traits@D@std@@V?$allocator@D@2@@2@_N_J_KNVallocator@2@Uadl_serializer@nlohmann@@@nlohmann@@V?$allocator@V?$basic_json@Vmap@std@@Vvector@2@V?$basic_string@DU?$char_traits@D@std@@V?$allocator@D@2@@2@_N_J_KNVallocator@2@Uadl_serializer@nlohmann@@@nlohmann@@@std@@@2@XZ 1000d630 f i c_menu.obj
 0001:0000c630       ?_Unchecked_end@?$vector@Udamage_infos@@V?$allocator@Udamage_infos@@@std@@@std@@QAEPAUdamage_infos@@XZ 1000d630 f i c_esp.obj
 0001:0000c630       ?_Unchecked_end@?$vector@W4hitbox@c_cs_player@@V?$allocator@W4hitbox@c_cs_player@@@std@@@std@@QAEPAW4hitbox@c_cs_player@@XZ 1000d630 f i aimbot_recode.obj
 0001:0000c630       ?_Unchecked_end@?$vector@V?$function@$$A6AXXZ@std@@V?$allocator@V?$function@$$A6AXXZ@std@@@2@@std@@QAEPAV?$function@$$A6AXXZ@2@XZ 1000d630 f i c_renderer.obj
 0001:0000c630       ?get@?$unique_ptr@V?$basic_string@DU?$char_traits@D@std@@V?$allocator@D@2@@std@@V<lambda_1>@?1???$create@V?$basic_string@DU?$char_traits@D@std@@V?$allocator@D@2@@std@@ABV12@@?$basic_json@Vmap@std@@Vvector@2@V?$basic_string@DU?$char_traits@D@std@@V?$allocator@D@2@@2@_N_J_KNVallocator@2@Uadl_serializer@nlohmann@@@nlohmann@@CAPAV12@ABV12@@Z@@std@@QBEPAV?$basic_string@DU?$char_traits@D@std@@V?$allocator@D@2@@2@XZ 1000d630 f i c_menu.obj
 0001:0000c630       ?_Unchecked_end@?$vector@Uaim_info@c_aimhelper@@V?$allocator@Uaim_info@c_aimhelper@@@std@@@std@@QAEPAUaim_info@c_aimhelper@@XZ 1000d630 f i c_ragebot.obj
 0001:0000c630       ?_Unchecked_end@?$vector@Unade_info@c_esp@@V?$allocator@Unade_info@c_esp@@@std@@@std@@QAEPAUnade_info@c_esp@@XZ 1000d630 f i c_esp.obj
 0001:0000c630       ?end@?$initializer_list@H@std@@QBEPBHXZ 1000d630 f i grenade_prediction.obj
 0001:0000c630       ?end@?$initializer_list@U?$pair@$$CBHH@std@@@std@@QBEPBU?$pair@$$CBHH@2@XZ 1000d630 f i c_prediction_.obj
 0001:0000c630       ?end@?$initializer_list@V?$json_ref@V?$basic_json@Vmap@std@@Vvector@2@V?$basic_string@DU?$char_traits@D@std@@V?$allocator@D@2@@2@_N_J_KNVallocator@2@Uadl_serializer@nlohmann@@@nlohmann@@@detail@nlohmann@@@std@@QBEPBV?$json_ref@V?$basic_json@Vmap@std@@Vvector@2@V?$basic_string@DU?$char_traits@D@std@@V?$allocator@D@2@@2@_N_J_KNVallocator@2@Uadl_serializer@nlohmann@@@nlohmann@@@detail@nlohmann@@XZ 1000d630 f i c_menu.obj
 0001:0000c630       ?_Unchecked_end@?$vector@V?$basic_string@DU?$char_traits@D@std@@V?$allocator@D@2@@std@@V?$allocator@V?$basic_string@DU?$char_traits@D@std@@V?$allocator@D@2@@std@@@2@@std@@QAEPAV?$basic_string@DU?$char_traits@D@std@@V?$allocator@D@2@@2@XZ 1000d630 f i loki_menu.obj
 0001:0000c630       ?_Unchecked_end@?$vector@U?$pair@V?$shared_ptr@Vc_drawable@@@std@@U?$pair@Vc_vector2d@@V1@@2@@std@@V?$allocator@U?$pair@V?$shared_ptr@Vc_drawable@@@std@@U?$pair@Vc_vector2d@@V1@@2@@std@@@2@@std@@QAEPAU?$pair@V?$shared_ptr@Vc_drawable@@@std@@U?$pair@Vc_vector2d@@V1@@2@@2@XZ 1000d630 f i c_menu.obj
 0001:0000c630       ?_Unchecked_end@?$vector@PAUanimation@c_animation_system@@V?$allocator@PAUanimation@c_animation_system@@@std@@@std@@QBEPBQAUanimation@c_animation_system@@XZ 1000d630 f i c_aimhelper.obj
 0001:0000c630       ?_Unchecked_end@?$vector@PAVLua_Hook@@V?$allocator@PAVLua_Hook@@@std@@@std@@QAEPAPAVLua_Hook@@XZ 1000d630 f i LuaAPI.obj
 0001:0000c630       ?_Unchecked_end@?$vector@DV?$allocator@D@std@@@std@@QBEPBDXZ 1000d630 f i c_menu.obj
 0001:0000c630       ?get@?$unique_ptr@V?$map@V?$basic_string@DU?$char_traits@D@std@@V?$allocator@D@2@@std@@V?$basic_json@Vmap@std@@Vvector@2@V?$basic_string@DU?$char_traits@D@std@@V?$allocator@D@2@@2@_N_J_KNVallocator@2@Uadl_serializer@nlohmann@@@nlohmann@@U?$less@X@2@V?$allocator@U?$pair@$$CBV?$basic_string@DU?$char_traits@D@std@@V?$allocator@D@2@@std@@V?$basic_json@Vmap@std@@Vvector@2@V?$basic_string@DU?$char_traits@D@std@@V?$allocator@D@2@@2@_N_J_KNVallocator@2@Uadl_serializer@nlohmann@@@nlohmann@@@std@@@2@@std@@V<lambda_1>@?1???$create@V?$map@V?$basic_string@DU?$char_traits@D@std@@V?$allocator@D@2@@std@@V?$basic_json@Vmap@std@@Vvector@2@V?$basic_string@DU?$char_traits@D@std@@V?$allocator@D@2@@2@_N_J_KNVallocator@2@Uadl_serializer@nlohmann@@@nlohmann@@U?$less@X@2@V?$allocator@U?$pair@$$CBV?$basic_string@DU?$char_traits@D@std@@V?$allocator@D@2@@std@@V?$basic_json@Vmap@std@@Vvector@2@V?$basic_string@DU?$char_traits@D@std@@V?$allocator@D@2@@2@_N_J_KNVallocator@2@Uadl_serializer@nlohmann@@@nlohmann@@@std@@@2@@std@@$$V@?$basic_json@Vmap@std@@Vvector@2@V?$basic_string@DU?$char_traits@D@std@@V?$allocator@D@2@@2@_N_J_KNVallocator@2@Uadl_serializer@nlohmann@@@nlohmann@@CAPAV12@XZ@@std@@QBEPAV?$map@V?$basic_string@DU?$char_traits@D@std@@V?$allocator@D@2@@std@@V?$basic_json@Vmap@std@@Vvector@2@V?$basic_string@DU?$char_traits@D@std@@V?$allocator@D@2@@2@_N_J_KNVallocator@2@Uadl_serializer@nlohmann@@@nlohmann@@U?$less@X@2@V?$allocator@U?$pair@$$CBV?$basic_string@DU?$char_traits@D@std@@V?$allocator@D@2@@std@@V?$basic_json@Vmap@std@@Vvector@2@V?$basic_string@DU?$char_traits@D@std@@V?$allocator@D@2@@2@_N_J_KNVallocator@2@Uadl_serializer@nlohmann@@@nlohmann@@@std@@@2@@2@XZ 1000d630 f i c_menu.obj
 0001:0000c630       ?_Unchecked_end@?$vector@V?$vector@MV?$allocator@M@std@@@std@@V?$allocator@V?$vector@MV?$allocator@M@std@@@std@@@2@@std@@QAEPAV?$vector@MV?$allocator@M@std@@@2@XZ 1000d630 f i c_font.obj
 0001:0000c630       ?get@?$unique_ptr@V?$vector@V?$basic_json@Vmap@std@@Vvector@2@V?$basic_string@DU?$char_traits@D@std@@V?$allocator@D@2@@2@_N_J_KNVallocator@2@Uadl_serializer@nlohmann@@@nlohmann@@V?$allocator@V?$basic_json@Vmap@std@@Vvector@2@V?$basic_string@DU?$char_traits@D@std@@V?$allocator@D@2@@2@_N_J_KNVallocator@2@Uadl_serializer@nlohmann@@@nlohmann@@@std@@@std@@V<lambda_1>@?1???$create@V?$vector@V?$basic_json@Vmap@std@@Vvector@2@V?$basic_string@DU?$char_traits@D@std@@V?$allocator@D@2@@2@_N_J_KNVallocator@2@Uadl_serializer@nlohmann@@@nlohmann@@V?$allocator@V?$basic_json@Vmap@std@@Vvector@2@V?$basic_string@DU?$char_traits@D@std@@V?$allocator@D@2@@2@_N_J_KNVallocator@2@Uadl_serializer@nlohmann@@@nlohmann@@@std@@@std@@$$V@?$basic_json@Vmap@std@@Vvector@2@V?$basic_string@DU?$char_traits@D@std@@V?$allocator@D@2@@2@_N_J_KNVallocator@2@Uadl_serializer@nlohmann@@@nlohmann@@CAPAV12@XZ@@std@@QBEPAV?$vector@V?$basic_json@Vmap@std@@Vvector@2@V?$basic_string@DU?$char_traits@D@std@@V?$allocator@D@2@@2@_N_J_KNVallocator@2@Uadl_serializer@nlohmann@@@nlohmann@@V?$allocator@V?$basic_json@Vmap@std@@Vvector@2@V?$basic_string@DU?$char_traits@D@std@@V?$allocator@D@2@@2@_N_J_KNVallocator@2@Uadl_serializer@nlohmann@@@nlohmann@@@std@@@2@XZ 1000d630 f i c_menu.obj
 0001:0000c630       ?end@?$initializer_list@V?$basic_string@DU?$char_traits@D@std@@V?$allocator@D@2@@std@@@std@@QBEPBV?$basic_string@DU?$char_traits@D@std@@V?$allocator@D@2@@2@XZ 1000d630 f i c_miscellaneous.obj
 0001:0000c630       ?_Unchecked_end@?$vector@Uplayer_info@c_esp@@V?$allocator@Uplayer_info@c_esp@@@std@@@std@@QAEPAUplayer_info@c_esp@@XZ 1000d630 f i c_esp.obj
 0001:0000c630       ?get@?$unique_ptr@V?$basic_string@DU?$char_traits@D@std@@V?$allocator@D@2@@std@@V<lambda_1>@?1???$create@V?$basic_string@DU?$char_traits@D@std@@V?$allocator@D@2@@std@@V12@@?$basic_json@Vmap@std@@Vvector@2@V?$basic_string@DU?$char_traits@D@std@@V?$allocator@D@2@@2@_N_J_KNVallocator@2@Uadl_serializer@nlohmann@@@nlohmann@@CAPAV12@$$QAV12@@Z@@std@@QBEPAV?$basic_string@DU?$char_traits@D@std@@V?$allocator@D@2@@2@XZ 1000d630 f i c_menu.obj
 0001:0000c650       ?_Unchecked_erase@?$_Hash@V?$_Umap_traits@IUnetvar@c_netvar@@V?$_Uhash_compare@IU?$hash@I@std@@U?$equal_to@I@2@@std@@V?$allocator@U?$pair@$$CBIUnetvar@c_netvar@@@std@@@4@$0A@@std@@@std@@AAEPAU?$_List_node@U?$pair@$$CBIUnetvar@c_netvar@@@std@@PAX@2@PAU32@QAU32@@Z 1000d650 f i aimbot_recode.obj
 0001:0000c840       ?_Unchecked_erase@?$_Hash@V?$_Umap_traits@IV?$unordered_map@IUnetvar@c_netvar@@U?$hash@I@std@@U?$equal_to@I@4@V?$allocator@U?$pair@$$CBIUnetvar@c_netvar@@@std@@@4@@std@@V?$_Uhash_compare@IU?$hash@I@std@@U?$equal_to@I@2@@2@V?$allocator@U?$pair@$$CBIV?$unordered_map@IUnetvar@c_netvar@@U?$hash@I@std@@U?$equal_to@I@4@V?$allocator@U?$pair@$$CBIUnetvar@c_netvar@@@std@@@4@@std@@@std@@@2@$0A@@std@@@std@@AAEPAU?$_List_node@U?$pair@$$CBIV?$unordered_map@IUnetvar@c_netvar@@U?$hash@I@std@@U?$equal_to@I@4@V?$allocator@U?$pair@$$CBIUnetvar@c_netvar@@@std@@@4@@std@@@std@@PAX@2@PAU32@QAU32@@Z 1000d840 f i aimbot_recode.obj
 0001:0000ca30       ?_Unchecked_splice@?$_List_val@U?$_List_simple_types@U?$pair@$$CBIV?$unordered_map@IUnetvar@c_netvar@@U?$hash@I@std@@U?$equal_to@I@4@V?$allocator@U?$pair@$$CBIUnetvar@c_netvar@@@std@@@4@@std@@@std@@@std@@@std@@SAPAU?$_List_node@U?$pair@$$CBIV?$unordered_map@IUnetvar@c_netvar@@U?$hash@I@std@@U?$equal_to@I@4@V?$allocator@U?$pair@$$CBIUnetvar@c_netvar@@@std@@@4@@std@@@std@@PAX@2@QAU32@00@Z 1000da30 f i aimbot_recode.obj
 0001:0000ca30       ?_Unchecked_splice@?$_List_val@U?$_List_simple_types@U?$pair@$$CBIVc_font@@@std@@@std@@@std@@SAPAU?$_List_node@U?$pair@$$CBIVc_font@@@std@@PAX@2@QAU32@00@Z 1000da30 f i c_renderer.obj
 0001:0000ca30       ?_Unchecked_splice@?$_List_val@U?$_List_simple_types@U?$pair@$$CBIUnetvar@c_netvar@@@std@@@std@@@std@@SAPAU?$_List_node@U?$pair@$$CBIUnetvar@c_netvar@@@std@@PAX@2@QAU32@00@Z 1000da30 f i aimbot_recode.obj
 0001:0000ca30       ?_Unchecked_splice@?$_List_val@U?$_List_simple_types@U?$pair@$$CBIUanimation_info@c_animation_system@@@std@@@std@@@std@@SAPAU?$_List_node@U?$pair@$$CBIUanimation_info@c_animation_system@@@std@@PAX@2@QAU32@00@Z 1000da30 f i c_animation_system.obj
 0001:0000ca90       ?_Unwrapped@?$_Vector_const_iterator@V?$_Vector_val@U?$_Simple_types@H@std@@@std@@@std@@QBEPBHXZ 1000da90 f i grenade_prediction.obj
 0001:0000ca90       ?_Unwrapped@?$_Vector_iterator@V?$_Vector_val@U?$_Simple_types@U?$pair@PAVc_cs_player@@M@std@@@std@@@std@@@std@@QBEPAU?$pair@PAVc_cs_player@@M@2@XZ 1000da90 f i c_chams.obj
 0001:0000ca90       ?_Unwrapped@?$_Vector_iterator@V?$_Vector_val@U?$_Simple_types@PAVLua_Hook@@@std@@@std@@@std@@QBEPAPAVLua_Hook@@XZ 1000da90 f i LuaAPI.obj
 0001:0000ca90       ?_Unwrapped@?$_String_iterator@V?$_String_val@U?$_Simple_types@D@std@@@std@@@std@@QBEPADXZ 1000da90 f i aimbot_recode.obj
 0001:0000cab0       ?_Xlength@?$vector@U?$pair@PAVc_cs_player@@M@std@@V?$allocator@U?$pair@PAVc_cs_player@@M@std@@@2@@std@@CAXXZ 1000dab0 f i c_chams.obj
 0001:0000cab0       ?_Xlength@?$vector@PAVLua_Hook@@V?$allocator@PAVLua_Hook@@@std@@@std@@CAXXZ 1000dab0 f i LuaAPI.obj
 0001:0000cab0       ?_Xlength@?$vector@Uimpact_info@@V?$allocator@Uimpact_info@@@std@@@std@@CAXXZ 1000dab0 f i c_hitmarker.obj
 0001:0000cab0       ?_Xlength@?$vector@Vc_vector2d@@V?$allocator@Vc_vector2d@@@std@@@std@@CAXXZ 1000dab0 f i c_renderer.obj
 0001:0000cab0       ?_Xlength@?$vector@U?$pair@V?$shared_ptr@Vc_drawable@@@std@@U?$pair@Vc_vector2d@@V1@@2@@std@@V?$allocator@U?$pair@V?$shared_ptr@Vc_drawable@@@std@@U?$pair@Vc_vector2d@@V1@@2@@std@@@2@@std@@CAXXZ 1000dab0 f i c_checkbox.obj
 0001:0000cab0       ?_Xlength@?$vector@W4hitbox@c_cs_player@@V?$allocator@W4hitbox@c_cs_player@@@std@@@std@@CAXXZ 1000dab0 f i aimbot_recode.obj
 0001:0000cab0       ?_Xlength@?$vector@Udamage_infos@@V?$allocator@Udamage_infos@@@std@@@std@@CAXXZ 1000dab0 f i c_esp.obj
 0001:0000cab0       ?_Xlength@?$vector@V?$function@$$A6AXI@Z@std@@V?$allocator@V?$function@$$A6AXI@Z@std@@@2@@std@@CAXXZ 1000dab0 f i c_hotkeys.obj
 0001:0000cab0       ?_Xlength@?$vector@PAUanimation@c_animation_system@@V?$allocator@PAUanimation@c_animation_system@@@std@@@std@@CAXXZ 1000dab0 f i c_aimhelper.obj
 0001:0000cab0       ?_Xlength@?$vector@Vc_vector3d@@V?$allocator@Vc_vector3d@@@std@@@std@@CAXXZ 1000dab0 f i aimbot_recode.obj
 0001:0000cab0       ?_Xlength@?$vector@V?$vector@MV?$allocator@M@std@@@std@@V?$allocator@V?$vector@MV?$allocator@M@std@@@std@@@2@@std@@CAXXZ 1000dab0 f i c_font.obj
 0001:0000cab0       ?_Xlength@?$vector@HV?$allocator@H@std@@@std@@CAXXZ 1000dab0 f i aimbot_recode.obj
 0001:0000cab0       ?_Xlength@?$vector@Uhitmarker_info@@V?$allocator@Uhitmarker_info@@@std@@@std@@CAXXZ 1000dab0 f i c_hitmarker.obj
 0001:0000cab0       ?_Xlength@?$vector@VImConsoleTextItem@@V?$allocator@VImConsoleTextItem@@@std@@@std@@CAXXZ 1000dab0 f i ImConsole.obj
 0001:0000cab0       ?_Xlength@?$vector@Uaim_info@c_aimhelper@@V?$allocator@Uaim_info@c_aimhelper@@@std@@@std@@CAXXZ 1000dab0 f i c_aimhelper.obj
 0001:0000cab0       ?_Xlength@?$vector@V?$basic_string@DU?$char_traits@D@std@@V?$allocator@D@2@@std@@V?$allocator@V?$basic_string@DU?$char_traits@D@std@@V?$allocator@D@2@@std@@@2@@std@@CAXXZ 1000dab0 f i c_miscellaneous.obj
 0001:0000cab0       ?_Xlength@?$vector@Unade_info@c_esp@@V?$allocator@Unade_info@c_esp@@@std@@@std@@CAXXZ 1000dab0 f i c_esp.obj
 0001:0000cab0       ?_Xlength@?$vector@MV?$allocator@M@std@@@std@@CAXXZ 1000dab0 f i c_font.obj
 0001:0000cab0       ?_Xlength@?$vector@V?$basic_json@Vmap@std@@Vvector@2@V?$basic_string@DU?$char_traits@D@std@@V?$allocator@D@2@@2@_N_J_KNVallocator@2@Uadl_serializer@nlohmann@@@nlohmann@@V?$allocator@V?$basic_json@Vmap@std@@Vvector@2@V?$basic_string@DU?$char_traits@D@std@@V?$allocator@D@2@@2@_N_J_KNVallocator@2@Uadl_serializer@nlohmann@@@nlohmann@@@std@@@std@@CAXXZ 1000dab0 f i c_menu.obj
 0001:0000cab0       ?_Xlength@?$vector@Uplayer_info@c_esp@@V?$allocator@Uplayer_info@c_esp@@@std@@@std@@CAXXZ 1000dab0 f i c_esp.obj
 0001:0000cab0       ?_Xlength@?$vector@V?$tuple@MMM@std@@V?$allocator@V?$tuple@MMM@std@@@2@@std@@CAXXZ 1000dab0 f i c_aimhelper.obj
 0001:0000cab0       ?_Xlength@?$vector@DV?$allocator@D@std@@@std@@CAXXZ 1000dab0 f i c_menu.obj
 0001:0000cac0       ?allocate@?$allocator@V?$_List_unchecked_iterator@V?$_List_val@U?$_List_simple_types@U?$pair@$$CBIUnetvar@c_netvar@@@std@@@std@@@std@@@std@@@std@@QAEPAV?$_List_unchecked_iterator@V?$_List_val@U?$_List_simple_types@U?$pair@$$CBIUnetvar@c_netvar@@@std@@@std@@@std@@@2@I@Z 1000dac0 f i aimbot_recode.obj
 0001:0000cac0       ?allocate@?$allocator@V?$_List_unchecked_iterator@V?$_List_val@U?$_List_simple_types@U?$pair@$$CBIPAVCD3DFont@@@std@@@std@@@std@@@std@@@std@@QAEPAV?$_List_unchecked_iterator@V?$_List_val@U?$_List_simple_types@U?$pair@$$CBIPAVCD3DFont@@@std@@@std@@@std@@@2@I@Z 1000dac0 f i c_renderer.obj
 0001:0000cac0       ?allocate@?$allocator@PAUanimation@c_animation_system@@@std@@QAEPAPAUanimation@c_animation_system@@I@Z 1000dac0 f i c_aimhelper.obj
 0001:0000cac0       ?allocate@?$allocator@V?$_List_unchecked_iterator@V?$_List_val@U?$_List_simple_types@U?$pair@$$CBIUanimation_info@c_animation_system@@@std@@@std@@@std@@@std@@@std@@QAEPAV?$_List_unchecked_iterator@V?$_List_val@U?$_List_simple_types@U?$pair@$$CBIUanimation_info@c_animation_system@@@std@@@std@@@std@@@2@I@Z 1000dac0 f i aimbot_recode.obj
 0001:0000cac0       ?allocate@?$allocator@V?$_List_unchecked_iterator@V?$_List_val@U?$_List_simple_types@U?$pair@$$CBIVc_font@@@std@@@std@@@std@@@std@@@std@@QAEPAV?$_List_unchecked_iterator@V?$_List_val@U?$_List_simple_types@U?$pair@$$CBIVc_font@@@std@@@std@@@std@@@2@I@Z 1000dac0 f i c_renderer.obj
 0001:0000cac0       ?allocate@?$allocator@PAVLua_Hook@@@std@@QAEPAPAVLua_Hook@@I@Z 1000dac0 f i LuaAPI.obj
 0001:0000cac0       ?allocate@?$allocator@W4hitbox@c_cs_player@@@std@@QAEPAW4hitbox@c_cs_player@@I@Z 1000dac0 f i aimbot_recode.obj
 0001:0000cac0       ?allocate@?$allocator@H@std@@QAEPAHI@Z 1000dac0 f i aimbot_recode.obj
 0001:0000cac0       ?allocate@?$allocator@PAUCIncomingSequence@@@std@@QAEPAPAUCIncomingSequence@@I@Z 1000dac0 f i c_net_channel_.obj
 0001:0000cac0       ?allocate@?$allocator@V?$_List_unchecked_iterator@V?$_List_val@U?$_List_simple_types@U?$pair@$$CBIV?$unordered_map@IUnetvar@c_netvar@@U?$hash@I@std@@U?$equal_to@I@4@V?$allocator@U?$pair@$$CBIUnetvar@c_netvar@@@std@@@4@@std@@@std@@@std@@@std@@@std@@@std@@QAEPAV?$_List_unchecked_iterator@V?$_List_val@U?$_List_simple_types@U?$pair@$$CBIV?$unordered_map@IUnetvar@c_netvar@@U?$hash@I@std@@U?$equal_to@I@4@V?$allocator@U?$pair@$$CBIUnetvar@c_netvar@@@std@@@4@@std@@@std@@@std@@@std@@@2@I@Z 1000dac0 f i aimbot_recode.obj
 0001:0000cac0       ?allocate@?$allocator@V?$_List_unchecked_iterator@V?$_List_val@U?$_List_simple_types@U?$pair@QAVc_hotkey_select@@V?$function@$$A6AXI@Z@std@@@std@@@std@@@std@@@std@@@std@@QAEPAV?$_List_unchecked_iterator@V?$_List_val@U?$_List_simple_types@U?$pair@QAVc_hotkey_select@@V?$function@$$A6AXI@Z@std@@@std@@@std@@@std@@@2@I@Z 1000dac0 f i c_hotkeys.obj
 0001:0000cac0       ?allocate@?$allocator@M@std@@QAEPAMI@Z 1000dac0 f i c_font.obj
 0001:0000cac0       ?allocate@?$allocator@PAUshot@resolver@@@std@@QAEPAPAUshot@resolver@@I@Z 1000dac0 f i c_resolver.obj
 0001:0000caf0       ?allocate@?$allocator@U?$_List_node@U?$pair@$$CBIUanimation_info@c_animation_system@@@std@@PAX@std@@@std@@QAEPAU?$_List_node@U?$pair@$$CBIUanimation_info@c_animation_system@@@std@@PAX@2@I@Z 1000daf0 f i aimbot_recode.obj
 0001:0000cb20       ?allocate@?$allocator@U?$_List_node@U?$pair@$$CBIUnetvar@c_netvar@@@std@@PAX@std@@@std@@QAEPAU?$_List_node@U?$pair@$$CBIUnetvar@c_netvar@@@std@@PAX@2@I@Z 1000db20 f i aimbot_recode.obj
 0001:0000cb20       ?allocate@?$allocator@UCIncomingSequence@@@std@@QAEPAUCIncomingSequence@@I@Z 1000db20 f i c_net_channel_.obj
 0001:0000cb20       ?allocate@?$allocator@Uhitmarker_info@@@std@@QAEPAUhitmarker_info@@I@Z 1000db20 f i c_hitmarker.obj
 0001:0000cb50       ?allocate@?$allocator@U?$_List_node@U?$pair@$$CBIV?$unordered_map@IUnetvar@c_netvar@@U?$hash@I@std@@U?$equal_to@I@4@V?$allocator@U?$pair@$$CBIUnetvar@c_netvar@@@std@@@4@@std@@@std@@PAX@std@@@std@@QAEPAU?$_List_node@U?$pair@$$CBIV?$unordered_map@IUnetvar@c_netvar@@U?$hash@I@std@@U?$equal_to@I@4@V?$allocator@U?$pair@$$CBIUnetvar@c_netvar@@@std@@@4@@std@@@std@@PAX@2@I@Z 1000db50 f i aimbot_recode.obj
 0001:0000cb80       ?allocate@?$allocator@U?$pair@PAVc_cs_player@@M@std@@@std@@QAEPAU?$pair@PAVc_cs_player@@M@2@I@Z 1000db80 f i c_chams.obj
 0001:0000cb80       ?allocate@?$allocator@Vc_vector2d@@@std@@QAEPAVc_vector2d@@I@Z 1000db80 f i c_renderer.obj
 0001:0000cb80       ?allocate@?$allocator@U_Container_proxy@std@@@std@@QAEPAU_Container_proxy@2@I@Z 1000db80 f i aimbot_recode.obj
 0001:0000cbb0       ?allocate@?$allocator@V?$tuple@MMM@std@@@std@@QAEPAV?$tuple@MMM@2@I@Z 1000dbb0 f i c_aimhelper.obj
 0001:0000cbb0       ?allocate@?$allocator@Vc_vector3d@@@std@@QAEPAVc_vector3d@@I@Z 1000dbb0 f i aimbot_recode.obj
 0001:0000cbb0       ?allocate@?$allocator@V?$vector@MV?$allocator@M@std@@@std@@@std@@QAEPAV?$vector@MV?$allocator@M@std@@@2@I@Z 1000dbb0 f i c_font.obj
 0001:0000cbe0       ?angle_vectors@math@@SAXABVc_vector3d@@AAV2@@Z 1000dbe0 f i aimbot_recode.obj
 0001:0000ccb0       ?append@?$basic_string@DU?$char_traits@D@std@@V?$allocator@D@2@@std@@QAEAAV12@ID@Z 1000dcb0 f i aimbot_recode.obj
 0001:0000cd40       ?assign@?$_Narrow_char_traits@DH@std@@SAPADQADID@Z 1000dd40 f i aimbot_recode.obj
 0001:0000cd60       ?assign@?$basic_string@DU?$char_traits@D@std@@V?$allocator@D@2@@std@@QAEAAV12@ABV12@II@Z 1000dd60 f i aimbot_recode.obj
 0001:0000cdc0       ?assign@?$basic_string@DU?$char_traits@D@std@@V?$allocator@D@2@@std@@QAEAAV12@QBD@Z 1000ddc0 f i aimbot_recode.obj
 0001:0000cdf0       ?assign@?$basic_string@DU?$char_traits@D@std@@V?$allocator@D@2@@std@@QAEAAV12@QBDI@Z 1000ddf0 f i aimbot_recode.obj
 0001:0000ce70       ?begin@?$basic_string@DU?$char_traits@D@std@@V?$allocator@D@2@@std@@QAE?AV?$_String_iterator@V?$_String_val@U?$_Simple_types@D@std@@@std@@@2@XZ 1000de70 f i aimbot_recode.obj
 0001:0000cee0       ?bucket@?$_Hash@V?$_Umap_traits@IVc_font@@V?$_Uhash_compare@IU?$hash@I@std@@U?$equal_to@I@2@@std@@V?$allocator@U?$pair@$$CBIVc_font@@@std@@@3@$0A@@std@@@std@@QBEIABI@Z 1000dee0 f i c_renderer.obj
 0001:0000cee0       ?bucket@?$_Hash@V?$_Umap_traits@IV?$unordered_map@IUnetvar@c_netvar@@U?$hash@I@std@@U?$equal_to@I@4@V?$allocator@U?$pair@$$CBIUnetvar@c_netvar@@@std@@@4@@std@@V?$_Uhash_compare@IU?$hash@I@std@@U?$equal_to@I@2@@2@V?$allocator@U?$pair@$$CBIV?$unordered_map@IUnetvar@c_netvar@@U?$hash@I@std@@U?$equal_to@I@4@V?$allocator@U?$pair@$$CBIUnetvar@c_netvar@@@std@@@4@@std@@@std@@@2@$0A@@std@@@std@@QBEIABI@Z 1000dee0 f i aimbot_recode.obj
 0001:0000cee0       ?bucket@?$_Hash@V?$_Umap_traits@PAVc_hotkey_select@@V?$function@$$A6AXI@Z@std@@V?$_Uhash_compare@PAVc_hotkey_select@@U?$hash@PAVc_hotkey_select@@@std@@U?$equal_to@PAVc_hotkey_select@@@3@@3@V?$allocator@U?$pair@QAVc_hotkey_select@@V?$function@$$A6AXI@Z@std@@@std@@@3@$0A@@std@@@std@@QBEIABQAVc_hotkey_select@@@Z 1000dee0 f i c_hotkeys.obj
 0001:0000cee0       ?bucket@?$_Hash@V?$_Umap_traits@IUanimation_info@c_animation_system@@V?$_Uhash_compare@IU?$hash@I@std@@U?$equal_to@I@2@@std@@V?$allocator@U?$pair@$$CBIUanimation_info@c_animation_system@@@std@@@4@$0A@@std@@@std@@QBEIABI@Z 1000dee0 f i c_animation_system.obj
 0001:0000cee0       ?bucket@?$_Hash@V?$_Umap_traits@IUnetvar@c_netvar@@V?$_Uhash_compare@IU?$hash@I@std@@U?$equal_to@I@2@@std@@V?$allocator@U?$pair@$$CBIUnetvar@c_netvar@@@std@@@4@$0A@@std@@@std@@QBEIABI@Z 1000dee0 f i aimbot_recode.obj
 0001:0000cf10       ?bucket_count@?$_Hash@V?$_Umap_traits@IVc_font@@V?$_Uhash_compare@IU?$hash@I@std@@U?$equal_to@I@2@@std@@V?$allocator@U?$pair@$$CBIVc_font@@@std@@@3@$0A@@std@@@std@@QBEIXZ 1000df10 f i c_renderer.obj
 0001:0000cf10       ?bucket_count@?$_Hash@V?$_Umap_traits@IUanimation_info@c_animation_system@@V?$_Uhash_compare@IU?$hash@I@std@@U?$equal_to@I@2@@std@@V?$allocator@U?$pair@$$CBIUanimation_info@c_animation_system@@@std@@@4@$0A@@std@@@std@@QBEIXZ 1000df10 f i c_animation_system.obj
 0001:0000cf10       ?bucket_count@?$_Hash@V?$_Umap_traits@IV?$unordered_map@IUnetvar@c_netvar@@U?$hash@I@std@@U?$equal_to@I@4@V?$allocator@U?$pair@$$CBIUnetvar@c_netvar@@@std@@@4@@std@@V?$_Uhash_compare@IU?$hash@I@std@@U?$equal_to@I@2@@2@V?$allocator@U?$pair@$$CBIV?$unordered_map@IUnetvar@c_netvar@@U?$hash@I@std@@U?$equal_to@I@4@V?$allocator@U?$pair@$$CBIUnetvar@c_netvar@@@std@@@4@@std@@@std@@@2@$0A@@std@@@std@@QBEIXZ 1000df10 f i aimbot_recode.obj
 0001:0000cf10       ?bucket_count@?$_Hash@V?$_Umap_traits@PAVc_hotkey_select@@V?$function@$$A6AXI@Z@std@@V?$_Uhash_compare@PAVc_hotkey_select@@U?$hash@PAVc_hotkey_select@@@std@@U?$equal_to@PAVc_hotkey_select@@@3@@3@V?$allocator@U?$pair@QAVc_hotkey_select@@V?$function@$$A6AXI@Z@std@@@std@@@3@$0A@@std@@@std@@QBEIXZ 1000df10 f i c_hotkeys.obj
 0001:0000cf10       ?bucket_count@?$_Hash@V?$_Umap_traits@IUnetvar@c_netvar@@V?$_Uhash_compare@IU?$hash@I@std@@U?$equal_to@I@2@@std@@V?$allocator@U?$pair@$$CBIUnetvar@c_netvar@@@std@@@4@$0A@@std@@@std@@QBEIXZ 1000df10 f i aimbot_recode.obj
 0001:0000cf30       ?calc_angle@math@@SA?AVc_vector3d@@V2@0@Z 1000df30 f i aimbot_recode.obj
 0001:0000d180       ?calculate_lerp@@YAMXZ     1000e180 f i aimbot_recode.obj
 0001:0000d5b0       ?capacity@?$vector@MV?$allocator@M@std@@@std@@QBEIXZ 1000e5b0 f i c_font.obj
 0001:0000d5b0       ?capacity@?$vector@PAVLua_Hook@@V?$allocator@PAVLua_Hook@@@std@@@std@@QBEIXZ 1000e5b0 f i LuaAPI.obj
 0001:0000d5b0       ?capacity@?$vector@PAUanimation@c_animation_system@@V?$allocator@PAUanimation@c_animation_system@@@std@@@std@@QBEIXZ 1000e5b0 f i c_animation_system.obj
 0001:0000d5b0       ?capacity@?$vector@W4hitbox@c_cs_player@@V?$allocator@W4hitbox@c_cs_player@@@std@@@std@@QBEIXZ 1000e5b0 f i aimbot_recode.obj
 0001:0000d5b0       ?capacity@?$vector@HV?$allocator@H@std@@@std@@QBEIXZ 1000e5b0 f i aimbot_recode.obj
 0001:0000d5e0       ?capacity@?$vector@V?$vector@MV?$allocator@M@std@@@std@@V?$allocator@V?$vector@MV?$allocator@M@std@@@std@@@2@@std@@QBEIXZ 1000e5e0 f i c_font.obj
 0001:0000d5e0       ?capacity@?$vector@Vc_vector3d@@V?$allocator@Vc_vector3d@@@std@@@std@@QBEIXZ 1000e5e0 f i aimbot_recode.obj
 0001:0000d5e0       ?capacity@?$vector@V?$tuple@MMM@std@@V?$allocator@V?$tuple@MMM@std@@@2@@std@@QBEIXZ 1000e5e0 f i c_aimhelper.obj
 0001:0000d610       ?clear@?$_Hash@V?$_Umap_traits@IUnetvar@c_netvar@@V?$_Uhash_compare@IU?$hash@I@std@@U?$equal_to@I@2@@std@@V?$allocator@U?$pair@$$CBIUnetvar@c_netvar@@@std@@@4@$0A@@std@@@std@@QAEXXZ 1000e610 f i aimbot_recode.obj
 0001:0000d6d0       ?clear@?$_Hash@V?$_Umap_traits@IV?$unordered_map@IUnetvar@c_netvar@@U?$hash@I@std@@U?$equal_to@I@4@V?$allocator@U?$pair@$$CBIUnetvar@c_netvar@@@std@@@4@@std@@V?$_Uhash_compare@IU?$hash@I@std@@U?$equal_to@I@2@@2@V?$allocator@U?$pair@$$CBIV?$unordered_map@IUnetvar@c_netvar@@U?$hash@I@std@@U?$equal_to@I@4@V?$allocator@U?$pair@$$CBIUnetvar@c_netvar@@@std@@@4@@std@@@std@@@2@$0A@@std@@@std@@QAEXXZ 1000e6d0 f i aimbot_recode.obj
 0001:0000d790       ?clear@?$list@U?$pair@$$CBIUnetvar@c_netvar@@@std@@V?$allocator@U?$pair@$$CBIUnetvar@c_netvar@@@std@@@2@@std@@QAEXXZ 1000e790 f i aimbot_recode.obj
 0001:0000d800       ?clear@?$list@U?$pair@$$CBIV?$unordered_map@IUnetvar@c_netvar@@U?$hash@I@std@@U?$equal_to@I@4@V?$allocator@U?$pair@$$CBIUnetvar@c_netvar@@@std@@@4@@std@@@std@@V?$allocator@U?$pair@$$CBIV?$unordered_map@IUnetvar@c_netvar@@U?$hash@I@std@@U?$equal_to@I@4@V?$allocator@U?$pair@$$CBIUnetvar@c_netvar@@@std@@@4@@std@@@std@@@2@@std@@QAEXXZ 1000e800 f i aimbot_recode.obj
 0001:0000d870       ?clear@?$vector@DV?$allocator@D@std@@@std@@QAEXXZ 1000e870 f i c_menu.obj
 0001:0000d870       ?clear@?$vector@Uhitmarker_info@@V?$allocator@Uhitmarker_info@@@std@@@std@@QAEXXZ 1000e870 f i c_hitmarker.obj
 0001:0000d870       ?clear@?$vector@Uplayer_info@c_esp@@V?$allocator@Uplayer_info@c_esp@@@std@@@std@@QAEXXZ 1000e870 f i c_esp.obj
 0001:0000d870       ?clear@?$vector@W4hitbox@c_cs_player@@V?$allocator@W4hitbox@c_cs_player@@@std@@@std@@QAEXXZ 1000e870 f i aimbot_recode.obj
 0001:0000d870       ?clear@?$vector@Unade_info@c_esp@@V?$allocator@Unade_info@c_esp@@@std@@@std@@QAEXXZ 1000e870 f i c_esp.obj
 0001:0000d870       ?clear@?$vector@Udamage_infos@@V?$allocator@Udamage_infos@@@std@@@std@@QAEXXZ 1000e870 f i c_esp.obj
 0001:0000d8f0       ?cos@@YAMM@Z               1000e8f0 f i aimbot_recode.obj
 0001:0000d910       ?cross@c_vector3d@@QBE?AV1@ABV1@@Z 1000e910 f i aimbot_recode.obj
 0001:0000da50       ?data@?$vector@HV?$allocator@H@std@@@std@@QAEPAHXZ 1000ea50 f i aimbot_recode.obj
 0001:0000daa0       ?deallocate@?$_Default_allocator_traits@V?$allocator@U?$_List_node@U?$pair@$$CBIUanimation_info@c_animation_system@@@std@@PAX@std@@@std@@@std@@SAXAAV?$allocator@U?$_List_node@U?$pair@$$CBIUanimation_info@c_animation_system@@@std@@PAX@std@@@2@QAU?$_List_node@U?$pair@$$CBIUanimation_info@c_animation_system@@@std@@PAX@2@I@Z 1000eaa0 f i aimbot_recode.obj
 0001:0000dac0       ?deallocate@?$_Default_allocator_traits@V?$allocator@V?$map@V?$basic_string@DU?$char_traits@D@std@@V?$allocator@D@2@@std@@V?$basic_json@Vmap@std@@Vvector@2@V?$basic_string@DU?$char_traits@D@std@@V?$allocator@D@2@@2@_N_J_KNVallocator@2@Uadl_serializer@nlohmann@@@nlohmann@@U?$less@X@2@V?$allocator@U?$pair@$$CBV?$basic_string@DU?$char_traits@D@std@@V?$allocator@D@2@@std@@V?$basic_json@Vmap@std@@Vvector@2@V?$basic_string@DU?$char_traits@D@std@@V?$allocator@D@2@@2@_N_J_KNVallocator@2@Uadl_serializer@nlohmann@@@nlohmann@@@std@@@2@@std@@@std@@@std@@SAXAAV?$allocator@V?$map@V?$basic_string@DU?$char_traits@D@std@@V?$allocator@D@2@@std@@V?$basic_json@Vmap@std@@Vvector@2@V?$basic_string@DU?$char_traits@D@std@@V?$allocator@D@2@@2@_N_J_KNVallocator@2@Uadl_serializer@nlohmann@@@nlohmann@@U?$less@X@2@V?$allocator@U?$pair@$$CBV?$basic_string@DU?$char_traits@D@std@@V?$allocator@D@2@@std@@V?$basic_json@Vmap@std@@Vvector@2@V?$basic_string@DU?$char_traits@D@std@@V?$allocator@D@2@@2@_N_J_KNVallocator@2@Uadl_serializer@nlohmann@@@nlohmann@@@std@@@2@@std@@@2@QAV?$map@V?$basic_string@DU?$char_traits@D@std@@V?$allocator@D@2@@std@@V?$basic_json@Vmap@std@@Vvector@2@V?$basic_string@DU?$char_traits@D@std@@V?$allocator@D@2@@2@_N_J_KNVallocator@2@Uadl_serializer@nlohmann@@@nlohmann@@U?$less@X@2@V?$allocator@U?$pair@$$CBV?$basic_string@DU?$char_traits@D@std@@V?$allocator@D@2@@std@@V?$basic_json@Vmap@std@@Vvector@2@V?$basic_string@DU?$char_traits@D@std@@V?$allocator@D@2@@2@_N_J_KNVallocator@2@Uadl_serializer@nlohmann@@@nlohmann@@@std@@@2@@2@I@Z 1000eac0 f i c_menu.obj
 0001:0000dac0       ?deallocate@?$_Default_allocator_traits@V?$allocator@U_Container_proxy@std@@@std@@@std@@SAXAAV?$allocator@U_Container_proxy@std@@@2@QAU_Container_proxy@2@I@Z 1000eac0 f i aimbot_recode.obj
 0001:0000dae0       ?deallocate@?$allocator@U?$_List_node@U?$pair@$$CBIUnetvar@c_netvar@@@std@@PAX@std@@@std@@QAEXQAU?$_List_node@U?$pair@$$CBIUnetvar@c_netvar@@@std@@PAX@2@I@Z 1000eae0 f i aimbot_recode.obj
 0001:0000dae0       ?deallocate@?$allocator@Uhitmarker_info@@@std@@QAEXQAUhitmarker_info@@I@Z 1000eae0 f i c_hitmarker.obj
 0001:0000dae0       ?deallocate@?$allocator@UCIncomingSequence@@@std@@QAEXQAUCIncomingSequence@@I@Z 1000eae0 f i c_fake_ping.obj
 0001:0000db00       ?deallocate@?$allocator@U?$_List_node@U?$pair@$$CBIV?$unordered_map@IUnetvar@c_netvar@@U?$hash@I@std@@U?$equal_to@I@4@V?$allocator@U?$pair@$$CBIUnetvar@c_netvar@@@std@@@4@@std@@@std@@PAX@std@@@std@@QAEXQAU?$_List_node@U?$pair@$$CBIV?$unordered_map@IUnetvar@c_netvar@@U?$hash@I@std@@U?$equal_to@I@4@V?$allocator@U?$pair@$$CBIUnetvar@c_netvar@@@std@@@4@@std@@@std@@PAX@2@I@Z 1000eb00 f i aimbot_recode.obj
 0001:0000db20       ?deallocate@?$allocator@Uanimation@c_animation_system@@@std@@QAEXQAUanimation@c_animation_system@@I@Z 1000eb20 f i aimbot_recode.obj
 0001:0000db50       ?deallocate@?$allocator@Unade_info@c_esp@@@std@@QAEXQAUnade_info@c_esp@@I@Z 1000eb50 f i aimbot_recode.obj
 0001:0000db50       ?deallocate@?$allocator@V?$basic_json@Vmap@std@@Vvector@2@V?$basic_string@DU?$char_traits@D@std@@V?$allocator@D@2@@2@_N_J_KNVallocator@2@Uadl_serializer@nlohmann@@@nlohmann@@@std@@QAEXQAV?$basic_json@Vmap@std@@Vvector@2@V?$basic_string@DU?$char_traits@D@std@@V?$allocator@D@2@@2@_N_J_KNVallocator@2@Uadl_serializer@nlohmann@@@nlohmann@@I@Z 1000eb50 f i c_menu.obj
 0001:0000db50       ?deallocate@?$allocator@Uimpact_info@@@std@@QAEXQAUimpact_info@@I@Z 1000eb50 f i c_hitmarker.obj
 0001:0000db70       ?deallocate@?$allocator@Uplayer_info@c_esp@@@std@@QAEXQAUplayer_info@c_esp@@I@Z 1000eb70 f i aimbot_recode.obj
 0001:0000dba0       ?deallocate@?$allocator@Ushot@resolver@@@std@@QAEXQAUshot@resolver@@I@Z 1000eba0 f i aimbot_recode.obj
 0001:0000dbd0       ?deallocate@?$allocator@Vc_vector3d@@@std@@QAEXQAVc_vector3d@@I@Z 1000ebd0 f i aimbot_recode.obj
 0001:0000dbd0       ?deallocate@?$allocator@V?$vector@MV?$allocator@M@std@@@std@@@std@@QAEXQAV?$vector@MV?$allocator@M@std@@@2@I@Z 1000ebd0 f i c_font.obj
 0001:0000dbd0       ?deallocate@?$allocator@V?$tuple@MMM@std@@@std@@QAEXQAV?$tuple@MMM@2@I@Z 1000ebd0 f i c_aimhelper.obj
 0001:0000dbf0       ?dec@?$xorstr@$0L@$0FA@@@QAE?AV?$basic_string@DU?$char_traits@D@std@@V?$allocator@D@2@@std@@XZ 1000ebf0 f i aimbot_recode.obj
 0001:0000dcd0       ?dec@?$xorstr@$0L@$0L@@@QAE?AV?$basic_string@DU?$char_traits@D@std@@V?$allocator@D@2@@std@@XZ 1000ecd0 f i aimbot_recode.obj
 0001:0000ddb0       ?dot@c_vector3d@@QBEMPBM@Z 1000edb0 f i aimbot_recode.obj
 0001:0000de20       ?empty@?$deque@UCIncomingSequence@@V?$allocator@UCIncomingSequence@@@std@@@std@@QBE_NXZ 1000ee20 f i c_fake_ping.obj
 0001:0000de20       ?empty@?$deque@Uanimation@c_animation_system@@V?$allocator@Uanimation@c_animation_system@@@std@@@std@@QBE_NXZ 1000ee20 f i aimbot_recode.obj
 0001:0000de20       ?empty@?$deque@Ushot@resolver@@V?$allocator@Ushot@resolver@@@std@@@std@@QBE_NXZ 1000ee20 f i aimbot_recode.obj
 0001:0000de50       ?enc@?$xorstr@$05$0HK@@@CADD@Z 1000ee50 f i c_menu.obj
 0001:0000de50       ?enc@?$xorstr@$0BB@$0HK@@@CADD@Z 1000ee50 f i c_menu.obj
 0001:0000de50       ?enc@?$xorstr@$0BN@$0HK@@@CADD@Z 1000ee50 f i aimbot_recode.obj
 0001:0000de50       ?enc@?$xorstr@$03$0HK@@@CADD@Z 1000ee50 f i c_menu.obj
 0001:0000de50       ?enc@?$xorstr@$07$0HK@@@CADD@Z 1000ee50 f i LuaAPI.obj
 0001:0000de50       ?enc@?$xorstr@$0BC@$0HK@@@CADD@Z 1000ee50 f i c_menu.obj
 0001:0000de50       ?enc@?$xorstr@$0BD@$0HK@@@CADD@Z 1000ee50 f i c_menu.obj
 0001:0000de50       ?enc@?$xorstr@$0P@$0HK@@@CADD@Z 1000ee50 f i c_menu.obj
 0001:0000de60       ?enc@?$xorstr@$0BB@$0FA@@@CADD@Z 1000ee60 f i c_menu.obj
 0001:0000de60       ?enc@?$xorstr@$0P@$0FA@@@CADD@Z 1000ee60 f i c_menu.obj
 0001:0000de60       ?enc@?$xorstr@$08$0FA@@@CADD@Z 1000ee60 f i c_menu.obj
 0001:0000de60       ?enc@?$xorstr@$05$0FA@@@CADD@Z 1000ee60 f i c_menu.obj
 0001:0000de60       ?enc@?$xorstr@$0BC@$0FA@@@CADD@Z 1000ee60 f i c_menu.obj
 0001:0000de60       ?enc@?$xorstr@$0BF@$0FA@@@CADD@Z 1000ee60 f i c_menu.obj
 0001:0000de60       ?enc@?$xorstr@$07$0FA@@@CADD@Z 1000ee60 f i c_menu.obj
 0001:0000de60       ?enc@?$xorstr@$0N@$0FA@@@CADD@Z 1000ee60 f i c_menu.obj
 0001:0000de60       ?enc@?$xorstr@$0L@$0FA@@@CADD@Z 1000ee60 f i aimbot_recode.obj
 0001:0000de70       ?enc@?$xorstr@$01$0L@@@CADD@Z 1000ee70 f i c_resolver.obj
 0001:0000de70       ?enc@?$xorstr@$0BD@$0L@@@CADD@Z 1000ee70 f i c_menu.obj
 0001:0000de70       ?enc@?$xorstr@$09$0L@@@CADD@Z 1000ee70 f i c_menu.obj
 0001:0000de70       ?enc@?$xorstr@$0L@$0L@@@CADD@Z 1000ee70 f i aimbot_recode.obj
 0001:0000de70       ?enc@?$xorstr@$08$0L@@@CADD@Z 1000ee70 f i c_menu.obj
 0001:0000de70       ?enc@?$xorstr@$0BB@$0L@@@CADD@Z 1000ee70 f i c_menu.obj
 0001:0000de70       ?enc@?$xorstr@$02$0L@@@CADD@Z 1000ee70 f i c_resolver.obj
 0001:0000de70       ?enc@?$xorstr@$0M@$0L@@@CADD@Z 1000ee70 f i c_menu.obj
 0001:0000de80       ?end@?$basic_string@DU?$char_traits@D@std@@V?$allocator@D@2@@std@@QAE?AV?$_String_iterator@V?$_String_val@U?$_Simple_types@D@std@@@std@@@2@XZ 1000ee80 f i aimbot_recode.obj
 0001:0000dfa0       ?find@?$_Narrow_char_traits@DH@std@@SAPBDQBDIABD@Z 1000efa0 f i aimbot_recode.obj
 0001:0000dfd0       ?find_first_not_of@?$basic_string@DU?$char_traits@D@std@@V?$allocator@D@2@@std@@QBEIQBDI@Z 1000efd0 f i aimbot_recode.obj
 0001:0000e070       ?find_first_of@?$basic_string@DU?$char_traits@D@std@@V?$allocator@D@2@@std@@QBEIQBDI@Z 1000f070 f i aimbot_recode.obj
 0001:0000e110       ?find_in_data_map@@YAIPAUdatamap_t@@I@Z 1000f110 f i aimbot_recode.obj
 0001:0000e1f0       ?find_module_sig@memory@@YAPAEIPBD@Z 1000f1f0 f i aimbot_recode.obj
 0001:0000e240       ?find_sig@memory@@YAPAEIPBDI@Z 1000f240 f i aimbot_recode.obj
 0001:0000e350       ?find_var@c_cvar@@QAEPAVconvar@@PBD@Z 1000f350 f i aimbot_recode.obj
 0001:0000e350       ?set_value@convar@@QAEXH@Z 1000f350 f i c_miscellaneous.obj
 0001:0000e380       ?fnv1a_rt@@YAIPBD@Z        1000f380 f i aimbot_recode.obj
 0001:0000e410       ?for_each_player@c_client_entity_list@@QAEXV?$function@$$A6AXPAVc_cs_player@@@Z@std@@@Z 1000f410 f i aimbot_recode.obj
 0001:0000e4c0       ?fpclassify@@YAHM@Z        1000f4c0 f i aimbot_recode.obj
 0001:0000e500       ?get@c_config@@QAEAAUconfig_conf@1@XZ 1000f500 f i aimbot_recode.obj
 0001:0000f980       ?get@c_weapon_system@@SAPAV1@XZ 10010980 f i aimbot_recode.obj
 0001:0000fa80       ?get_allocator@?$basic_string@DU?$char_traits@D@std@@V?$allocator@D@2@@std@@QBE?AV?$allocator@D@2@XZ 10010a80 f i aimbot_recode.obj
 0001:0000fa80       ?key_comp@?$_Tree@V?$_Tmap_traits@V?$basic_string@DU?$char_traits@D@std@@V?$allocator@D@2@@std@@V?$basic_json@Vmap@std@@Vvector@2@V?$basic_string@DU?$char_traits@D@std@@V?$allocator@D@2@@2@_N_J_KNVallocator@2@Uadl_serializer@nlohmann@@@nlohmann@@U?$less@X@2@V?$allocator@U?$pair@$$CBV?$basic_string@DU?$char_traits@D@std@@V?$allocator@D@2@@std@@V?$basic_json@Vmap@std@@Vvector@2@V?$basic_string@DU?$char_traits@D@std@@V?$allocator@D@2@@2@_N_J_KNVallocator@2@Uadl_serializer@nlohmann@@@nlohmann@@@std@@@2@$0A@@std@@@std@@QBE?AU?$less@X@2@XZ 10010a80 f i c_menu.obj
 0001:0000faa0       ?get_class_id@c_client_networkable@@QAE?AW4class_id@@XZ 10010aa0 f i aimbot_recode.obj
 0001:0000fac0       ?get_current_weapon_handle@c_base_combat_character@@QAEAAIXZ 10010ac0 f i aimbot_recode.obj
 0001:0000fb90       ?get_duck_amount@c_base_entity@@QAEAAMXZ 10010b90 f i aimbot_recode.obj
 0001:0000fd40       ?get_flags@c_base_player@@QAEAAHXZ 10010d40 f i aimbot_recode.obj
 0001:0000fe10       ?get_float@convar@@QAEMXZ  10010e10 f i aimbot_recode.obj
 0001:0000fe40       ?get_gun_game_immunity@c_cs_player@@QAEAA_NXZ 10010e40 f i aimbot_recode.obj
 0001:0000ff10       ?get_health@c_cs_player@@QAEAAHXZ 10010f10 f i aimbot_recode.obj
 0001:0000ffe0       ?get_hitbox@mstudiohitboxset_t@@QBEPAUmstudiobbox_t@@H@Z 10010fe0 f i aimbot_recode.obj
 0001:00010010       ?get_hitbox_set@studiohdr@@QBEPAUmstudiohitboxset_t@@H@Z 10011010 f i aimbot_recode.obj
 0001:00010040       ?get_int@convar@@QAEHXZ    10011040 f i aimbot_recode.obj
 0001:00010070       ?get_item_definition@c_base_attributable_item@@QAEAAFXZ 10011070 f i aimbot_recode.obj
 0001:00010140       ?get_max_clients@c_engine_client@@QAEIXZ 10011140 f i aimbot_recode.obj
 0001:00010170       ?get_module_handle@memory@@YAIII@Z 10011170 f i aimbot_recode.obj
 0001:00010320       ?get_pred_desc_map@c_base_entity@@QAEPAUdatamap_t@@XZ 10011320 f i aimbot_recode.obj
 0001:00010350       ?get_proc_address@memory@@YAIII_N@Z 10011350 f i aimbot_recode.obj
 0001:000104b0       ?get_studio_model@c_model_info_client@@QAEPAUstudiohdr@@PBUmodel@@@Z 100114b0 f i aimbot_recode.obj
 0001:000104e0       ?get_velocity@c_base_player@@QAEAAVc_vector3d@@XZ 100114e0 f i aimbot_recode.obj
 0001:000105b0       ?get_weapon_id@weapon_data@c_base_combat_weapon@@QBEHXZ 100115b0 f i aimbot_recode.obj
 0001:000105e0       ?get_zoom_level@c_base_combat_weapon@@QAEAAHXZ 100115e0 f i aimbot_recode.obj
 0001:000106b0       ??Bsentry@?$basic_ostream@DU?$char_traits@D@std@@@std@@QBE_NXZ 100116b0 f i c_chams.obj
 0001:000106b0       ?has_value@?$optional@PAUanimation@c_animation_system@@@std@@QBE_NXZ 100116b0 f i aimbot_recode.obj
 0001:000106b0       ?has_value@?$optional@W4hitbox@c_cs_player@@@std@@QBE_NXZ 100116b0 f i c_aimhelper.obj
 0001:000106b0       ?has_value@?$optional@PAVc_drawable@@@std@@QBE_NXZ 100116b0 f i c_menu.obj
 0001:000106b0       ??B?$optional@PAUanimation@c_animation_system@@@std@@QBE_NXZ 100116b0 f i c_aimhelper.obj
 0001:000106d0       ?has_value@?$optional@Uwall_pen@c_trace_system@@@std@@QBE_NXZ 100116d0 f i aimbot_recode.obj
 0001:000106d0       ?has_value@?$optional@Vc_vector3d@@@std@@QBE_NXZ 100116d0 f i c_aimhelper.obj
 0001:000106f0       ?has_value@?$optional@Uweapon_conf@rage_conf@config_conf@c_config@@@std@@QBE_NXZ 100116f0 f i aimbot_recode.obj
 0001:00010710       ?is_alive@c_base_entity@@QAE_NXZ 10011710 f i aimbot_recode.obj
 0001:00010740       ?is_on_ground@c_base_player@@QAE_NXZ 10011740 f i aimbot_recode.obj
 0001:000107a0       ?is_player@c_client_networkable@@QAE_NXZ 100117a0 f i aimbot_recode.obj
 0001:000107d0       ?is_valid@c_vector3d@@QBE_NXZ 100117d0 f i aimbot_recode.obj
 0001:00010850       ?length2d@c_vector3d@@QBEMXZ 10011850 f i aimbot_recode.obj
 0001:000108e0       ?length@?$_Narrow_char_traits@DH@std@@SAIQBD@Z 100118e0 f i aimbot_recode.obj
 0001:00010920       ?length@c_vector3d@@QBEMXZ 10011920 f i aimbot_recode.obj
 0001:000109c0       ?max_load_factor@?$_Hash@V?$_Umap_traits@IV?$unordered_map@IUnetvar@c_netvar@@U?$hash@I@std@@U?$equal_to@I@4@V?$allocator@U?$pair@$$CBIUnetvar@c_netvar@@@std@@@4@@std@@V?$_Uhash_compare@IU?$hash@I@std@@U?$equal_to@I@2@@2@V?$allocator@U?$pair@$$CBIV?$unordered_map@IUnetvar@c_netvar@@U?$hash@I@std@@U?$equal_to@I@4@V?$allocator@U?$pair@$$CBIUnetvar@c_netvar@@@std@@@4@@std@@@std@@@2@$0A@@std@@@std@@QBEMXZ 100119c0 f i aimbot_recode.obj
 0001:000109c0       ?max_load_factor@?$_Hash@V?$_Umap_traits@IVc_font@@V?$_Uhash_compare@IU?$hash@I@std@@U?$equal_to@I@2@@std@@V?$allocator@U?$pair@$$CBIVc_font@@@std@@@3@$0A@@std@@@std@@QBEMXZ 100119c0 f i c_renderer.obj
 0001:000109c0       ?max_load_factor@?$_Hash@V?$_Umap_traits@IUnetvar@c_netvar@@V?$_Uhash_compare@IU?$hash@I@std@@U?$equal_to@I@2@@std@@V?$allocator@U?$pair@$$CBIUnetvar@c_netvar@@@std@@@4@$0A@@std@@@std@@QBEMXZ 100119c0 f i aimbot_recode.obj
 0001:000109c0       ?max_load_factor@?$_Hash@V?$_Umap_traits@IUanimation_info@c_animation_system@@V?$_Uhash_compare@IU?$hash@I@std@@U?$equal_to@I@2@@std@@V?$allocator@U?$pair@$$CBIUanimation_info@c_animation_system@@@std@@@4@$0A@@std@@@std@@QBEMXZ 100119c0 f i c_animation_system.obj
 0001:000109e0       ?max_size@?$_Default_allocator_traits@V?$allocator@PAUanimation@c_animation_system@@@std@@@std@@SAIABV?$allocator@PAUanimation@c_animation_system@@@2@@Z 100119e0 f i c_aimhelper.obj
 0001:000109e0       ?max_size@?$_Default_allocator_traits@V?$allocator@V?$_List_unchecked_iterator@V?$_List_val@U?$_List_simple_types@U?$pair@$$CBIUanimation_info@c_animation_system@@@std@@@std@@@std@@@std@@@std@@@std@@SAIABV?$allocator@V?$_List_unchecked_iterator@V?$_List_val@U?$_List_simple_types@U?$pair@$$CBIUanimation_info@c_animation_system@@@std@@@std@@@std@@@std@@@2@@Z 100119e0 f i c_animation_system.obj
 0001:000109e0       ?max_size@?$_Default_allocator_traits@V?$allocator@V?$_List_unchecked_iterator@V?$_List_val@U?$_List_simple_types@U?$pair@$$CBIV?$unordered_map@IUnetvar@c_netvar@@U?$hash@I@std@@U?$equal_to@I@4@V?$allocator@U?$pair@$$CBIUnetvar@c_netvar@@@std@@@4@@std@@@std@@@std@@@std@@@std@@@std@@@std@@SAIABV?$allocator@V?$_List_unchecked_iterator@V?$_List_val@U?$_List_simple_types@U?$pair@$$CBIV?$unordered_map@IUnetvar@c_netvar@@U?$hash@I@std@@U?$equal_to@I@4@V?$allocator@U?$pair@$$CBIUnetvar@c_netvar@@@std@@@4@@std@@@std@@@std@@@std@@@std@@@2@@Z 100119e0 f i aimbot_recode.obj
